ARM GAS  C:\Users\Henny\AppData\Local\Temp\ccAaGkFp.s 			page 1


   1              		.cpu cortex-m0
   2              		.fpu softvfp
   3              		.eabi_attribute 20, 1
   4              		.eabi_attribute 21, 1
   5              		.eabi_attribute 23, 3
   6              		.eabi_attribute 24, 1
   7              		.eabi_attribute 25, 1
   8              		.eabi_attribute 26, 1
   9              		.eabi_attribute 30, 6
  10              		.eabi_attribute 34, 0
  11              		.eabi_attribute 18, 4
  12              		.code	16
  13              		.file	"ADC.c"
  14              		.text
  15              	.Ltext0:
  16              		.cfi_sections	.debug_frame
  17              		.global	ADC_initVar
  18              		.bss
  19              		.type	ADC_initVar, %object
  20              		.size	ADC_initVar, 1
  21              	ADC_initVar:
  22 0000 00       		.space	1
  23              		.comm	ADC_offset,4,4
  24              		.comm	ADC_countsPer10Volt,8,4
  25              		.section	.rodata
  26              		.align	2
  27              		.type	ADC_channelsConfig, %object
  28              		.size	ADC_channelsConfig, 8
  29              	ADC_channelsConfig:
  30 0000 00040000 		.word	1024
  31 0004 00040000 		.word	1024
  32              		.section	.text.ADC_Start,"ax",%progbits
  33              		.align	2
  34              		.global	ADC_Start
  35              		.code	16
  36              		.thumb_func
  37              		.type	ADC_Start, %function
  38              	ADC_Start:
  39              	.LFB2:
  40              		.file 1 ".\\Generated_Source\\PSoC4\\ADC.c"
   1:.\Generated_Source\PSoC4/ADC.c **** /*******************************************************************************
   2:.\Generated_Source\PSoC4/ADC.c **** * File Name: ADC.c
   3:.\Generated_Source\PSoC4/ADC.c **** * Version 2.30
   4:.\Generated_Source\PSoC4/ADC.c **** *
   5:.\Generated_Source\PSoC4/ADC.c **** * Description:
   6:.\Generated_Source\PSoC4/ADC.c **** *  This file provides the source code to the API for the Sequencing Successive
   7:.\Generated_Source\PSoC4/ADC.c **** *  Approximation ADC Component Component.
   8:.\Generated_Source\PSoC4/ADC.c **** *
   9:.\Generated_Source\PSoC4/ADC.c **** * Note:
  10:.\Generated_Source\PSoC4/ADC.c **** *
  11:.\Generated_Source\PSoC4/ADC.c **** ********************************************************************************
  12:.\Generated_Source\PSoC4/ADC.c **** * Copyright 2008-2015, Cypress Semiconductor Corporation.  All rights reserved.
  13:.\Generated_Source\PSoC4/ADC.c **** * You may use this file only in accordance with the license, terms, conditions,
  14:.\Generated_Source\PSoC4/ADC.c **** * disclaimers, and limitations in the end user license agreement accompanying
  15:.\Generated_Source\PSoC4/ADC.c **** * the software package with which this file was provided.
  16:.\Generated_Source\PSoC4/ADC.c **** *******************************************************************************/
  17:.\Generated_Source\PSoC4/ADC.c **** 
ARM GAS  C:\Users\Henny\AppData\Local\Temp\ccAaGkFp.s 			page 2


  18:.\Generated_Source\PSoC4/ADC.c **** #include "ADC.h"
  19:.\Generated_Source\PSoC4/ADC.c **** 
  20:.\Generated_Source\PSoC4/ADC.c **** 
  21:.\Generated_Source\PSoC4/ADC.c **** /***************************************
  22:.\Generated_Source\PSoC4/ADC.c **** * Global data allocation
  23:.\Generated_Source\PSoC4/ADC.c **** ***************************************/
  24:.\Generated_Source\PSoC4/ADC.c **** uint8 ADC_initVar = 0u;
  25:.\Generated_Source\PSoC4/ADC.c **** volatile int16 ADC_offset[ADC_TOTAL_CHANNELS_NUM];
  26:.\Generated_Source\PSoC4/ADC.c **** volatile int32 ADC_countsPer10Volt[ADC_TOTAL_CHANNELS_NUM];   /* Gain compensation */
  27:.\Generated_Source\PSoC4/ADC.c **** 
  28:.\Generated_Source\PSoC4/ADC.c **** 
  29:.\Generated_Source\PSoC4/ADC.c **** /***************************************
  30:.\Generated_Source\PSoC4/ADC.c **** * Local data allocation
  31:.\Generated_Source\PSoC4/ADC.c **** ***************************************/
  32:.\Generated_Source\PSoC4/ADC.c **** /* Channels configuration generated by customiser */
  33:.\Generated_Source\PSoC4/ADC.c **** static const uint32 CYCODE ADC_channelsConfig[] = { 0x00000400u, 0x00000400u };
  34:.\Generated_Source\PSoC4/ADC.c **** 
  35:.\Generated_Source\PSoC4/ADC.c **** 
  36:.\Generated_Source\PSoC4/ADC.c **** /*******************************************************************************
  37:.\Generated_Source\PSoC4/ADC.c **** * Function Name: ADC_Start
  38:.\Generated_Source\PSoC4/ADC.c **** ********************************************************************************
  39:.\Generated_Source\PSoC4/ADC.c **** *
  40:.\Generated_Source\PSoC4/ADC.c **** * Summary:
  41:.\Generated_Source\PSoC4/ADC.c **** *  Performs all required initialization for this component
  42:.\Generated_Source\PSoC4/ADC.c **** *  and enables the power. The power will be set to the appropriate
  43:.\Generated_Source\PSoC4/ADC.c **** *  power based on the clock frequency.
  44:.\Generated_Source\PSoC4/ADC.c **** *
  45:.\Generated_Source\PSoC4/ADC.c **** * Parameters:
  46:.\Generated_Source\PSoC4/ADC.c **** *  None.
  47:.\Generated_Source\PSoC4/ADC.c **** *
  48:.\Generated_Source\PSoC4/ADC.c **** * Return:
  49:.\Generated_Source\PSoC4/ADC.c **** *  None.
  50:.\Generated_Source\PSoC4/ADC.c **** *
  51:.\Generated_Source\PSoC4/ADC.c **** * Global variables:
  52:.\Generated_Source\PSoC4/ADC.c **** *  The ADC_initVar variable is used to indicate when/if initial
  53:.\Generated_Source\PSoC4/ADC.c **** *  configuration of this component has happened. The variable is initialized to
  54:.\Generated_Source\PSoC4/ADC.c **** *  zero and set to 1 the first time ADC_Start() is called. This allows for
  55:.\Generated_Source\PSoC4/ADC.c **** *  component Re-Start without re-initialization in all subsequent calls to the
  56:.\Generated_Source\PSoC4/ADC.c **** *  ADC_Start() routine.
  57:.\Generated_Source\PSoC4/ADC.c **** *  If re-initialization of the component is required the variable should be set
  58:.\Generated_Source\PSoC4/ADC.c **** *  to zero before call of ADC_Start() routine, or the user may call
  59:.\Generated_Source\PSoC4/ADC.c **** *  ADC_Init() and ADC_Enable() as done in the
  60:.\Generated_Source\PSoC4/ADC.c **** *  ADC_Start() routine.
  61:.\Generated_Source\PSoC4/ADC.c **** *
  62:.\Generated_Source\PSoC4/ADC.c **** *******************************************************************************/
  63:.\Generated_Source\PSoC4/ADC.c **** void ADC_Start(void)
  64:.\Generated_Source\PSoC4/ADC.c **** {
  41              		.loc 1 64 0
  42              		.cfi_startproc
  43 0000 80B5     		push	{r7, lr}
  44              		.cfi_def_cfa_offset 8
  45              		.cfi_offset 7, -8
  46              		.cfi_offset 14, -4
  47 0002 00AF     		add	r7, sp, #0
  48              		.cfi_def_cfa_register 7
  65:.\Generated_Source\PSoC4/ADC.c ****     /* If not Initialized then initialize all required hardware and software */
  66:.\Generated_Source\PSoC4/ADC.c ****     if(ADC_initVar == 0u)
ARM GAS  C:\Users\Henny\AppData\Local\Temp\ccAaGkFp.s 			page 3


  49              		.loc 1 66 0
  50 0004 064B     		ldr	r3, .L3
  51 0006 1B78     		ldrb	r3, [r3]
  52 0008 002B     		cmp	r3, #0
  53 000a 04D1     		bne	.L2
  67:.\Generated_Source\PSoC4/ADC.c ****     {
  68:.\Generated_Source\PSoC4/ADC.c ****         ADC_Init();
  54              		.loc 1 68 0
  55 000c FFF7FEFF 		bl	ADC_Init
  69:.\Generated_Source\PSoC4/ADC.c ****         ADC_initVar = 1u;
  56              		.loc 1 69 0
  57 0010 034B     		ldr	r3, .L3
  58 0012 0122     		mov	r2, #1
  59 0014 1A70     		strb	r2, [r3]
  60              	.L2:
  70:.\Generated_Source\PSoC4/ADC.c ****     }
  71:.\Generated_Source\PSoC4/ADC.c ****     ADC_Enable();
  61              		.loc 1 71 0
  62 0016 FFF7FEFF 		bl	ADC_Enable
  72:.\Generated_Source\PSoC4/ADC.c **** }
  63              		.loc 1 72 0
  64 001a BD46     		mov	sp, r7
  65              		@ sp needed
  66 001c 80BD     		pop	{r7, pc}
  67              	.L4:
  68 001e C046     		.align	2
  69              	.L3:
  70 0020 00000000 		.word	ADC_initVar
  71              		.cfi_endproc
  72              	.LFE2:
  73              		.size	ADC_Start, .-ADC_Start
  74              		.section	.text.ADC_Init,"ax",%progbits
  75              		.align	2
  76              		.global	ADC_Init
  77              		.code	16
  78              		.thumb_func
  79              		.type	ADC_Init, %function
  80              	ADC_Init:
  81              	.LFB3:
  73:.\Generated_Source\PSoC4/ADC.c **** 
  74:.\Generated_Source\PSoC4/ADC.c **** 
  75:.\Generated_Source\PSoC4/ADC.c **** /*******************************************************************************
  76:.\Generated_Source\PSoC4/ADC.c **** * Function Name: ADC_Init
  77:.\Generated_Source\PSoC4/ADC.c **** ********************************************************************************
  78:.\Generated_Source\PSoC4/ADC.c **** *
  79:.\Generated_Source\PSoC4/ADC.c **** * Summary:
  80:.\Generated_Source\PSoC4/ADC.c **** *  Initialize component's parameters to the parameters set by user in the
  81:.\Generated_Source\PSoC4/ADC.c **** *  customizer of the component placed onto schematic. Usually called in
  82:.\Generated_Source\PSoC4/ADC.c **** *  ADC_Start().
  83:.\Generated_Source\PSoC4/ADC.c **** *
  84:.\Generated_Source\PSoC4/ADC.c **** * Parameters:
  85:.\Generated_Source\PSoC4/ADC.c **** *  None.
  86:.\Generated_Source\PSoC4/ADC.c **** *
  87:.\Generated_Source\PSoC4/ADC.c **** * Return:
  88:.\Generated_Source\PSoC4/ADC.c **** *  None.
  89:.\Generated_Source\PSoC4/ADC.c **** *
  90:.\Generated_Source\PSoC4/ADC.c **** * Global variables:
ARM GAS  C:\Users\Henny\AppData\Local\Temp\ccAaGkFp.s 			page 4


  91:.\Generated_Source\PSoC4/ADC.c **** *  The ADC_offset variable is initialized.
  92:.\Generated_Source\PSoC4/ADC.c **** *
  93:.\Generated_Source\PSoC4/ADC.c **** *******************************************************************************/
  94:.\Generated_Source\PSoC4/ADC.c **** void ADC_Init(void)
  95:.\Generated_Source\PSoC4/ADC.c **** {
  82              		.loc 1 95 0
  83              		.cfi_startproc
  84 0000 80B5     		push	{r7, lr}
  85              		.cfi_def_cfa_offset 8
  86              		.cfi_offset 7, -8
  87              		.cfi_offset 14, -4
  88 0002 84B0     		sub	sp, sp, #16
  89              		.cfi_def_cfa_offset 24
  90 0004 00AF     		add	r7, sp, #0
  91              		.cfi_def_cfa_register 7
  96:.\Generated_Source\PSoC4/ADC.c ****     uint32 chNum;
  97:.\Generated_Source\PSoC4/ADC.c ****     uint32 tmpRegVal;
  98:.\Generated_Source\PSoC4/ADC.c ****     int32 counts;
  99:.\Generated_Source\PSoC4/ADC.c **** 
 100:.\Generated_Source\PSoC4/ADC.c ****     #if(ADC_TOTAL_CHANNELS_NUM > 1u)
 101:.\Generated_Source\PSoC4/ADC.c ****         static const uint8 CYCODE ADC_InputsPlacement[] =
 102:.\Generated_Source\PSoC4/ADC.c ****         {
 103:.\Generated_Source\PSoC4/ADC.c ****             (uint8)(ADC_cy_psoc4_sarmux_8__CH_0_PORT << 4u) |
 104:.\Generated_Source\PSoC4/ADC.c ****             (uint8)ADC_cy_psoc4_sarmux_8__CH_0_PIN
 105:.\Generated_Source\PSoC4/ADC.c ****             ,(uint8)(ADC_cy_psoc4_sarmux_8__CH_1_PORT << 4u) |
 106:.\Generated_Source\PSoC4/ADC.c ****              (uint8)ADC_cy_psoc4_sarmux_8__CH_1_PIN
 107:.\Generated_Source\PSoC4/ADC.c ****             #if(ADC_TOTAL_CHANNELS_NUM > 2u)
 108:.\Generated_Source\PSoC4/ADC.c ****                 ,(uint8)(ADC_cy_psoc4_sarmux_8__CH_2_PORT << 4u) |
 109:.\Generated_Source\PSoC4/ADC.c ****                  (uint8)ADC_cy_psoc4_sarmux_8__CH_2_PIN
 110:.\Generated_Source\PSoC4/ADC.c ****             #endif /* End ADC_TOTAL_CHANNELS_NUM > 2u */
 111:.\Generated_Source\PSoC4/ADC.c ****             #if(ADC_TOTAL_CHANNELS_NUM > 3u)
 112:.\Generated_Source\PSoC4/ADC.c ****                 ,(uint8)(ADC_cy_psoc4_sarmux_8__CH_3_PORT << 4u) |
 113:.\Generated_Source\PSoC4/ADC.c ****                  (uint8)ADC_cy_psoc4_sarmux_8__CH_3_PIN
 114:.\Generated_Source\PSoC4/ADC.c ****             #endif /* End ADC_TOTAL_CHANNELS_NUM > 3u */
 115:.\Generated_Source\PSoC4/ADC.c ****             #if(ADC_TOTAL_CHANNELS_NUM > 4u)
 116:.\Generated_Source\PSoC4/ADC.c ****                 ,(uint8)(ADC_cy_psoc4_sarmux_8__CH_4_PORT << 4u) |
 117:.\Generated_Source\PSoC4/ADC.c ****                  (uint8)ADC_cy_psoc4_sarmux_8__CH_4_PIN
 118:.\Generated_Source\PSoC4/ADC.c ****             #endif /* End ADC_TOTAL_CHANNELS_NUM > 4u */
 119:.\Generated_Source\PSoC4/ADC.c ****             #if(ADC_TOTAL_CHANNELS_NUM > 5u)
 120:.\Generated_Source\PSoC4/ADC.c ****                 ,(uint8)(ADC_cy_psoc4_sarmux_8__CH_5_PORT << 4u) |
 121:.\Generated_Source\PSoC4/ADC.c ****                  (uint8)ADC_cy_psoc4_sarmux_8__CH_5_PIN
 122:.\Generated_Source\PSoC4/ADC.c ****             #endif /* End ADC_TOTAL_CHANNELS_NUM > 5u */
 123:.\Generated_Source\PSoC4/ADC.c ****             #if(ADC_TOTAL_CHANNELS_NUM > 6u)
 124:.\Generated_Source\PSoC4/ADC.c ****                 ,(uint8)(ADC_cy_psoc4_sarmux_8__CH_6_PORT << 4u) |
 125:.\Generated_Source\PSoC4/ADC.c ****                  (uint8)ADC_cy_psoc4_sarmux_8__CH_6_PIN
 126:.\Generated_Source\PSoC4/ADC.c ****             #endif /* End ADC_TOTAL_CHANNELS_NUM > 6u */
 127:.\Generated_Source\PSoC4/ADC.c ****             #if(ADC_TOTAL_CHANNELS_NUM > 7u)
 128:.\Generated_Source\PSoC4/ADC.c ****                 ,(uint8)(ADC_cy_psoc4_sarmux_8__CH_7_PORT << 4u) |
 129:.\Generated_Source\PSoC4/ADC.c ****                  (uint8)ADC_cy_psoc4_sarmux_8__CH_7_PIN
 130:.\Generated_Source\PSoC4/ADC.c ****             #endif /* End ADC_TOTAL_CHANNELS_NUM > 7u */
 131:.\Generated_Source\PSoC4/ADC.c ****             #if(ADC_TOTAL_CHANNELS_NUM > 8u)
 132:.\Generated_Source\PSoC4/ADC.c ****                 ,(uint8)(ADC_cy_psoc4_sarmux_8__CH_8_PORT << 4u) |
 133:.\Generated_Source\PSoC4/ADC.c ****                  (uint8)ADC_cy_psoc4_sarmux_8__CH_8_PIN
 134:.\Generated_Source\PSoC4/ADC.c ****             #endif /* End ADC_TOTAL_CHANNELS_NUM > 8u */
 135:.\Generated_Source\PSoC4/ADC.c ****             #if(ADC_TOTAL_CHANNELS_NUM > 9u)
 136:.\Generated_Source\PSoC4/ADC.c ****                 ,(uint8)(ADC_cy_psoc4_sarmux_8__CH_9_PORT << 4u) |
 137:.\Generated_Source\PSoC4/ADC.c ****                  (uint8)ADC_cy_psoc4_sarmux_8__CH_9_PIN
ARM GAS  C:\Users\Henny\AppData\Local\Temp\ccAaGkFp.s 			page 5


 138:.\Generated_Source\PSoC4/ADC.c ****             #endif /* End ADC_TOTAL_CHANNELS_NUM > 9u */
 139:.\Generated_Source\PSoC4/ADC.c ****             #if(ADC_TOTAL_CHANNELS_NUM > 10u)
 140:.\Generated_Source\PSoC4/ADC.c ****                 ,(uint8)(ADC_cy_psoc4_sarmux_8__CH_10_PORT << 4u) |
 141:.\Generated_Source\PSoC4/ADC.c ****                  (uint8)ADC_cy_psoc4_sarmux_8__CH_10_PIN
 142:.\Generated_Source\PSoC4/ADC.c ****             #endif /* End ADC_TOTAL_CHANNELS_NUM > 10u */
 143:.\Generated_Source\PSoC4/ADC.c ****             #if(ADC_TOTAL_CHANNELS_NUM > 11u)
 144:.\Generated_Source\PSoC4/ADC.c ****                 ,(uint8)(ADC_cy_psoc4_sarmux_8__CH_11_PORT << 4u) |
 145:.\Generated_Source\PSoC4/ADC.c ****                  (uint8)ADC_cy_psoc4_sarmux_8__CH_11_PIN
 146:.\Generated_Source\PSoC4/ADC.c ****             #endif /* End ADC_TOTAL_CHANNELS_NUM > 11u */
 147:.\Generated_Source\PSoC4/ADC.c ****             #if(ADC_TOTAL_CHANNELS_NUM > 12u)
 148:.\Generated_Source\PSoC4/ADC.c ****                 ,(uint8)(ADC_cy_psoc4_sarmux_8__CH_12_PORT << 4u) |
 149:.\Generated_Source\PSoC4/ADC.c ****                  (uint8)ADC_cy_psoc4_sarmux_8__CH_12_PIN
 150:.\Generated_Source\PSoC4/ADC.c ****             #endif /* End ADC_TOTAL_CHANNELS_NUM > 12u */
 151:.\Generated_Source\PSoC4/ADC.c ****             #if(ADC_TOTAL_CHANNELS_NUM > 13u)
 152:.\Generated_Source\PSoC4/ADC.c ****                 ,(uint8)(ADC_cy_psoc4_sarmux_8__CH_13_PORT << 4u) |
 153:.\Generated_Source\PSoC4/ADC.c ****                  (uint8)ADC_cy_psoc4_sarmux_8__CH_13_PIN
 154:.\Generated_Source\PSoC4/ADC.c ****             #endif /* End ADC_TOTAL_CHANNELS_NUM > 13u */
 155:.\Generated_Source\PSoC4/ADC.c ****             #if(ADC_TOTAL_CHANNELS_NUM > 14u)
 156:.\Generated_Source\PSoC4/ADC.c ****                 ,(uint8)(ADC_cy_psoc4_sarmux_8__CH_14_PORT << 4u) |
 157:.\Generated_Source\PSoC4/ADC.c ****                  (uint8)ADC_cy_psoc4_sarmux_8__CH_14_PIN
 158:.\Generated_Source\PSoC4/ADC.c ****             #endif /* End ADC_TOTAL_CHANNELS_NUM > 14u */
 159:.\Generated_Source\PSoC4/ADC.c ****             #if(ADC_TOTAL_CHANNELS_NUM > 15u)
 160:.\Generated_Source\PSoC4/ADC.c ****                 ,(uint8)(ADC_cy_psoc4_sarmux_8__CH_15_PORT << 4u) |
 161:.\Generated_Source\PSoC4/ADC.c ****                  (uint8)ADC_cy_psoc4_sarmux_8__CH_15_PIN
 162:.\Generated_Source\PSoC4/ADC.c ****             #endif /* End ADC_TOTAL_CHANNELS_NUM > 15u */
 163:.\Generated_Source\PSoC4/ADC.c ****             #if(ADC_TOTAL_CHANNELS_NUM > 16u)
 164:.\Generated_Source\PSoC4/ADC.c ****                 ,(uint8)(ADC_cy_psoc4_sarmux_8__CH_16_PORT << 4u) |
 165:.\Generated_Source\PSoC4/ADC.c ****                  (uint8)ADC_cy_psoc4_sarmux_8__CH_16_PIN
 166:.\Generated_Source\PSoC4/ADC.c ****             #endif /* End ADC_TOTAL_CHANNELS_NUM > 16u */
 167:.\Generated_Source\PSoC4/ADC.c ****         };
 168:.\Generated_Source\PSoC4/ADC.c ****     #endif /* End ADC_TOTAL_CHANNELS_NUM > 1u */
 169:.\Generated_Source\PSoC4/ADC.c **** 
 170:.\Generated_Source\PSoC4/ADC.c ****     #if(ADC_IRQ_REMOVE == 0u)
 171:.\Generated_Source\PSoC4/ADC.c ****         /* Start and set interrupt vector */
 172:.\Generated_Source\PSoC4/ADC.c ****         CyIntSetPriority(ADC_INTC_NUMBER, ADC_INTC_PRIOR_NUMBER);
  92              		.loc 1 172 0
  93 0006 0F20     		mov	r0, #15
  94 0008 0321     		mov	r1, #3
  95 000a FFF7FEFF 		bl	CyIntSetPriority
 173:.\Generated_Source\PSoC4/ADC.c ****         (void)CyIntSetVector(ADC_INTC_NUMBER, &ADC_ISR);
  96              		.loc 1 173 0
  97 000e 784B     		ldr	r3, .L21
  98 0010 0F20     		mov	r0, #15
  99 0012 191C     		mov	r1, r3
 100 0014 FFF7FEFF 		bl	CyIntSetVector
 174:.\Generated_Source\PSoC4/ADC.c ****     #endif   /* End ADC_IRQ_REMOVE */
 175:.\Generated_Source\PSoC4/ADC.c **** 
 176:.\Generated_Source\PSoC4/ADC.c ****     /* Init SAR and MUX registers */
 177:.\Generated_Source\PSoC4/ADC.c ****     ADC_SAR_CHAN_EN_REG = ADC_DEFAULT_EN_CHANNELS;
 101              		.loc 1 177 0
 102 0018 764B     		ldr	r3, .L21+4
 103 001a 0122     		mov	r2, #1
 104 001c 1A60     		str	r2, [r3]
 178:.\Generated_Source\PSoC4/ADC.c ****     ADC_SAR_CTRL_REG |= ADC_DEFAULT_CTRL_REG_CFG | 
 179:.\Generated_Source\PSoC4/ADC.c ****         /* Enable the SAR internal pump when global pump is enabled */
 180:.\Generated_Source\PSoC4/ADC.c ****         (((ADC_PUMP_CTRL_REG & ADC_PUMP_CTRL_ENABLED) != 0u) ? 
 105              		.loc 1 180 0
ARM GAS  C:\Users\Henny\AppData\Local\Temp\ccAaGkFp.s 			page 6


 106 001e 764B     		ldr	r3, .L21+8
 107 0020 1B68     		ldr	r3, [r3]
 178:.\Generated_Source\PSoC4/ADC.c ****     ADC_SAR_CTRL_REG |= ADC_DEFAULT_CTRL_REG_CFG | 
 108              		.loc 1 178 0
 109 0022 002B     		cmp	r3, #0
 110 0024 01DA     		bge	.L6
 178:.\Generated_Source\PSoC4/ADC.c ****     ADC_SAR_CTRL_REG |= ADC_DEFAULT_CTRL_REG_CFG | 
 111              		.loc 1 178 0 is_stmt 0 discriminator 1
 112 0026 7549     		ldr	r1, .L21+12
 113 0028 00E0     		b	.L7
 114              	.L6:
 178:.\Generated_Source\PSoC4/ADC.c ****     ADC_SAR_CTRL_REG |= ADC_DEFAULT_CTRL_REG_CFG | 
 115              		.loc 1 178 0 discriminator 2
 116 002a 7549     		ldr	r1, .L21+16
 117              	.L7:
 178:.\Generated_Source\PSoC4/ADC.c ****     ADC_SAR_CTRL_REG |= ADC_DEFAULT_CTRL_REG_CFG | 
 118              		.loc 1 178 0 discriminator 4
 119 002c 754B     		ldr	r3, .L21+20
 120 002e 754A     		ldr	r2, .L21+20
 121 0030 1268     		ldr	r2, [r2]
 122 0032 0A43     		orr	r2, r1
 123 0034 1A60     		str	r2, [r3]
 181:.\Generated_Source\PSoC4/ADC.c ****         ADC_BOOSTPUMP_EN : 0u);
 182:.\Generated_Source\PSoC4/ADC.c ****     ADC_SAR_SAMPLE_CTRL_REG = ADC_DEFAULT_SAMPLE_CTRL_REG_CFG;
 124              		.loc 1 182 0 is_stmt 1 discriminator 4
 125 0036 744B     		ldr	r3, .L21+24
 126 0038 744A     		ldr	r2, .L21+28
 127 003a 1A60     		str	r2, [r3]
 183:.\Generated_Source\PSoC4/ADC.c ****     ADC_SAR_RANGE_THRES_REG = ADC_DEFAULT_RANGE_THRES_REG_CFG;
 128              		.loc 1 183 0 discriminator 4
 129 003c 744B     		ldr	r3, .L21+32
 130 003e 754A     		ldr	r2, .L21+36
 131 0040 1A60     		str	r2, [r3]
 184:.\Generated_Source\PSoC4/ADC.c ****     ADC_SAR_RANGE_COND_REG  = ADC_COMPARE_MODE;
 132              		.loc 1 184 0 discriminator 4
 133 0042 754B     		ldr	r3, .L21+40
 134 0044 0022     		mov	r2, #0
 135 0046 1A60     		str	r2, [r3]
 185:.\Generated_Source\PSoC4/ADC.c ****     ADC_SAR_SAMPLE_TIME01_REG = ADC_DEFAULT_SAMPLE_TIME01_REG_CFG;
 136              		.loc 1 185 0 discriminator 4
 137 0048 744B     		ldr	r3, .L21+44
 138 004a 754A     		ldr	r2, .L21+48
 139 004c 1A60     		str	r2, [r3]
 186:.\Generated_Source\PSoC4/ADC.c ****     ADC_SAR_SAMPLE_TIME23_REG = ADC_DEFAULT_SAMPLE_TIME23_REG_CFG;
 140              		.loc 1 186 0 discriminator 4
 141 004e 754B     		ldr	r3, .L21+52
 142 0050 734A     		ldr	r2, .L21+48
 143 0052 1A60     		str	r2, [r3]
 187:.\Generated_Source\PSoC4/ADC.c ****     
 188:.\Generated_Source\PSoC4/ADC.c ****     /* Connect Vm to VSSA when even one channel is single-ended or multiple channels configured */
 189:.\Generated_Source\PSoC4/ADC.c ****     #if(ADC_DEFAULT_MUX_SWITCH0 != 0u)
 190:.\Generated_Source\PSoC4/ADC.c ****         ADC_MUX_SWITCH0_REG |= ADC_DEFAULT_MUX_SWITCH0;
 144              		.loc 1 190 0 discriminator 4
 145 0054 744B     		ldr	r3, .L21+56
 146 0056 744A     		ldr	r2, .L21+56
 147 0058 1268     		ldr	r2, [r2]
 148 005a 8021     		mov	r1, #128
ARM GAS  C:\Users\Henny\AppData\Local\Temp\ccAaGkFp.s 			page 7


 149 005c 4902     		lsl	r1, r1, #9
 150 005e 0A43     		orr	r2, r1
 151 0060 1A60     		str	r2, [r3]
 191:.\Generated_Source\PSoC4/ADC.c ****         /* Set MUX_HW_CTRL_VSSA in MUX_SWITCH_HW_CTRL when multiple channels enabled */
 192:.\Generated_Source\PSoC4/ADC.c ****         #if(ADC_TOTAL_CHANNELS_NUM > 1u)
 193:.\Generated_Source\PSoC4/ADC.c ****             ADC_MUX_SWITCH_HW_CTRL_REG |= ADC_DEFAULT_MUX_SWITCH0;
 152              		.loc 1 193 0 discriminator 4
 153 0062 724B     		ldr	r3, .L21+60
 154 0064 714A     		ldr	r2, .L21+60
 155 0066 1268     		ldr	r2, [r2]
 156 0068 8021     		mov	r1, #128
 157 006a 4902     		lsl	r1, r1, #9
 158 006c 0A43     		orr	r2, r1
 159 006e 1A60     		str	r2, [r3]
 194:.\Generated_Source\PSoC4/ADC.c ****         #endif /* ADC_TOTAL_CHANNELS_NUM > 1u */
 195:.\Generated_Source\PSoC4/ADC.c ****     #endif /*ADC_CHANNELS_MODE !=0 */
 196:.\Generated_Source\PSoC4/ADC.c **** 
 197:.\Generated_Source\PSoC4/ADC.c ****     ADC_SAR_SATURATE_INTR_MASK_REG = 0u;
 160              		.loc 1 197 0 discriminator 4
 161 0070 6F4B     		ldr	r3, .L21+64
 162 0072 0022     		mov	r2, #0
 163 0074 1A60     		str	r2, [r3]
 198:.\Generated_Source\PSoC4/ADC.c ****     ADC_SAR_RANGE_INTR_MASK_REG = 0u;
 164              		.loc 1 198 0 discriminator 4
 165 0076 6F4B     		ldr	r3, .L21+68
 166 0078 0022     		mov	r2, #0
 167 007a 1A60     		str	r2, [r3]
 199:.\Generated_Source\PSoC4/ADC.c ****     ADC_SAR_INTR_MASK_REG = ADC_SAR_INTR_MASK;
 168              		.loc 1 199 0 discriminator 4
 169 007c 6E4B     		ldr	r3, .L21+72
 170 007e 1122     		mov	r2, #17
 171 0080 1A60     		str	r2, [r3]
 200:.\Generated_Source\PSoC4/ADC.c **** 
 201:.\Generated_Source\PSoC4/ADC.c ****     #if(ADC_CY_SAR_IP_VER == ADC_CY_SAR_IP_VER0)
 202:.\Generated_Source\PSoC4/ADC.c ****         ADC_ANA_TRIM_REG = ADC_TRIM_COEF;
 203:.\Generated_Source\PSoC4/ADC.c ****     #endif /* (ADC_CY_SAR_IP_VER == ADC_CY_SAR_IP_VER0) */
 204:.\Generated_Source\PSoC4/ADC.c **** 
 205:.\Generated_Source\PSoC4/ADC.c ****     /* Read and modify default configuration based on characterization */
 206:.\Generated_Source\PSoC4/ADC.c ****     tmpRegVal = ADC_SAR_DFT_CTRL_REG;
 172              		.loc 1 206 0 discriminator 4
 173 0082 6E4B     		ldr	r3, .L21+76
 174 0084 1B68     		ldr	r3, [r3]
 175 0086 7B60     		str	r3, [r7, #4]
 207:.\Generated_Source\PSoC4/ADC.c ****     tmpRegVal &= (uint32)~ADC_DCEN;
 176              		.loc 1 207 0 discriminator 4
 177 0088 7B68     		ldr	r3, [r7, #4]
 178 008a 6D4A     		ldr	r2, .L21+80
 179 008c 1340     		and	r3, r2
 180 008e 7B60     		str	r3, [r7, #4]
 208:.\Generated_Source\PSoC4/ADC.c ****     
 209:.\Generated_Source\PSoC4/ADC.c ****     #if(ADC_CY_SAR_IP_VER == ADC_CY_SAR_IP_VER0)
 210:.\Generated_Source\PSoC4/ADC.c ****         #if(ADC_NOMINAL_CLOCK_FREQ > (ADC_MAX_FREQUENCY / 2))
 211:.\Generated_Source\PSoC4/ADC.c ****             tmpRegVal |= ADC_SEL_CSEL_DFT_CHAR;
 212:.\Generated_Source\PSoC4/ADC.c ****         #else  /* clock speed < 9 Mhz */
 213:.\Generated_Source\PSoC4/ADC.c ****             tmpRegVal |= ADC_DLY_INC;
 214:.\Generated_Source\PSoC4/ADC.c ****         #endif /* clock speed > 9 Mhz */
 215:.\Generated_Source\PSoC4/ADC.c ****     #else
ARM GAS  C:\Users\Henny\AppData\Local\Temp\ccAaGkFp.s 			page 8


 216:.\Generated_Source\PSoC4/ADC.c ****         #if ((ADC_DEFAULT_VREF_SEL == ADC__INTERNAL1024) || \
 217:.\Generated_Source\PSoC4/ADC.c ****              (ADC_DEFAULT_VREF_SEL == ADC__INTERNALVREF))
 218:.\Generated_Source\PSoC4/ADC.c ****             tmpRegVal |= ADC_DLY_INC;
 219:.\Generated_Source\PSoC4/ADC.c ****         #else
 220:.\Generated_Source\PSoC4/ADC.c ****             tmpRegVal |= ADC_DCEN;
 181              		.loc 1 220 0 discriminator 4
 182 0090 7B68     		ldr	r3, [r7, #4]
 183 0092 8022     		mov	r2, #128
 184 0094 9205     		lsl	r2, r2, #22
 185 0096 1343     		orr	r3, r2
 186 0098 7B60     		str	r3, [r7, #4]
 221:.\Generated_Source\PSoC4/ADC.c ****             tmpRegVal &= (uint32)~ADC_DLY_INC;
 187              		.loc 1 221 0 discriminator 4
 188 009a 7B68     		ldr	r3, [r7, #4]
 189 009c 0122     		mov	r2, #1
 190 009e 9343     		bic	r3, r2
 191 00a0 7B60     		str	r3, [r7, #4]
 222:.\Generated_Source\PSoC4/ADC.c ****         #endif /* ((ADC_DEFAULT_VREF_SEL == ADC__INTERNAL1024) || \
 223:.\Generated_Source\PSoC4/ADC.c ****                    (ADC_DEFAULT_VREF_SEL == ADC__INTERNALVREF)) */
 224:.\Generated_Source\PSoC4/ADC.c ****     #endif /* (ADC_CY_SAR_IP_VER == ADC_CY_SAR_IP_VER0) */
 225:.\Generated_Source\PSoC4/ADC.c ****     
 226:.\Generated_Source\PSoC4/ADC.c ****     ADC_SAR_DFT_CTRL_REG = tmpRegVal;
 192              		.loc 1 226 0 discriminator 4
 193 00a2 664B     		ldr	r3, .L21+76
 194 00a4 7A68     		ldr	r2, [r7, #4]
 195 00a6 1A60     		str	r2, [r3]
 227:.\Generated_Source\PSoC4/ADC.c **** 
 228:.\Generated_Source\PSoC4/ADC.c ****     #if(ADC_MAX_RESOLUTION != ADC_RESOLUTION_12)
 229:.\Generated_Source\PSoC4/ADC.c ****         ADC_WOUNDING_REG = ADC_ALT_WOUNDING;
 230:.\Generated_Source\PSoC4/ADC.c ****     #endif /* ADC_MAX_RESOLUTION != ADC_RESOLUTION_12 */
 231:.\Generated_Source\PSoC4/ADC.c **** 
 232:.\Generated_Source\PSoC4/ADC.c ****     for(chNum = 0u; chNum < ADC_TOTAL_CHANNELS_NUM; chNum++)
 196              		.loc 1 232 0 discriminator 4
 197 00a8 0023     		mov	r3, #0
 198 00aa FB60     		str	r3, [r7, #12]
 199 00ac 99E0     		b	.L8
 200              	.L20:
 233:.\Generated_Source\PSoC4/ADC.c ****     {
 234:.\Generated_Source\PSoC4/ADC.c ****         tmpRegVal = (ADC_channelsConfig[chNum] & ADC_CHANNEL_CONFIG_MASK);
 201              		.loc 1 234 0
 202 00ae 654B     		ldr	r3, .L21+84
 203 00b0 FA68     		ldr	r2, [r7, #12]
 204 00b2 9200     		lsl	r2, r2, #2
 205 00b4 D258     		ldr	r2, [r2, r3]
 206 00b6 DC23     		mov	r3, #220
 207 00b8 9B01     		lsl	r3, r3, #6
 208 00ba 1340     		and	r3, r2
 209 00bc 7B60     		str	r3, [r7, #4]
 235:.\Generated_Source\PSoC4/ADC.c ****         #if(ADC_TOTAL_CHANNELS_NUM > 1u)
 236:.\Generated_Source\PSoC4/ADC.c ****             tmpRegVal |= ADC_InputsPlacement[chNum];
 210              		.loc 1 236 0
 211 00be 624A     		ldr	r2, .L21+88
 212 00c0 FB68     		ldr	r3, [r7, #12]
 213 00c2 D318     		add	r3, r2, r3
 214 00c4 1B78     		ldrb	r3, [r3]
 215 00c6 1A1C     		mov	r2, r3
 216 00c8 7B68     		ldr	r3, [r7, #4]
ARM GAS  C:\Users\Henny\AppData\Local\Temp\ccAaGkFp.s 			page 9


 217 00ca 1343     		orr	r3, r2
 218 00cc 7B60     		str	r3, [r7, #4]
 237:.\Generated_Source\PSoC4/ADC.c ****         #endif /* End ADC_TOTAL_CHANNELS_NUM > 1u */
 238:.\Generated_Source\PSoC4/ADC.c ****         
 239:.\Generated_Source\PSoC4/ADC.c ****         
 240:.\Generated_Source\PSoC4/ADC.c ****         /* When the part is limited to 10-bit then the SUB_RESOLUTION bit
 241:.\Generated_Source\PSoC4/ADC.c ****         *  will be ignored and the RESOLUTION bit selects between 10-bit
 242:.\Generated_Source\PSoC4/ADC.c ****         *  (0) and 8-bit (1) resolution.
 243:.\Generated_Source\PSoC4/ADC.c ****         */
 244:.\Generated_Source\PSoC4/ADC.c ****         #if((ADC_MAX_RESOLUTION != ADC_RESOLUTION_12) && \
 245:.\Generated_Source\PSoC4/ADC.c ****             (ADC_ALT_WOUNDING == ADC_WOUNDING_10BIT))
 246:.\Generated_Source\PSoC4/ADC.c ****             tmpRegVal &= (uint32)(~ADC_ALT_RESOLUTION_ON);
 247:.\Generated_Source\PSoC4/ADC.c ****         #endif /* ADC_MAX_RESOLUTION != ADC_RESOLUTION_12 */
 248:.\Generated_Source\PSoC4/ADC.c **** 
 249:.\Generated_Source\PSoC4/ADC.c ****         #if(ADC_INJ_CHANNEL_ENABLED)
 250:.\Generated_Source\PSoC4/ADC.c ****         if(chNum < ADC_SEQUENCED_CHANNELS_NUM)
 219              		.loc 1 250 0
 220 00ce FB68     		ldr	r3, [r7, #12]
 221 00d0 002B     		cmp	r3, #0
 222 00d2 29D1     		bne	.L9
 251:.\Generated_Source\PSoC4/ADC.c ****         #endif /* ADC_INJ_CHANNEL_ENABLED */
 252:.\Generated_Source\PSoC4/ADC.c ****         {
 253:.\Generated_Source\PSoC4/ADC.c ****             CY_SET_REG32((reg32 *)(ADC_SAR_CHAN_CONFIG_IND + (uint32)(chNum << 2)), tmpRegVal);
 223              		.loc 1 253 0
 224 00d4 FB68     		ldr	r3, [r7, #12]
 225 00d6 9B00     		lsl	r3, r3, #2
 226 00d8 5C4A     		ldr	r2, .L21+92
 227 00da 9446     		mov	ip, r2
 228 00dc 6344     		add	r3, r3, ip
 229 00de 7A68     		ldr	r2, [r7, #4]
 230 00e0 1A60     		str	r2, [r3]
 254:.\Generated_Source\PSoC4/ADC.c **** 
 255:.\Generated_Source\PSoC4/ADC.c ****             if((ADC_channelsConfig[chNum] & ADC_IS_SATURATE_EN_MASK) != 0u)
 231              		.loc 1 255 0
 232 00e2 584B     		ldr	r3, .L21+84
 233 00e4 FA68     		ldr	r2, [r7, #12]
 234 00e6 9200     		lsl	r2, r2, #2
 235 00e8 D358     		ldr	r3, [r2, r3]
 236 00ea 0122     		mov	r2, #1
 237 00ec 1340     		and	r3, r2
 238 00ee 09D0     		beq	.L10
 256:.\Generated_Source\PSoC4/ADC.c ****             {
 257:.\Generated_Source\PSoC4/ADC.c ****                 ADC_SAR_SATURATE_INTR_MASK_REG |= (uint16)((uint16)1 << chNum);
 239              		.loc 1 257 0
 240 00f0 4F4B     		ldr	r3, .L21+64
 241 00f2 4F4A     		ldr	r2, .L21+64
 242 00f4 1268     		ldr	r2, [r2]
 243 00f6 F968     		ldr	r1, [r7, #12]
 244 00f8 0120     		mov	r0, #1
 245 00fa 8840     		lsl	r0, r0, r1
 246 00fc 011C     		mov	r1, r0
 247 00fe 89B2     		uxth	r1, r1
 248 0100 0A43     		orr	r2, r1
 249 0102 1A60     		str	r2, [r3]
 250              	.L10:
 258:.\Generated_Source\PSoC4/ADC.c ****             }
 259:.\Generated_Source\PSoC4/ADC.c **** 
ARM GAS  C:\Users\Henny\AppData\Local\Temp\ccAaGkFp.s 			page 10


 260:.\Generated_Source\PSoC4/ADC.c ****             if((ADC_channelsConfig[chNum] & ADC_IS_RANGE_CTRL_EN_MASK) != 0u)
 251              		.loc 1 260 0
 252 0104 4F4B     		ldr	r3, .L21+84
 253 0106 FA68     		ldr	r2, [r7, #12]
 254 0108 9200     		lsl	r2, r2, #2
 255 010a D358     		ldr	r3, [r2, r3]
 256 010c 0222     		mov	r2, #2
 257 010e 1340     		and	r3, r2
 258 0110 2AD0     		beq	.L12
 261:.\Generated_Source\PSoC4/ADC.c ****             {
 262:.\Generated_Source\PSoC4/ADC.c ****                 ADC_SAR_RANGE_INTR_MASK_REG |= (uint16)((uint16)1 << chNum);
 259              		.loc 1 262 0
 260 0112 484B     		ldr	r3, .L21+68
 261 0114 474A     		ldr	r2, .L21+68
 262 0116 1268     		ldr	r2, [r2]
 263 0118 F968     		ldr	r1, [r7, #12]
 264 011a 0120     		mov	r0, #1
 265 011c 8840     		lsl	r0, r0, r1
 266 011e 011C     		mov	r1, r0
 267 0120 89B2     		uxth	r1, r1
 268 0122 0A43     		orr	r2, r1
 269 0124 1A60     		str	r2, [r3]
 270 0126 1FE0     		b	.L12
 271              	.L9:
 263:.\Generated_Source\PSoC4/ADC.c ****             }
 264:.\Generated_Source\PSoC4/ADC.c ****         }
 265:.\Generated_Source\PSoC4/ADC.c ****         #if(ADC_INJ_CHANNEL_ENABLED)
 266:.\Generated_Source\PSoC4/ADC.c ****             else
 267:.\Generated_Source\PSoC4/ADC.c ****             {
 268:.\Generated_Source\PSoC4/ADC.c ****                 CY_SET_REG32(ADC_SAR_INJ_CHAN_CONFIG_PTR, tmpRegVal | ADC_INJ_TAILGATING);
 272              		.loc 1 268 0
 273 0128 494B     		ldr	r3, .L21+96
 274 012a 7A68     		ldr	r2, [r7, #4]
 275 012c 8021     		mov	r1, #128
 276 012e C905     		lsl	r1, r1, #23
 277 0130 0A43     		orr	r2, r1
 278 0132 1A60     		str	r2, [r3]
 269:.\Generated_Source\PSoC4/ADC.c **** 
 270:.\Generated_Source\PSoC4/ADC.c ****                 if((ADC_channelsConfig[chNum] & ADC_IS_SATURATE_EN_MASK) != 0u)
 279              		.loc 1 270 0
 280 0134 434B     		ldr	r3, .L21+84
 281 0136 FA68     		ldr	r2, [r7, #12]
 282 0138 9200     		lsl	r2, r2, #2
 283 013a D358     		ldr	r3, [r2, r3]
 284 013c 0122     		mov	r2, #1
 285 013e 1340     		and	r3, r2
 286 0140 05D0     		beq	.L13
 271:.\Generated_Source\PSoC4/ADC.c ****                 {
 272:.\Generated_Source\PSoC4/ADC.c ****                     ADC_SAR_INTR_MASK_REG |= ADC_INJ_SATURATE_MASK;
 287              		.loc 1 272 0
 288 0142 3D4B     		ldr	r3, .L21+72
 289 0144 3C4A     		ldr	r2, .L21+72
 290 0146 1268     		ldr	r2, [r2]
 291 0148 2021     		mov	r1, #32
 292 014a 0A43     		orr	r2, r1
 293 014c 1A60     		str	r2, [r3]
 294              	.L13:
ARM GAS  C:\Users\Henny\AppData\Local\Temp\ccAaGkFp.s 			page 11


 273:.\Generated_Source\PSoC4/ADC.c ****                 }
 274:.\Generated_Source\PSoC4/ADC.c **** 
 275:.\Generated_Source\PSoC4/ADC.c ****                 if((ADC_channelsConfig[chNum] & ADC_IS_RANGE_CTRL_EN_MASK) != 0u)
 295              		.loc 1 275 0
 296 014e 3D4B     		ldr	r3, .L21+84
 297 0150 FA68     		ldr	r2, [r7, #12]
 298 0152 9200     		lsl	r2, r2, #2
 299 0154 D358     		ldr	r3, [r2, r3]
 300 0156 0222     		mov	r2, #2
 301 0158 1340     		and	r3, r2
 302 015a 05D0     		beq	.L12
 276:.\Generated_Source\PSoC4/ADC.c ****                 {
 277:.\Generated_Source\PSoC4/ADC.c ****                     ADC_SAR_INTR_MASK_REG |= ADC_INJ_RANGE_MASK;
 303              		.loc 1 277 0
 304 015c 364B     		ldr	r3, .L21+72
 305 015e 364A     		ldr	r2, .L21+72
 306 0160 1268     		ldr	r2, [r2]
 307 0162 4021     		mov	r1, #64
 308 0164 0A43     		orr	r2, r1
 309 0166 1A60     		str	r2, [r3]
 310              	.L12:
 278:.\Generated_Source\PSoC4/ADC.c ****                 }
 279:.\Generated_Source\PSoC4/ADC.c ****             }
 280:.\Generated_Source\PSoC4/ADC.c ****         #endif /* ADC_INJ_CHANNEL_ENABLED */
 281:.\Generated_Source\PSoC4/ADC.c **** 
 282:.\Generated_Source\PSoC4/ADC.c ****         if((ADC_channelsConfig[chNum] & ADC_ALT_RESOLUTION_ON) != 0u)
 311              		.loc 1 282 0
 312 0168 364B     		ldr	r3, .L21+84
 313 016a FA68     		ldr	r2, [r7, #12]
 314 016c 9200     		lsl	r2, r2, #2
 315 016e D258     		ldr	r2, [r2, r3]
 316 0170 8023     		mov	r3, #128
 317 0172 9B00     		lsl	r3, r3, #2
 318 0174 1340     		and	r3, r2
 319 0176 03D0     		beq	.L14
 283:.\Generated_Source\PSoC4/ADC.c ****         {
 284:.\Generated_Source\PSoC4/ADC.c ****                counts = (int32)ADC_DEFAULT_MAX_WRK_ALT;
 320              		.loc 1 284 0
 321 0178 8023     		mov	r3, #128
 322 017a 5B00     		lsl	r3, r3, #1
 323 017c BB60     		str	r3, [r7, #8]
 324 017e 02E0     		b	.L15
 325              	.L14:
 285:.\Generated_Source\PSoC4/ADC.c ****         }
 286:.\Generated_Source\PSoC4/ADC.c ****         else
 287:.\Generated_Source\PSoC4/ADC.c ****         {
 288:.\Generated_Source\PSoC4/ADC.c ****                counts = (int32)ADC_SAR_WRK_MAX_12BIT;
 326              		.loc 1 288 0
 327 0180 8023     		mov	r3, #128
 328 0182 5B01     		lsl	r3, r3, #5
 329 0184 BB60     		str	r3, [r7, #8]
 330              	.L15:
 289:.\Generated_Source\PSoC4/ADC.c ****         }
 290:.\Generated_Source\PSoC4/ADC.c **** 
 291:.\Generated_Source\PSoC4/ADC.c ****         if((ADC_channelsConfig[chNum] & ADC_DIFFERENTIAL_EN) == 0u)
 331              		.loc 1 291 0
 332 0186 2F4B     		ldr	r3, .L21+84
ARM GAS  C:\Users\Henny\AppData\Local\Temp\ccAaGkFp.s 			page 12


 333 0188 FA68     		ldr	r2, [r7, #12]
 334 018a 9200     		lsl	r2, r2, #2
 335 018c D258     		ldr	r2, [r2, r3]
 336 018e 8023     		mov	r3, #128
 337 0190 5B00     		lsl	r3, r3, #1
 338 0192 1340     		and	r3, r2
 339 0194 05D1     		bne	.L16
 292:.\Generated_Source\PSoC4/ADC.c ****         {
 293:.\Generated_Source\PSoC4/ADC.c ****             #if((ADC_DEFAULT_SE_RESULT_FORMAT_SEL == ADC__FSIGNED) && \
 294:.\Generated_Source\PSoC4/ADC.c ****                 (ADC_DEFAULT_NEG_INPUT_SEL == ADC__VREF))
 295:.\Generated_Source\PSoC4/ADC.c ****                 /* Set offset to the minus half scale to convert results to unsigned format */
 296:.\Generated_Source\PSoC4/ADC.c ****                 ADC_offset[chNum] = (int16)(counts / -2);
 297:.\Generated_Source\PSoC4/ADC.c ****             #else
 298:.\Generated_Source\PSoC4/ADC.c ****                 ADC_offset[chNum] = 0;
 340              		.loc 1 298 0
 341 0196 2F4B     		ldr	r3, .L21+100
 342 0198 FA68     		ldr	r2, [r7, #12]
 343 019a 5200     		lsl	r2, r2, #1
 344 019c 0021     		mov	r1, #0
 345 019e D152     		strh	r1, [r2, r3]
 346 01a0 09E0     		b	.L17
 347              	.L16:
 299:.\Generated_Source\PSoC4/ADC.c ****             #endif /* end DEFAULT_SE_RESULT_FORMAT_SEL == ADC__FSIGNED */
 300:.\Generated_Source\PSoC4/ADC.c ****         }
 301:.\Generated_Source\PSoC4/ADC.c ****         else    /* Differential channel */
 302:.\Generated_Source\PSoC4/ADC.c ****         {
 303:.\Generated_Source\PSoC4/ADC.c ****             #if(ADC_DEFAULT_DIFF_RESULT_FORMAT_SEL == ADC__FUNSIGNED)
 304:.\Generated_Source\PSoC4/ADC.c ****                 /* Set offset to the half scale to convert results to signed format */
 305:.\Generated_Source\PSoC4/ADC.c ****                 ADC_offset[chNum] = (int16)(counts / 2);
 348              		.loc 1 305 0
 349 01a2 BB68     		ldr	r3, [r7, #8]
 350 01a4 002B     		cmp	r3, #0
 351 01a6 00DA     		bge	.L18
 352 01a8 0133     		add	r3, r3, #1
 353              	.L18:
 354 01aa 5B10     		asr	r3, r3, #1
 355 01ac 99B2     		uxth	r1, r3
 356 01ae 294B     		ldr	r3, .L21+100
 357 01b0 FA68     		ldr	r2, [r7, #12]
 358 01b2 5200     		lsl	r2, r2, #1
 359 01b4 D152     		strh	r1, [r2, r3]
 360              	.L17:
 306:.\Generated_Source\PSoC4/ADC.c ****             #else
 307:.\Generated_Source\PSoC4/ADC.c ****                 ADC_offset[chNum] = 0;
 308:.\Generated_Source\PSoC4/ADC.c ****             #endif /* end ADC_DEFAULT_DIFF_RESULT_FORMAT_SEL == ADC__FUNSIGNED */
 309:.\Generated_Source\PSoC4/ADC.c ****         }
 310:.\Generated_Source\PSoC4/ADC.c ****         /* Calculate gain in counts per 10 volts with rounding */
 311:.\Generated_Source\PSoC4/ADC.c ****         ADC_countsPer10Volt[chNum] = (int16)(((counts * ADC_10MV_COUNTS) +
 361              		.loc 1 311 0 discriminator 2
 362 01b6 BB68     		ldr	r3, [r7, #8]
 363 01b8 274A     		ldr	r2, .L21+104
 364 01ba 5343     		mul	r3, r2
 365 01bc 8022     		mov	r2, #128
 366 01be D200     		lsl	r2, r2, #3
 367 01c0 9446     		mov	ip, r2
 368 01c2 6344     		add	r3, r3, ip
 312:.\Generated_Source\PSoC4/ADC.c ****                             ADC_DEFAULT_VREF_MV_VALUE) / (ADC_DEFAULT_VREF_MV_VALUE * 2));
ARM GAS  C:\Users\Henny\AppData\Local\Temp\ccAaGkFp.s 			page 13


 369              		.loc 1 312 0 discriminator 2
 370 01c4 002B     		cmp	r3, #0
 371 01c6 02DA     		bge	.L19
 372 01c8 244A     		ldr	r2, .L21+108
 373 01ca 9446     		mov	ip, r2
 374 01cc 6344     		add	r3, r3, ip
 375              	.L19:
 376 01ce DB12     		asr	r3, r3, #11
 311:.\Generated_Source\PSoC4/ADC.c ****                             ADC_DEFAULT_VREF_MV_VALUE) / (ADC_DEFAULT_VREF_MV_VALUE * 2));
 377              		.loc 1 311 0 discriminator 2
 378 01d0 9BB2     		uxth	r3, r3
 379 01d2 19B2     		sxth	r1, r3
 380 01d4 224B     		ldr	r3, .L21+112
 381 01d6 FA68     		ldr	r2, [r7, #12]
 382 01d8 9200     		lsl	r2, r2, #2
 383 01da D150     		str	r1, [r2, r3]
 232:.\Generated_Source\PSoC4/ADC.c ****     {
 384              		.loc 1 232 0 discriminator 2
 385 01dc FB68     		ldr	r3, [r7, #12]
 386 01de 0133     		add	r3, r3, #1
 387 01e0 FB60     		str	r3, [r7, #12]
 388              	.L8:
 232:.\Generated_Source\PSoC4/ADC.c ****     {
 389              		.loc 1 232 0 is_stmt 0 discriminator 1
 390 01e2 FB68     		ldr	r3, [r7, #12]
 391 01e4 012B     		cmp	r3, #1
 392 01e6 00D8     		bhi	.LCB323
 393 01e8 61E7     		b	.L20	@long jump
 394              	.LCB323:
 313:.\Generated_Source\PSoC4/ADC.c ****     }
 314:.\Generated_Source\PSoC4/ADC.c **** }
 395              		.loc 1 314 0 is_stmt 1
 396 01ea BD46     		mov	sp, r7
 397 01ec 04B0     		add	sp, sp, #16
 398              		@ sp needed
 399 01ee 80BD     		pop	{r7, pc}
 400              	.L22:
 401              		.align	2
 402              	.L21:
 403 01f0 00000000 		.word	ADC_ISR
 404 01f4 20003A40 		.word	1077542944
 405 01f8 80033A40 		.word	1077543808
 406 01fc C0201013 		.word	319824064
 407 0200 C0200013 		.word	318775488
 408 0204 00003A40 		.word	1077542912
 409 0208 04003A40 		.word	1077542916
 410 020c C4000A80 		.word	-2146828092
 411 0210 18003A40 		.word	1077542936
 412 0214 0000FF07 		.word	134152192
 413 0218 1C003A40 		.word	1077542940
 414 021c 10003A40 		.word	1077542928
 415 0220 02000200 		.word	131074
 416 0224 14003A40 		.word	1077542932
 417 0228 00033A40 		.word	1077543680
 418 022c 40033A40 		.word	1077543744
 419 0230 28023A40 		.word	1077543464
 420 0234 38023A40 		.word	1077543480
ARM GAS  C:\Users\Henny\AppData\Local\Temp\ccAaGkFp.s 			page 14


 421 0238 18023A40 		.word	1077543448
 422 023c 30003A40 		.word	1077542960
 423 0240 FFFFFFDF 		.word	-536870913
 424 0244 00000000 		.word	ADC_channelsConfig
 425 0248 08000000 		.word	ADC_InputsPlacement.4770
 426 024c 80003A40 		.word	1077543040
 427 0250 80023A40 		.word	1077543552
 428 0254 00000000 		.word	ADC_offset
 429 0258 10270000 		.word	10000
 430 025c FF070000 		.word	2047
 431 0260 00000000 		.word	ADC_countsPer10Volt
 432              		.cfi_endproc
 433              	.LFE3:
 434              		.size	ADC_Init, .-ADC_Init
 435              		.section	.text.ADC_Enable,"ax",%progbits
 436              		.align	2
 437              		.global	ADC_Enable
 438              		.code	16
 439              		.thumb_func
 440              		.type	ADC_Enable, %function
 441              	ADC_Enable:
 442              	.LFB4:
 315:.\Generated_Source\PSoC4/ADC.c **** 
 316:.\Generated_Source\PSoC4/ADC.c **** /*******************************************************************************
 317:.\Generated_Source\PSoC4/ADC.c **** * Function Name: ADC_SAR_1_Enable
 318:.\Generated_Source\PSoC4/ADC.c **** ********************************************************************************
 319:.\Generated_Source\PSoC4/ADC.c **** *
 320:.\Generated_Source\PSoC4/ADC.c **** * Summary:
 321:.\Generated_Source\PSoC4/ADC.c **** *  Enables the clock and analog power for SAR ADC.
 322:.\Generated_Source\PSoC4/ADC.c **** *
 323:.\Generated_Source\PSoC4/ADC.c **** * Parameters:
 324:.\Generated_Source\PSoC4/ADC.c **** *  None.
 325:.\Generated_Source\PSoC4/ADC.c **** *
 326:.\Generated_Source\PSoC4/ADC.c **** * Return:
 327:.\Generated_Source\PSoC4/ADC.c **** *  None.
 328:.\Generated_Source\PSoC4/ADC.c **** *
 329:.\Generated_Source\PSoC4/ADC.c **** *******************************************************************************/
 330:.\Generated_Source\PSoC4/ADC.c **** void ADC_Enable(void)
 331:.\Generated_Source\PSoC4/ADC.c **** {
 443              		.loc 1 331 0
 444              		.cfi_startproc
 445 0000 80B5     		push	{r7, lr}
 446              		.cfi_def_cfa_offset 8
 447              		.cfi_offset 7, -8
 448              		.cfi_offset 14, -4
 449 0002 00AF     		add	r7, sp, #0
 450              		.cfi_def_cfa_register 7
 332:.\Generated_Source\PSoC4/ADC.c ****     if (0u == (ADC_SAR_CTRL_REG & ADC_ENABLE))
 451              		.loc 1 332 0
 452 0004 0A4B     		ldr	r3, .L26
 453 0006 1B68     		ldr	r3, [r3]
 454 0008 002B     		cmp	r3, #0
 455 000a 0EDB     		blt	.L23
 333:.\Generated_Source\PSoC4/ADC.c ****     {
 334:.\Generated_Source\PSoC4/ADC.c ****         #if(ADC_CY_SAR_IP_VER != ADC_CY_SAR_IP_VER0)
 335:.\Generated_Source\PSoC4/ADC.c **** 
 336:.\Generated_Source\PSoC4/ADC.c ****             while (0u != (ADC_SAR_STATUS_REG & ADC_STATUS_BUSY))
ARM GAS  C:\Users\Henny\AppData\Local\Temp\ccAaGkFp.s 			page 15


 456              		.loc 1 336 0
 457 000c C046     		mov	r8, r8
 458              	.L25:
 459              		.loc 1 336 0 is_stmt 0 discriminator 1
 460 000e 094B     		ldr	r3, .L26+4
 461 0010 1B68     		ldr	r3, [r3]
 462 0012 002B     		cmp	r3, #0
 463 0014 FBDB     		blt	.L25
 337:.\Generated_Source\PSoC4/ADC.c ****             {
 338:.\Generated_Source\PSoC4/ADC.c ****                 /* wait for SAR to go idle to avoid deadlock */
 339:.\Generated_Source\PSoC4/ADC.c ****             }
 340:.\Generated_Source\PSoC4/ADC.c ****         #endif /* (ADC_CY_SAR_IP_VER != ADC_CY_SAR_IP_VER0) */
 341:.\Generated_Source\PSoC4/ADC.c ****         
 342:.\Generated_Source\PSoC4/ADC.c ****         ADC_SAR_CTRL_REG |= ADC_ENABLE;
 464              		.loc 1 342 0 is_stmt 1
 465 0016 064B     		ldr	r3, .L26
 466 0018 054A     		ldr	r2, .L26
 467 001a 1268     		ldr	r2, [r2]
 468 001c 8021     		mov	r1, #128
 469 001e 0906     		lsl	r1, r1, #24
 470 0020 0A43     		orr	r2, r1
 471 0022 1A60     		str	r2, [r3]
 343:.\Generated_Source\PSoC4/ADC.c ****         
 344:.\Generated_Source\PSoC4/ADC.c ****         /* The block is ready to use 10 us after the enable signal is set high. */
 345:.\Generated_Source\PSoC4/ADC.c ****         CyDelayUs(ADC_10US_DELAY);         
 472              		.loc 1 345 0
 473 0024 0A20     		mov	r0, #10
 474 0026 FFF7FEFF 		bl	CyDelayUs
 475              	.L23:
 346:.\Generated_Source\PSoC4/ADC.c ****     }
 347:.\Generated_Source\PSoC4/ADC.c **** }
 476              		.loc 1 347 0
 477 002a BD46     		mov	sp, r7
 478              		@ sp needed
 479 002c 80BD     		pop	{r7, pc}
 480              	.L27:
 481 002e C046     		.align	2
 482              	.L26:
 483 0030 00003A40 		.word	1077542912
 484 0034 08023A40 		.word	1077543432
 485              		.cfi_endproc
 486              	.LFE4:
 487              		.size	ADC_Enable, .-ADC_Enable
 488              		.section	.text.ADC_Stop,"ax",%progbits
 489              		.align	2
 490              		.global	ADC_Stop
 491              		.code	16
 492              		.thumb_func
 493              		.type	ADC_Stop, %function
 494              	ADC_Stop:
 495              	.LFB5:
 348:.\Generated_Source\PSoC4/ADC.c **** 
 349:.\Generated_Source\PSoC4/ADC.c **** 
 350:.\Generated_Source\PSoC4/ADC.c **** /*******************************************************************************
 351:.\Generated_Source\PSoC4/ADC.c **** * Function Name: ADC_Stop
 352:.\Generated_Source\PSoC4/ADC.c **** ********************************************************************************
 353:.\Generated_Source\PSoC4/ADC.c **** *
ARM GAS  C:\Users\Henny\AppData\Local\Temp\ccAaGkFp.s 			page 16


 354:.\Generated_Source\PSoC4/ADC.c **** * Summary:
 355:.\Generated_Source\PSoC4/ADC.c **** *  This function stops ADC conversions and puts the ADC into its lowest power
 356:.\Generated_Source\PSoC4/ADC.c **** *  mode.
 357:.\Generated_Source\PSoC4/ADC.c **** *
 358:.\Generated_Source\PSoC4/ADC.c **** * Parameters:
 359:.\Generated_Source\PSoC4/ADC.c **** *  None.
 360:.\Generated_Source\PSoC4/ADC.c **** *
 361:.\Generated_Source\PSoC4/ADC.c **** * Return:
 362:.\Generated_Source\PSoC4/ADC.c **** *  None.
 363:.\Generated_Source\PSoC4/ADC.c **** *
 364:.\Generated_Source\PSoC4/ADC.c **** *******************************************************************************/
 365:.\Generated_Source\PSoC4/ADC.c **** void ADC_Stop(void)
 366:.\Generated_Source\PSoC4/ADC.c **** {
 496              		.loc 1 366 0
 497              		.cfi_startproc
 498 0000 80B5     		push	{r7, lr}
 499              		.cfi_def_cfa_offset 8
 500              		.cfi_offset 7, -8
 501              		.cfi_offset 14, -4
 502 0002 00AF     		add	r7, sp, #0
 503              		.cfi_def_cfa_register 7
 367:.\Generated_Source\PSoC4/ADC.c ****     ADC_SAR_CTRL_REG &= (uint32)~ADC_ENABLE;
 504              		.loc 1 367 0
 505 0004 034B     		ldr	r3, .L29
 506 0006 034A     		ldr	r2, .L29
 507 0008 1268     		ldr	r2, [r2]
 508 000a 5200     		lsl	r2, r2, #1
 509 000c 5208     		lsr	r2, r2, #1
 510 000e 1A60     		str	r2, [r3]
 368:.\Generated_Source\PSoC4/ADC.c **** }
 511              		.loc 1 368 0
 512 0010 BD46     		mov	sp, r7
 513              		@ sp needed
 514 0012 80BD     		pop	{r7, pc}
 515              	.L30:
 516              		.align	2
 517              	.L29:
 518 0014 00003A40 		.word	1077542912
 519              		.cfi_endproc
 520              	.LFE5:
 521              		.size	ADC_Stop, .-ADC_Stop
 522              		.section	.text.ADC_StartConvert,"ax",%progbits
 523              		.align	2
 524              		.global	ADC_StartConvert
 525              		.code	16
 526              		.thumb_func
 527              		.type	ADC_StartConvert, %function
 528              	ADC_StartConvert:
 529              	.LFB6:
 369:.\Generated_Source\PSoC4/ADC.c **** 
 370:.\Generated_Source\PSoC4/ADC.c **** 
 371:.\Generated_Source\PSoC4/ADC.c **** /*******************************************************************************
 372:.\Generated_Source\PSoC4/ADC.c **** * Function Name: ADC_StartConvert
 373:.\Generated_Source\PSoC4/ADC.c **** ********************************************************************************
 374:.\Generated_Source\PSoC4/ADC.c **** *
 375:.\Generated_Source\PSoC4/ADC.c **** * Summary:
 376:.\Generated_Source\PSoC4/ADC.c **** *  Description:
ARM GAS  C:\Users\Henny\AppData\Local\Temp\ccAaGkFp.s 			page 17


 377:.\Generated_Source\PSoC4/ADC.c **** *  For free running mode, this API starts the conversion process and it
 378:.\Generated_Source\PSoC4/ADC.c **** *  runs continuously.
 379:.\Generated_Source\PSoC4/ADC.c **** *
 380:.\Generated_Source\PSoC4/ADC.c **** *  In a triggered mode, this routine triggers every conversion by
 381:.\Generated_Source\PSoC4/ADC.c **** *  writing into the FW_TRIGGER bit in SAR_START_CTRL reg. In triggered mode,
 382:.\Generated_Source\PSoC4/ADC.c **** *  every conversion has to start by this API.
 383:.\Generated_Source\PSoC4/ADC.c **** *
 384:.\Generated_Source\PSoC4/ADC.c **** * Parameters:
 385:.\Generated_Source\PSoC4/ADC.c **** *  None.
 386:.\Generated_Source\PSoC4/ADC.c **** *
 387:.\Generated_Source\PSoC4/ADC.c **** * Return:
 388:.\Generated_Source\PSoC4/ADC.c **** *  None.
 389:.\Generated_Source\PSoC4/ADC.c **** *
 390:.\Generated_Source\PSoC4/ADC.c **** *******************************************************************************/
 391:.\Generated_Source\PSoC4/ADC.c **** void ADC_StartConvert(void)
 392:.\Generated_Source\PSoC4/ADC.c **** {
 530              		.loc 1 392 0
 531              		.cfi_startproc
 532 0000 80B5     		push	{r7, lr}
 533              		.cfi_def_cfa_offset 8
 534              		.cfi_offset 7, -8
 535              		.cfi_offset 14, -4
 536 0002 00AF     		add	r7, sp, #0
 537              		.cfi_def_cfa_register 7
 393:.\Generated_Source\PSoC4/ADC.c ****     #if(ADC_DEFAULT_SAMPLE_MODE_SEL == ADC__FREERUNNING)
 394:.\Generated_Source\PSoC4/ADC.c ****         ADC_SAR_SAMPLE_CTRL_REG |= ADC_CONTINUOUS_EN;
 395:.\Generated_Source\PSoC4/ADC.c ****     #else /* Firmware trigger */
 396:.\Generated_Source\PSoC4/ADC.c ****         ADC_SAR_START_CTRL_REG = ADC_FW_TRIGGER;
 538              		.loc 1 396 0
 539 0004 024B     		ldr	r3, .L32
 540 0006 0122     		mov	r2, #1
 541 0008 1A60     		str	r2, [r3]
 397:.\Generated_Source\PSoC4/ADC.c ****     #endif /* End ADC_DEFAULT_SAMPLE_MODE == ADC__FREERUNNING */
 398:.\Generated_Source\PSoC4/ADC.c **** 
 399:.\Generated_Source\PSoC4/ADC.c **** }
 542              		.loc 1 399 0
 543 000a BD46     		mov	sp, r7
 544              		@ sp needed
 545 000c 80BD     		pop	{r7, pc}
 546              	.L33:
 547 000e C046     		.align	2
 548              	.L32:
 549 0010 24003A40 		.word	1077542948
 550              		.cfi_endproc
 551              	.LFE6:
 552              		.size	ADC_StartConvert, .-ADC_StartConvert
 553              		.section	.text.ADC_StopConvert,"ax",%progbits
 554              		.align	2
 555              		.global	ADC_StopConvert
 556              		.code	16
 557              		.thumb_func
 558              		.type	ADC_StopConvert, %function
 559              	ADC_StopConvert:
 560              	.LFB7:
 400:.\Generated_Source\PSoC4/ADC.c **** 
 401:.\Generated_Source\PSoC4/ADC.c **** 
 402:.\Generated_Source\PSoC4/ADC.c **** /*******************************************************************************
ARM GAS  C:\Users\Henny\AppData\Local\Temp\ccAaGkFp.s 			page 18


 403:.\Generated_Source\PSoC4/ADC.c **** * Function Name: ADC_StopConvert
 404:.\Generated_Source\PSoC4/ADC.c **** ********************************************************************************
 405:.\Generated_Source\PSoC4/ADC.c **** *
 406:.\Generated_Source\PSoC4/ADC.c **** * Summary:
 407:.\Generated_Source\PSoC4/ADC.c **** *  Forces the ADC to stop all conversions.
 408:.\Generated_Source\PSoC4/ADC.c **** *
 409:.\Generated_Source\PSoC4/ADC.c **** * Parameters:
 410:.\Generated_Source\PSoC4/ADC.c **** *  None.
 411:.\Generated_Source\PSoC4/ADC.c **** *
 412:.\Generated_Source\PSoC4/ADC.c **** * Return:
 413:.\Generated_Source\PSoC4/ADC.c **** *  None.
 414:.\Generated_Source\PSoC4/ADC.c **** *
 415:.\Generated_Source\PSoC4/ADC.c **** *******************************************************************************/
 416:.\Generated_Source\PSoC4/ADC.c **** void ADC_StopConvert(void)
 417:.\Generated_Source\PSoC4/ADC.c **** {
 561              		.loc 1 417 0
 562              		.cfi_startproc
 563 0000 80B5     		push	{r7, lr}
 564              		.cfi_def_cfa_offset 8
 565              		.cfi_offset 7, -8
 566              		.cfi_offset 14, -4
 567 0002 00AF     		add	r7, sp, #0
 568              		.cfi_def_cfa_register 7
 418:.\Generated_Source\PSoC4/ADC.c ****     #if(ADC_DEFAULT_SAMPLE_MODE_SEL == ADC__FREERUNNING)
 419:.\Generated_Source\PSoC4/ADC.c ****         ADC_SAR_SAMPLE_CTRL_REG &= (uint32)(~ADC_CONTINUOUS_EN);
 420:.\Generated_Source\PSoC4/ADC.c ****     #endif /* ADC_DEFAULT_SAMPLE_MODE == ADC__FREERUNNING */
 421:.\Generated_Source\PSoC4/ADC.c **** }
 569              		.loc 1 421 0
 570 0004 BD46     		mov	sp, r7
 571              		@ sp needed
 572 0006 80BD     		pop	{r7, pc}
 573              		.cfi_endproc
 574              	.LFE7:
 575              		.size	ADC_StopConvert, .-ADC_StopConvert
 576              		.section	.text.ADC_IsEndConversion,"ax",%progbits
 577              		.align	2
 578              		.global	ADC_IsEndConversion
 579              		.code	16
 580              		.thumb_func
 581              		.type	ADC_IsEndConversion, %function
 582              	ADC_IsEndConversion:
 583              	.LFB8:
 422:.\Generated_Source\PSoC4/ADC.c **** 
 423:.\Generated_Source\PSoC4/ADC.c **** 
 424:.\Generated_Source\PSoC4/ADC.c **** /*******************************************************************************
 425:.\Generated_Source\PSoC4/ADC.c **** * Function Name: ADC_IsEndConversion
 426:.\Generated_Source\PSoC4/ADC.c **** ********************************************************************************
 427:.\Generated_Source\PSoC4/ADC.c **** *
 428:.\Generated_Source\PSoC4/ADC.c **** * Summary:
 429:.\Generated_Source\PSoC4/ADC.c **** *  Description: Checks for ADC end of conversion for the case one
 430:.\Generated_Source\PSoC4/ADC.c **** *  channel and end of scan for the case of multiple channels. It acts
 431:.\Generated_Source\PSoC4/ADC.c **** *  as a software version of the EOC. This function provides the
 432:.\Generated_Source\PSoC4/ADC.c **** *  programmer with two options. In one mode this function
 433:.\Generated_Source\PSoC4/ADC.c **** *  immediately returns with the conversion status. In the other mode,
 434:.\Generated_Source\PSoC4/ADC.c **** *  the function does not return (blocking) until the conversion has
 435:.\Generated_Source\PSoC4/ADC.c **** *  completed.
 436:.\Generated_Source\PSoC4/ADC.c **** *
ARM GAS  C:\Users\Henny\AppData\Local\Temp\ccAaGkFp.s 			page 19


 437:.\Generated_Source\PSoC4/ADC.c **** * Parameters:
 438:.\Generated_Source\PSoC4/ADC.c **** *  ADC_RETURN_STATUS        -> Immediately returns conversion result status
 439:.\Generated_Source\PSoC4/ADC.c **** *  ADC_WAIT_FOR_RESULT      -> Does not return until ADC complete
 440:.\Generated_Source\PSoC4/ADC.c **** *  ADC_RETURN_STATUS_INJ    -> Immediately returns conversion result status
 441:.\Generated_Source\PSoC4/ADC.c **** *                              for injection channel
 442:.\Generated_Source\PSoC4/ADC.c **** *  ADC_WAIT_FOR_RESULT_INJ  -> Does not return until ADC completes injection
 443:.\Generated_Source\PSoC4/ADC.c **** *                              channel conversion
 444:.\Generated_Source\PSoC4/ADC.c **** *
 445:.\Generated_Source\PSoC4/ADC.c **** * Return:
 446:.\Generated_Source\PSoC4/ADC.c **** *  If a non-zero value is returned, the last conversion or scan has completed.
 447:.\Generated_Source\PSoC4/ADC.c **** *  If the returned value is zero, the ADC is still in the process of a scan.
 448:.\Generated_Source\PSoC4/ADC.c **** *
 449:.\Generated_Source\PSoC4/ADC.c **** *******************************************************************************/
 450:.\Generated_Source\PSoC4/ADC.c **** uint32 ADC_IsEndConversion(uint32 retMode)
 451:.\Generated_Source\PSoC4/ADC.c **** {
 584              		.loc 1 451 0
 585              		.cfi_startproc
 586 0000 80B5     		push	{r7, lr}
 587              		.cfi_def_cfa_offset 8
 588              		.cfi_offset 7, -8
 589              		.cfi_offset 14, -4
 590 0002 84B0     		sub	sp, sp, #16
 591              		.cfi_def_cfa_offset 24
 592 0004 00AF     		add	r7, sp, #0
 593              		.cfi_def_cfa_register 7
 594 0006 7860     		str	r0, [r7, #4]
 452:.\Generated_Source\PSoC4/ADC.c ****     uint32 status = 0u;
 595              		.loc 1 452 0
 596 0008 0023     		mov	r3, #0
 597 000a FB60     		str	r3, [r7, #12]
 453:.\Generated_Source\PSoC4/ADC.c **** 
 454:.\Generated_Source\PSoC4/ADC.c ****     if((retMode & (ADC_RETURN_STATUS | ADC_WAIT_FOR_RESULT)) != 0u)
 598              		.loc 1 454 0
 599 000c 7B68     		ldr	r3, [r7, #4]
 600 000e 0322     		mov	r2, #3
 601 0010 1340     		and	r3, r2
 602 0012 11D0     		beq	.L36
 603              	.L38:
 455:.\Generated_Source\PSoC4/ADC.c ****     {
 456:.\Generated_Source\PSoC4/ADC.c ****         do
 457:.\Generated_Source\PSoC4/ADC.c ****         {
 458:.\Generated_Source\PSoC4/ADC.c ****             status = ADC_SAR_INTR_REG & ADC_EOS_MASK;
 604              		.loc 1 458 0 discriminator 2
 605 0014 184B     		ldr	r3, .L43
 606 0016 1B68     		ldr	r3, [r3]
 607 0018 0122     		mov	r2, #1
 608 001a 1340     		and	r3, r2
 609 001c FB60     		str	r3, [r7, #12]
 459:.\Generated_Source\PSoC4/ADC.c ****         }while((status == 0u) && ((retMode & ADC_WAIT_FOR_RESULT) != 0u));
 610              		.loc 1 459 0 discriminator 2
 611 001e FB68     		ldr	r3, [r7, #12]
 612 0020 002B     		cmp	r3, #0
 613 0022 03D1     		bne	.L37
 614              		.loc 1 459 0 is_stmt 0 discriminator 1
 615 0024 7B68     		ldr	r3, [r7, #4]
 616 0026 0222     		mov	r2, #2
 617 0028 1340     		and	r3, r2
ARM GAS  C:\Users\Henny\AppData\Local\Temp\ccAaGkFp.s 			page 20


 618 002a F3D1     		bne	.L38
 619              	.L37:
 460:.\Generated_Source\PSoC4/ADC.c **** 
 461:.\Generated_Source\PSoC4/ADC.c ****         if(status != 0u)
 620              		.loc 1 461 0 is_stmt 1
 621 002c FB68     		ldr	r3, [r7, #12]
 622 002e 002B     		cmp	r3, #0
 623 0030 02D0     		beq	.L36
 462:.\Generated_Source\PSoC4/ADC.c ****         {
 463:.\Generated_Source\PSoC4/ADC.c ****             /* Clear EOS bit */
 464:.\Generated_Source\PSoC4/ADC.c ****             ADC_SAR_INTR_REG = ADC_EOS_MASK;
 624              		.loc 1 464 0
 625 0032 114B     		ldr	r3, .L43
 626 0034 0122     		mov	r2, #1
 627 0036 1A60     		str	r2, [r3]
 628              	.L36:
 465:.\Generated_Source\PSoC4/ADC.c ****         }
 466:.\Generated_Source\PSoC4/ADC.c ****     }
 467:.\Generated_Source\PSoC4/ADC.c **** 
 468:.\Generated_Source\PSoC4/ADC.c ****     #if(ADC_INJ_CHANNEL_ENABLED)
 469:.\Generated_Source\PSoC4/ADC.c ****         if((retMode & (ADC_RETURN_STATUS_INJ | ADC_WAIT_FOR_RESULT_INJ)) != 0u)
 629              		.loc 1 469 0
 630 0038 7B68     		ldr	r3, [r7, #4]
 631 003a 0C22     		mov	r2, #12
 632 003c 1340     		and	r3, r2
 633 003e 15D0     		beq	.L39
 634              	.L41:
 470:.\Generated_Source\PSoC4/ADC.c ****         {
 471:.\Generated_Source\PSoC4/ADC.c ****             do
 472:.\Generated_Source\PSoC4/ADC.c ****             {
 473:.\Generated_Source\PSoC4/ADC.c ****                 status |= ADC_SAR_INTR_REG & ADC_INJ_EOC_MASK;
 635              		.loc 1 473 0
 636 0040 0D4B     		ldr	r3, .L43
 637 0042 1B68     		ldr	r3, [r3]
 638 0044 1022     		mov	r2, #16
 639 0046 1340     		and	r3, r2
 640 0048 FA68     		ldr	r2, [r7, #12]
 641 004a 1343     		orr	r3, r2
 642 004c FB60     		str	r3, [r7, #12]
 474:.\Generated_Source\PSoC4/ADC.c ****             }while(((status & ADC_INJ_EOC_MASK) == 0u) &&
 643              		.loc 1 474 0
 644 004e FB68     		ldr	r3, [r7, #12]
 645 0050 1022     		mov	r2, #16
 646 0052 1340     		and	r3, r2
 475:.\Generated_Source\PSoC4/ADC.c ****                    ((retMode & ADC_WAIT_FOR_RESULT_INJ) != 0u));
 647              		.loc 1 475 0
 648 0054 03D1     		bne	.L40
 649              		.loc 1 475 0 is_stmt 0 discriminator 1
 650 0056 7B68     		ldr	r3, [r7, #4]
 651 0058 0822     		mov	r2, #8
 652 005a 1340     		and	r3, r2
 474:.\Generated_Source\PSoC4/ADC.c ****             }while(((status & ADC_INJ_EOC_MASK) == 0u) &&
 653              		.loc 1 474 0 is_stmt 1 discriminator 1
 654 005c F0D1     		bne	.L41
 655              	.L40:
 476:.\Generated_Source\PSoC4/ADC.c **** 
 477:.\Generated_Source\PSoC4/ADC.c ****             if((status & ADC_INJ_EOC_MASK) != 0u)
ARM GAS  C:\Users\Henny\AppData\Local\Temp\ccAaGkFp.s 			page 21


 656              		.loc 1 477 0
 657 005e FB68     		ldr	r3, [r7, #12]
 658 0060 1022     		mov	r2, #16
 659 0062 1340     		and	r3, r2
 660 0064 02D0     		beq	.L39
 478:.\Generated_Source\PSoC4/ADC.c ****             {
 479:.\Generated_Source\PSoC4/ADC.c ****                 /* Clear Injection EOS bit */
 480:.\Generated_Source\PSoC4/ADC.c ****                 ADC_SAR_INTR_REG = ADC_INJ_EOC_MASK;
 661              		.loc 1 480 0
 662 0066 044B     		ldr	r3, .L43
 663 0068 1022     		mov	r2, #16
 664 006a 1A60     		str	r2, [r3]
 665              	.L39:
 481:.\Generated_Source\PSoC4/ADC.c ****             }
 482:.\Generated_Source\PSoC4/ADC.c ****         }
 483:.\Generated_Source\PSoC4/ADC.c ****     #endif /* ADC_INJ_CHANNEL_ENABLED */
 484:.\Generated_Source\PSoC4/ADC.c **** 
 485:.\Generated_Source\PSoC4/ADC.c ****     return (status);
 666              		.loc 1 485 0
 667 006c FB68     		ldr	r3, [r7, #12]
 486:.\Generated_Source\PSoC4/ADC.c **** }
 668              		.loc 1 486 0
 669 006e 181C     		mov	r0, r3
 670 0070 BD46     		mov	sp, r7
 671 0072 04B0     		add	sp, sp, #16
 672              		@ sp needed
 673 0074 80BD     		pop	{r7, pc}
 674              	.L44:
 675 0076 C046     		.align	2
 676              	.L43:
 677 0078 10023A40 		.word	1077543440
 678              		.cfi_endproc
 679              	.LFE8:
 680              		.size	ADC_IsEndConversion, .-ADC_IsEndConversion
 681              		.section	.text.ADC_GetResult16,"ax",%progbits
 682              		.align	2
 683              		.global	ADC_GetResult16
 684              		.code	16
 685              		.thumb_func
 686              		.type	ADC_GetResult16, %function
 687              	ADC_GetResult16:
 688              	.LFB9:
 487:.\Generated_Source\PSoC4/ADC.c **** 
 488:.\Generated_Source\PSoC4/ADC.c **** 
 489:.\Generated_Source\PSoC4/ADC.c **** /*******************************************************************************
 490:.\Generated_Source\PSoC4/ADC.c **** * Function Name: ADC_GetResult16
 491:.\Generated_Source\PSoC4/ADC.c **** ********************************************************************************
 492:.\Generated_Source\PSoC4/ADC.c **** *
 493:.\Generated_Source\PSoC4/ADC.c **** * Summary:
 494:.\Generated_Source\PSoC4/ADC.c **** *  Gets the data available in the SAR DATA register.
 495:.\Generated_Source\PSoC4/ADC.c **** *
 496:.\Generated_Source\PSoC4/ADC.c **** * Parameters:
 497:.\Generated_Source\PSoC4/ADC.c **** *  chan: The ADC channel in which to return the result. The first channel
 498:.\Generated_Source\PSoC4/ADC.c **** *  is 0 and the injection channel if enabled is the number of valid channels.
 499:.\Generated_Source\PSoC4/ADC.c **** *
 500:.\Generated_Source\PSoC4/ADC.c **** * Return:
 501:.\Generated_Source\PSoC4/ADC.c **** *  Returns converted data as a signed 16-bit integer
ARM GAS  C:\Users\Henny\AppData\Local\Temp\ccAaGkFp.s 			page 22


 502:.\Generated_Source\PSoC4/ADC.c **** *
 503:.\Generated_Source\PSoC4/ADC.c **** *******************************************************************************/
 504:.\Generated_Source\PSoC4/ADC.c **** int16 ADC_GetResult16(uint32 chan)
 505:.\Generated_Source\PSoC4/ADC.c **** {
 689              		.loc 1 505 0
 690              		.cfi_startproc
 691 0000 80B5     		push	{r7, lr}
 692              		.cfi_def_cfa_offset 8
 693              		.cfi_offset 7, -8
 694              		.cfi_offset 14, -4
 695 0002 84B0     		sub	sp, sp, #16
 696              		.cfi_def_cfa_offset 24
 697 0004 00AF     		add	r7, sp, #0
 698              		.cfi_def_cfa_register 7
 699 0006 7860     		str	r0, [r7, #4]
 506:.\Generated_Source\PSoC4/ADC.c ****     uint32 result;
 507:.\Generated_Source\PSoC4/ADC.c **** 
 508:.\Generated_Source\PSoC4/ADC.c ****     /* Halt CPU in debug mode if channel is out of valid range */
 509:.\Generated_Source\PSoC4/ADC.c ****     CYASSERT(chan < ADC_TOTAL_CHANNELS_NUM);
 700              		.loc 1 509 0
 701 0008 7B68     		ldr	r3, [r7, #4]
 702 000a 012B     		cmp	r3, #1
 703 000c 02D9     		bls	.L46
 704              		.loc 1 509 0 is_stmt 0 discriminator 1
 705 000e 0020     		mov	r0, #0
 706 0010 FFF7FEFF 		bl	CyHalt
 707              	.L46:
 510:.\Generated_Source\PSoC4/ADC.c **** 
 511:.\Generated_Source\PSoC4/ADC.c ****     if(chan < ADC_SEQUENCED_CHANNELS_NUM)
 708              		.loc 1 511 0 is_stmt 1
 709 0014 7B68     		ldr	r3, [r7, #4]
 710 0016 002B     		cmp	r3, #0
 711 0018 09D1     		bne	.L47
 512:.\Generated_Source\PSoC4/ADC.c ****     {
 513:.\Generated_Source\PSoC4/ADC.c ****         result = CY_GET_REG32((reg32 *)(ADC_SAR_CHAN_RESULT_IND + (uint32)(chan << 2u))) &
 712              		.loc 1 513 0
 713 001a 7B68     		ldr	r3, [r7, #4]
 714 001c 9B00     		lsl	r3, r3, #2
 715 001e 0A4A     		ldr	r2, .L50
 716 0020 9446     		mov	ip, r2
 717 0022 6344     		add	r3, r3, ip
 718 0024 1B68     		ldr	r3, [r3]
 719 0026 1B04     		lsl	r3, r3, #16
 720 0028 1B0C     		lsr	r3, r3, #16
 721 002a FB60     		str	r3, [r7, #12]
 722 002c 04E0     		b	.L48
 723              	.L47:
 514:.\Generated_Source\PSoC4/ADC.c ****                 ADC_RESULT_MASK;
 515:.\Generated_Source\PSoC4/ADC.c ****     }
 516:.\Generated_Source\PSoC4/ADC.c ****     else
 517:.\Generated_Source\PSoC4/ADC.c ****     {
 518:.\Generated_Source\PSoC4/ADC.c ****         #if(ADC_INJ_CHANNEL_ENABLED)
 519:.\Generated_Source\PSoC4/ADC.c ****             result = ADC_SAR_INJ_RESULT_REG & ADC_RESULT_MASK;
 724              		.loc 1 519 0
 725 002e 074B     		ldr	r3, .L50+4
 726 0030 1B68     		ldr	r3, [r3]
 727 0032 1B04     		lsl	r3, r3, #16
ARM GAS  C:\Users\Henny\AppData\Local\Temp\ccAaGkFp.s 			page 23


 728 0034 1B0C     		lsr	r3, r3, #16
 729 0036 FB60     		str	r3, [r7, #12]
 730              	.L48:
 520:.\Generated_Source\PSoC4/ADC.c ****         #else
 521:.\Generated_Source\PSoC4/ADC.c ****             result = 0u;
 522:.\Generated_Source\PSoC4/ADC.c ****         #endif /* ADC_INJ_CHANNEL_ENABLED */
 523:.\Generated_Source\PSoC4/ADC.c ****     }
 524:.\Generated_Source\PSoC4/ADC.c **** 
 525:.\Generated_Source\PSoC4/ADC.c ****     return ( (int16)result );
 731              		.loc 1 525 0
 732 0038 FB68     		ldr	r3, [r7, #12]
 733 003a 9BB2     		uxth	r3, r3
 734 003c 1BB2     		sxth	r3, r3
 526:.\Generated_Source\PSoC4/ADC.c **** }
 735              		.loc 1 526 0
 736 003e 181C     		mov	r0, r3
 737 0040 BD46     		mov	sp, r7
 738 0042 04B0     		add	sp, sp, #16
 739              		@ sp needed
 740 0044 80BD     		pop	{r7, pc}
 741              	.L51:
 742 0046 C046     		.align	2
 743              	.L50:
 744 0048 80013A40 		.word	1077543296
 745 004c 90023A40 		.word	1077543568
 746              		.cfi_endproc
 747              	.LFE9:
 748              		.size	ADC_GetResult16, .-ADC_GetResult16
 749              		.section	.text.ADC_SetChanMask,"ax",%progbits
 750              		.align	2
 751              		.global	ADC_SetChanMask
 752              		.code	16
 753              		.thumb_func
 754              		.type	ADC_SetChanMask, %function
 755              	ADC_SetChanMask:
 756              	.LFB10:
 527:.\Generated_Source\PSoC4/ADC.c **** 
 528:.\Generated_Source\PSoC4/ADC.c **** 
 529:.\Generated_Source\PSoC4/ADC.c **** /*******************************************************************************
 530:.\Generated_Source\PSoC4/ADC.c **** * Function Name: ADC_SetChanMask
 531:.\Generated_Source\PSoC4/ADC.c **** ********************************************************************************
 532:.\Generated_Source\PSoC4/ADC.c **** *
 533:.\Generated_Source\PSoC4/ADC.c **** * Summary:
 534:.\Generated_Source\PSoC4/ADC.c **** *  Sets the channel enable mask.
 535:.\Generated_Source\PSoC4/ADC.c **** *
 536:.\Generated_Source\PSoC4/ADC.c **** * Parameters:
 537:.\Generated_Source\PSoC4/ADC.c **** *  mask: Sets which channels that will be
 538:.\Generated_Source\PSoC4/ADC.c **** *  scanned. Setting bits for channels that do not exist will have no
 539:.\Generated_Source\PSoC4/ADC.c **** *  effect. For example, if only 6 channels were enabled, setting a
 540:.\Generated_Source\PSoC4/ADC.c **** *  mask of 0x0103 would only enable the last two channels (0 and 1).
 541:.\Generated_Source\PSoC4/ADC.c **** *  This API will not enable the injection channel.
 542:.\Generated_Source\PSoC4/ADC.c **** *  Examples: If the component is setup to sequence through 8
 543:.\Generated_Source\PSoC4/ADC.c **** *  channels, a mask of 0x000F would enable channels 0, 1, 2, and 3.
 544:.\Generated_Source\PSoC4/ADC.c **** *
 545:.\Generated_Source\PSoC4/ADC.c **** * Return:
 546:.\Generated_Source\PSoC4/ADC.c **** *  None.
 547:.\Generated_Source\PSoC4/ADC.c **** *
ARM GAS  C:\Users\Henny\AppData\Local\Temp\ccAaGkFp.s 			page 24


 548:.\Generated_Source\PSoC4/ADC.c **** *******************************************************************************/
 549:.\Generated_Source\PSoC4/ADC.c **** void ADC_SetChanMask(uint32 mask)
 550:.\Generated_Source\PSoC4/ADC.c **** {
 757              		.loc 1 550 0
 758              		.cfi_startproc
 759 0000 80B5     		push	{r7, lr}
 760              		.cfi_def_cfa_offset 8
 761              		.cfi_offset 7, -8
 762              		.cfi_offset 14, -4
 763 0002 82B0     		sub	sp, sp, #8
 764              		.cfi_def_cfa_offset 16
 765 0004 00AF     		add	r7, sp, #0
 766              		.cfi_def_cfa_register 7
 767 0006 7860     		str	r0, [r7, #4]
 551:.\Generated_Source\PSoC4/ADC.c ****     ADC_SAR_CHAN_EN_REG = mask & ADC_MAX_CHANNELS_EN_MASK;
 768              		.loc 1 551 0
 769 0008 034B     		ldr	r3, .L53
 770 000a 7A68     		ldr	r2, [r7, #4]
 771 000c 0121     		mov	r1, #1
 772 000e 0A40     		and	r2, r1
 773 0010 1A60     		str	r2, [r3]
 552:.\Generated_Source\PSoC4/ADC.c **** }
 774              		.loc 1 552 0
 775 0012 BD46     		mov	sp, r7
 776 0014 02B0     		add	sp, sp, #8
 777              		@ sp needed
 778 0016 80BD     		pop	{r7, pc}
 779              	.L54:
 780              		.align	2
 781              	.L53:
 782 0018 20003A40 		.word	1077542944
 783              		.cfi_endproc
 784              	.LFE10:
 785              		.size	ADC_SetChanMask, .-ADC_SetChanMask
 786              		.section	.text.ADC_EnableInjection,"ax",%progbits
 787              		.align	2
 788              		.global	ADC_EnableInjection
 789              		.code	16
 790              		.thumb_func
 791              		.type	ADC_EnableInjection, %function
 792              	ADC_EnableInjection:
 793              	.LFB11:
 553:.\Generated_Source\PSoC4/ADC.c **** 
 554:.\Generated_Source\PSoC4/ADC.c **** #if(ADC_INJ_CHANNEL_ENABLED)
 555:.\Generated_Source\PSoC4/ADC.c **** 
 556:.\Generated_Source\PSoC4/ADC.c **** 
 557:.\Generated_Source\PSoC4/ADC.c ****     /*******************************************************************************
 558:.\Generated_Source\PSoC4/ADC.c ****     * Function Name: ADC_EnableInjection
 559:.\Generated_Source\PSoC4/ADC.c ****     ********************************************************************************
 560:.\Generated_Source\PSoC4/ADC.c ****     *
 561:.\Generated_Source\PSoC4/ADC.c ****     * Summary:
 562:.\Generated_Source\PSoC4/ADC.c ****     *  Enables the injection channel for the next scan only.
 563:.\Generated_Source\PSoC4/ADC.c ****     *
 564:.\Generated_Source\PSoC4/ADC.c ****     * Parameters:
 565:.\Generated_Source\PSoC4/ADC.c ****     *  None.
 566:.\Generated_Source\PSoC4/ADC.c ****     *
 567:.\Generated_Source\PSoC4/ADC.c ****     * Return:
ARM GAS  C:\Users\Henny\AppData\Local\Temp\ccAaGkFp.s 			page 25


 568:.\Generated_Source\PSoC4/ADC.c ****     *  None.
 569:.\Generated_Source\PSoC4/ADC.c ****     *
 570:.\Generated_Source\PSoC4/ADC.c ****     *******************************************************************************/
 571:.\Generated_Source\PSoC4/ADC.c ****     void ADC_EnableInjection(void)
 572:.\Generated_Source\PSoC4/ADC.c ****     {
 794              		.loc 1 572 0
 795              		.cfi_startproc
 796 0000 80B5     		push	{r7, lr}
 797              		.cfi_def_cfa_offset 8
 798              		.cfi_offset 7, -8
 799              		.cfi_offset 14, -4
 800 0002 00AF     		add	r7, sp, #0
 801              		.cfi_def_cfa_register 7
 573:.\Generated_Source\PSoC4/ADC.c ****         ADC_SAR_INJ_CHAN_CONFIG_REG |= ADC_INJ_CHAN_EN;
 802              		.loc 1 573 0
 803 0004 044B     		ldr	r3, .L56
 804 0006 044A     		ldr	r2, .L56
 805 0008 1268     		ldr	r2, [r2]
 806 000a 8021     		mov	r1, #128
 807 000c 0906     		lsl	r1, r1, #24
 808 000e 0A43     		orr	r2, r1
 809 0010 1A60     		str	r2, [r3]
 574:.\Generated_Source\PSoC4/ADC.c ****     }
 810              		.loc 1 574 0
 811 0012 BD46     		mov	sp, r7
 812              		@ sp needed
 813 0014 80BD     		pop	{r7, pc}
 814              	.L57:
 815 0016 C046     		.align	2
 816              	.L56:
 817 0018 80023A40 		.word	1077543552
 818              		.cfi_endproc
 819              	.LFE11:
 820              		.size	ADC_EnableInjection, .-ADC_EnableInjection
 821              		.section	.text.ADC_SetLowLimit,"ax",%progbits
 822              		.align	2
 823              		.global	ADC_SetLowLimit
 824              		.code	16
 825              		.thumb_func
 826              		.type	ADC_SetLowLimit, %function
 827              	ADC_SetLowLimit:
 828              	.LFB12:
 575:.\Generated_Source\PSoC4/ADC.c **** 
 576:.\Generated_Source\PSoC4/ADC.c **** #endif /* ADC_INJ_CHANNEL_ENABLED */
 577:.\Generated_Source\PSoC4/ADC.c **** 
 578:.\Generated_Source\PSoC4/ADC.c **** 
 579:.\Generated_Source\PSoC4/ADC.c **** /*******************************************************************************
 580:.\Generated_Source\PSoC4/ADC.c **** * Function Name: ADC_SetLowLimit
 581:.\Generated_Source\PSoC4/ADC.c **** ********************************************************************************
 582:.\Generated_Source\PSoC4/ADC.c **** *
 583:.\Generated_Source\PSoC4/ADC.c **** * Summary:
 584:.\Generated_Source\PSoC4/ADC.c **** *  Sets the low limit parameter for a limit condition.
 585:.\Generated_Source\PSoC4/ADC.c **** *
 586:.\Generated_Source\PSoC4/ADC.c **** * Parameters:
 587:.\Generated_Source\PSoC4/ADC.c **** *  lowLimit: The low limit for a limit condition.
 588:.\Generated_Source\PSoC4/ADC.c **** *
 589:.\Generated_Source\PSoC4/ADC.c **** * Return:
ARM GAS  C:\Users\Henny\AppData\Local\Temp\ccAaGkFp.s 			page 26


 590:.\Generated_Source\PSoC4/ADC.c **** *  None.
 591:.\Generated_Source\PSoC4/ADC.c **** *
 592:.\Generated_Source\PSoC4/ADC.c **** *******************************************************************************/
 593:.\Generated_Source\PSoC4/ADC.c **** void ADC_SetLowLimit(uint32 lowLimit)
 594:.\Generated_Source\PSoC4/ADC.c **** {
 829              		.loc 1 594 0
 830              		.cfi_startproc
 831 0000 80B5     		push	{r7, lr}
 832              		.cfi_def_cfa_offset 8
 833              		.cfi_offset 7, -8
 834              		.cfi_offset 14, -4
 835 0002 82B0     		sub	sp, sp, #8
 836              		.cfi_def_cfa_offset 16
 837 0004 00AF     		add	r7, sp, #0
 838              		.cfi_def_cfa_register 7
 839 0006 7860     		str	r0, [r7, #4]
 595:.\Generated_Source\PSoC4/ADC.c ****     ADC_SAR_RANGE_THRES_REG &= (uint32)(~ADC_RANGE_LOW_MASK);
 840              		.loc 1 595 0
 841 0008 084B     		ldr	r3, .L59
 842 000a 084A     		ldr	r2, .L59
 843 000c 1268     		ldr	r2, [r2]
 844 000e 120C     		lsr	r2, r2, #16
 845 0010 1204     		lsl	r2, r2, #16
 846 0012 1A60     		str	r2, [r3]
 596:.\Generated_Source\PSoC4/ADC.c ****     ADC_SAR_RANGE_THRES_REG |= lowLimit & ADC_RANGE_LOW_MASK;
 847              		.loc 1 596 0
 848 0014 054B     		ldr	r3, .L59
 849 0016 054A     		ldr	r2, .L59
 850 0018 1168     		ldr	r1, [r2]
 851 001a 7A68     		ldr	r2, [r7, #4]
 852 001c 1204     		lsl	r2, r2, #16
 853 001e 120C     		lsr	r2, r2, #16
 854 0020 0A43     		orr	r2, r1
 855 0022 1A60     		str	r2, [r3]
 597:.\Generated_Source\PSoC4/ADC.c **** }
 856              		.loc 1 597 0
 857 0024 BD46     		mov	sp, r7
 858 0026 02B0     		add	sp, sp, #8
 859              		@ sp needed
 860 0028 80BD     		pop	{r7, pc}
 861              	.L60:
 862 002a C046     		.align	2
 863              	.L59:
 864 002c 18003A40 		.word	1077542936
 865              		.cfi_endproc
 866              	.LFE12:
 867              		.size	ADC_SetLowLimit, .-ADC_SetLowLimit
 868              		.section	.text.ADC_SetHighLimit,"ax",%progbits
 869              		.align	2
 870              		.global	ADC_SetHighLimit
 871              		.code	16
 872              		.thumb_func
 873              		.type	ADC_SetHighLimit, %function
 874              	ADC_SetHighLimit:
 875              	.LFB13:
 598:.\Generated_Source\PSoC4/ADC.c **** 
 599:.\Generated_Source\PSoC4/ADC.c **** 
ARM GAS  C:\Users\Henny\AppData\Local\Temp\ccAaGkFp.s 			page 27


 600:.\Generated_Source\PSoC4/ADC.c **** /*******************************************************************************
 601:.\Generated_Source\PSoC4/ADC.c **** * Function Name: ADC_SetHighLimit
 602:.\Generated_Source\PSoC4/ADC.c **** ********************************************************************************
 603:.\Generated_Source\PSoC4/ADC.c **** *
 604:.\Generated_Source\PSoC4/ADC.c **** * Summary:
 605:.\Generated_Source\PSoC4/ADC.c **** *  Sets the low limit parameter for a limit condition.
 606:.\Generated_Source\PSoC4/ADC.c **** *
 607:.\Generated_Source\PSoC4/ADC.c **** * Parameters:
 608:.\Generated_Source\PSoC4/ADC.c **** *  highLimit: The high limit for a limit condition.
 609:.\Generated_Source\PSoC4/ADC.c **** *
 610:.\Generated_Source\PSoC4/ADC.c **** * Return:
 611:.\Generated_Source\PSoC4/ADC.c **** *  None.
 612:.\Generated_Source\PSoC4/ADC.c **** *
 613:.\Generated_Source\PSoC4/ADC.c **** *******************************************************************************/
 614:.\Generated_Source\PSoC4/ADC.c **** void ADC_SetHighLimit(uint32 highLimit)
 615:.\Generated_Source\PSoC4/ADC.c **** {
 876              		.loc 1 615 0
 877              		.cfi_startproc
 878 0000 80B5     		push	{r7, lr}
 879              		.cfi_def_cfa_offset 8
 880              		.cfi_offset 7, -8
 881              		.cfi_offset 14, -4
 882 0002 82B0     		sub	sp, sp, #8
 883              		.cfi_def_cfa_offset 16
 884 0004 00AF     		add	r7, sp, #0
 885              		.cfi_def_cfa_register 7
 886 0006 7860     		str	r0, [r7, #4]
 616:.\Generated_Source\PSoC4/ADC.c ****     ADC_SAR_RANGE_THRES_REG &= (uint32)(~ADC_RANGE_HIGH_MASK);
 887              		.loc 1 616 0
 888 0008 074B     		ldr	r3, .L62
 889 000a 074A     		ldr	r2, .L62
 890 000c 1268     		ldr	r2, [r2]
 891 000e 1204     		lsl	r2, r2, #16
 892 0010 120C     		lsr	r2, r2, #16
 893 0012 1A60     		str	r2, [r3]
 617:.\Generated_Source\PSoC4/ADC.c ****     ADC_SAR_RANGE_THRES_REG |= (uint32)(highLimit << ADC_RANGE_HIGH_OFFSET);
 894              		.loc 1 617 0
 895 0014 044B     		ldr	r3, .L62
 896 0016 044A     		ldr	r2, .L62
 897 0018 1168     		ldr	r1, [r2]
 898 001a 7A68     		ldr	r2, [r7, #4]
 899 001c 1204     		lsl	r2, r2, #16
 900 001e 0A43     		orr	r2, r1
 901 0020 1A60     		str	r2, [r3]
 618:.\Generated_Source\PSoC4/ADC.c **** }
 902              		.loc 1 618 0
 903 0022 BD46     		mov	sp, r7
 904 0024 02B0     		add	sp, sp, #8
 905              		@ sp needed
 906 0026 80BD     		pop	{r7, pc}
 907              	.L63:
 908              		.align	2
 909              	.L62:
 910 0028 18003A40 		.word	1077542936
 911              		.cfi_endproc
 912              	.LFE13:
 913              		.size	ADC_SetHighLimit, .-ADC_SetHighLimit
ARM GAS  C:\Users\Henny\AppData\Local\Temp\ccAaGkFp.s 			page 28


 914              		.section	.text.ADC_SetLimitMask,"ax",%progbits
 915              		.align	2
 916              		.global	ADC_SetLimitMask
 917              		.code	16
 918              		.thumb_func
 919              		.type	ADC_SetLimitMask, %function
 920              	ADC_SetLimitMask:
 921              	.LFB14:
 619:.\Generated_Source\PSoC4/ADC.c **** 
 620:.\Generated_Source\PSoC4/ADC.c **** 
 621:.\Generated_Source\PSoC4/ADC.c **** /*******************************************************************************
 622:.\Generated_Source\PSoC4/ADC.c **** * Function Name: ADC_SetLimitMask
 623:.\Generated_Source\PSoC4/ADC.c **** ********************************************************************************
 624:.\Generated_Source\PSoC4/ADC.c **** *
 625:.\Generated_Source\PSoC4/ADC.c **** * Summary:
 626:.\Generated_Source\PSoC4/ADC.c **** *  Sets the channel limit condition mask.
 627:.\Generated_Source\PSoC4/ADC.c **** *
 628:.\Generated_Source\PSoC4/ADC.c **** * Parameters:
 629:.\Generated_Source\PSoC4/ADC.c **** *  mask: Sets which channels that may cause a
 630:.\Generated_Source\PSoC4/ADC.c **** *  limit condition interrupt. Setting bits for channels that do not exist
 631:.\Generated_Source\PSoC4/ADC.c **** *  will have no effect. For example, if only 6 channels were enabled,
 632:.\Generated_Source\PSoC4/ADC.c **** *  setting a mask of 0x0103 would only enable the last two channels (0 and 1).
 633:.\Generated_Source\PSoC4/ADC.c **** *
 634:.\Generated_Source\PSoC4/ADC.c **** * Return:
 635:.\Generated_Source\PSoC4/ADC.c **** *  None.
 636:.\Generated_Source\PSoC4/ADC.c **** *
 637:.\Generated_Source\PSoC4/ADC.c **** *******************************************************************************/
 638:.\Generated_Source\PSoC4/ADC.c **** void ADC_SetLimitMask(uint32 mask)
 639:.\Generated_Source\PSoC4/ADC.c **** {
 922              		.loc 1 639 0
 923              		.cfi_startproc
 924 0000 80B5     		push	{r7, lr}
 925              		.cfi_def_cfa_offset 8
 926              		.cfi_offset 7, -8
 927              		.cfi_offset 14, -4
 928 0002 82B0     		sub	sp, sp, #8
 929              		.cfi_def_cfa_offset 16
 930 0004 00AF     		add	r7, sp, #0
 931              		.cfi_def_cfa_register 7
 932 0006 7860     		str	r0, [r7, #4]
 640:.\Generated_Source\PSoC4/ADC.c ****     ADC_SAR_RANGE_INTR_MASK_REG = mask & ADC_MAX_CHANNELS_EN_MASK;
 933              		.loc 1 640 0
 934 0008 034B     		ldr	r3, .L65
 935 000a 7A68     		ldr	r2, [r7, #4]
 936 000c 0121     		mov	r1, #1
 937 000e 0A40     		and	r2, r1
 938 0010 1A60     		str	r2, [r3]
 641:.\Generated_Source\PSoC4/ADC.c **** }
 939              		.loc 1 641 0
 940 0012 BD46     		mov	sp, r7
 941 0014 02B0     		add	sp, sp, #8
 942              		@ sp needed
 943 0016 80BD     		pop	{r7, pc}
 944              	.L66:
 945              		.align	2
 946              	.L65:
 947 0018 38023A40 		.word	1077543480
ARM GAS  C:\Users\Henny\AppData\Local\Temp\ccAaGkFp.s 			page 29


 948              		.cfi_endproc
 949              	.LFE14:
 950              		.size	ADC_SetLimitMask, .-ADC_SetLimitMask
 951              		.section	.text.ADC_SetSatMask,"ax",%progbits
 952              		.align	2
 953              		.global	ADC_SetSatMask
 954              		.code	16
 955              		.thumb_func
 956              		.type	ADC_SetSatMask, %function
 957              	ADC_SetSatMask:
 958              	.LFB15:
 642:.\Generated_Source\PSoC4/ADC.c **** 
 643:.\Generated_Source\PSoC4/ADC.c **** 
 644:.\Generated_Source\PSoC4/ADC.c **** /*******************************************************************************
 645:.\Generated_Source\PSoC4/ADC.c **** * Function Name: ADC_SetSatMask
 646:.\Generated_Source\PSoC4/ADC.c **** ********************************************************************************
 647:.\Generated_Source\PSoC4/ADC.c **** *
 648:.\Generated_Source\PSoC4/ADC.c **** * Summary:
 649:.\Generated_Source\PSoC4/ADC.c **** *  Sets the channel saturation event mask.
 650:.\Generated_Source\PSoC4/ADC.c **** *
 651:.\Generated_Source\PSoC4/ADC.c **** * Parameters:
 652:.\Generated_Source\PSoC4/ADC.c **** *  mask: Sets which channels that may cause a
 653:.\Generated_Source\PSoC4/ADC.c **** *  saturation event interrupt. Setting bits for channels that do not exist
 654:.\Generated_Source\PSoC4/ADC.c **** *  will have no effect. For example, if only 8 channels were enabled,
 655:.\Generated_Source\PSoC4/ADC.c **** *  setting a mask of 0x01C0 would only enable two channels (6 and 7).
 656:.\Generated_Source\PSoC4/ADC.c **** *
 657:.\Generated_Source\PSoC4/ADC.c **** * Return:
 658:.\Generated_Source\PSoC4/ADC.c **** *  None.
 659:.\Generated_Source\PSoC4/ADC.c **** *
 660:.\Generated_Source\PSoC4/ADC.c **** *******************************************************************************/
 661:.\Generated_Source\PSoC4/ADC.c **** void ADC_SetSatMask(uint32 mask)
 662:.\Generated_Source\PSoC4/ADC.c **** {
 959              		.loc 1 662 0
 960              		.cfi_startproc
 961 0000 80B5     		push	{r7, lr}
 962              		.cfi_def_cfa_offset 8
 963              		.cfi_offset 7, -8
 964              		.cfi_offset 14, -4
 965 0002 82B0     		sub	sp, sp, #8
 966              		.cfi_def_cfa_offset 16
 967 0004 00AF     		add	r7, sp, #0
 968              		.cfi_def_cfa_register 7
 969 0006 7860     		str	r0, [r7, #4]
 663:.\Generated_Source\PSoC4/ADC.c ****     ADC_SAR_SATURATE_INTR_MASK_REG = mask & ADC_MAX_CHANNELS_EN_MASK;
 970              		.loc 1 663 0
 971 0008 034B     		ldr	r3, .L68
 972 000a 7A68     		ldr	r2, [r7, #4]
 973 000c 0121     		mov	r1, #1
 974 000e 0A40     		and	r2, r1
 975 0010 1A60     		str	r2, [r3]
 664:.\Generated_Source\PSoC4/ADC.c **** }
 976              		.loc 1 664 0
 977 0012 BD46     		mov	sp, r7
 978 0014 02B0     		add	sp, sp, #8
 979              		@ sp needed
 980 0016 80BD     		pop	{r7, pc}
 981              	.L69:
ARM GAS  C:\Users\Henny\AppData\Local\Temp\ccAaGkFp.s 			page 30


 982              		.align	2
 983              	.L68:
 984 0018 28023A40 		.word	1077543464
 985              		.cfi_endproc
 986              	.LFE15:
 987              		.size	ADC_SetSatMask, .-ADC_SetSatMask
 988              		.section	.text.ADC_SetOffset,"ax",%progbits
 989              		.align	2
 990              		.global	ADC_SetOffset
 991              		.code	16
 992              		.thumb_func
 993              		.type	ADC_SetOffset, %function
 994              	ADC_SetOffset:
 995              	.LFB16:
 665:.\Generated_Source\PSoC4/ADC.c **** 
 666:.\Generated_Source\PSoC4/ADC.c **** 
 667:.\Generated_Source\PSoC4/ADC.c **** /*******************************************************************************
 668:.\Generated_Source\PSoC4/ADC.c **** * Function Name: ADC_SetOffset
 669:.\Generated_Source\PSoC4/ADC.c **** ********************************************************************************
 670:.\Generated_Source\PSoC4/ADC.c **** *
 671:.\Generated_Source\PSoC4/ADC.c **** * Summary:
 672:.\Generated_Source\PSoC4/ADC.c **** *   Description: Sets the ADC offset which is used by the functions
 673:.\Generated_Source\PSoC4/ADC.c **** *   ADC_CountsTo_uVolts, ADC_CountsTo_mVolts and ADC_CountsTo_Volts
 674:.\Generated_Source\PSoC4/ADC.c **** *   to substract the offset from the given reading
 675:.\Generated_Source\PSoC4/ADC.c **** *   before calculating the voltage conversion.
 676:.\Generated_Source\PSoC4/ADC.c **** *
 677:.\Generated_Source\PSoC4/ADC.c **** * Parameters:
 678:.\Generated_Source\PSoC4/ADC.c **** *  chan: ADC channel number.
 679:.\Generated_Source\PSoC4/ADC.c **** *  offset: This value is a measured value when the
 680:.\Generated_Source\PSoC4/ADC.c **** *          inputs are shorted or connected to the same input voltage.
 681:.\Generated_Source\PSoC4/ADC.c **** *
 682:.\Generated_Source\PSoC4/ADC.c **** * Return:
 683:.\Generated_Source\PSoC4/ADC.c **** *  None.
 684:.\Generated_Source\PSoC4/ADC.c **** *
 685:.\Generated_Source\PSoC4/ADC.c **** * Global variables:
 686:.\Generated_Source\PSoC4/ADC.c **** *  ADC_Offset:  Modified to set the user provided offset.
 687:.\Generated_Source\PSoC4/ADC.c **** *
 688:.\Generated_Source\PSoC4/ADC.c **** *******************************************************************************/
 689:.\Generated_Source\PSoC4/ADC.c **** void ADC_SetOffset(uint32 chan, int16 offset)
 690:.\Generated_Source\PSoC4/ADC.c **** {
 996              		.loc 1 690 0
 997              		.cfi_startproc
 998 0000 80B5     		push	{r7, lr}
 999              		.cfi_def_cfa_offset 8
 1000              		.cfi_offset 7, -8
 1001              		.cfi_offset 14, -4
 1002 0002 82B0     		sub	sp, sp, #8
 1003              		.cfi_def_cfa_offset 16
 1004 0004 00AF     		add	r7, sp, #0
 1005              		.cfi_def_cfa_register 7
 1006 0006 7860     		str	r0, [r7, #4]
 1007 0008 0A1C     		mov	r2, r1
 1008 000a BB1C     		add	r3, r7, #2
 1009 000c 1A80     		strh	r2, [r3]
 691:.\Generated_Source\PSoC4/ADC.c ****     /* Halt CPU in debug mode if channel is out of valid range */
 692:.\Generated_Source\PSoC4/ADC.c ****     CYASSERT(chan < ADC_TOTAL_CHANNELS_NUM);
 1010              		.loc 1 692 0
ARM GAS  C:\Users\Henny\AppData\Local\Temp\ccAaGkFp.s 			page 31


 1011 000e 7B68     		ldr	r3, [r7, #4]
 1012 0010 012B     		cmp	r3, #1
 1013 0012 02D9     		bls	.L71
 1014              		.loc 1 692 0 is_stmt 0 discriminator 1
 1015 0014 0020     		mov	r0, #0
 1016 0016 FFF7FEFF 		bl	CyHalt
 1017              	.L71:
 693:.\Generated_Source\PSoC4/ADC.c **** 
 694:.\Generated_Source\PSoC4/ADC.c ****     ADC_offset[chan] = offset;
 1018              		.loc 1 694 0 is_stmt 1
 1019 001a 044B     		ldr	r3, .L72
 1020 001c 7A68     		ldr	r2, [r7, #4]
 1021 001e 5200     		lsl	r2, r2, #1
 1022 0020 B91C     		add	r1, r7, #2
 1023 0022 0988     		ldrh	r1, [r1]
 1024 0024 D152     		strh	r1, [r2, r3]
 695:.\Generated_Source\PSoC4/ADC.c **** }
 1025              		.loc 1 695 0
 1026 0026 BD46     		mov	sp, r7
 1027 0028 02B0     		add	sp, sp, #8
 1028              		@ sp needed
 1029 002a 80BD     		pop	{r7, pc}
 1030              	.L73:
 1031              		.align	2
 1032              	.L72:
 1033 002c 00000000 		.word	ADC_offset
 1034              		.cfi_endproc
 1035              	.LFE16:
 1036              		.size	ADC_SetOffset, .-ADC_SetOffset
 1037              		.section	.text.ADC_SetGain,"ax",%progbits
 1038              		.align	2
 1039              		.global	ADC_SetGain
 1040              		.code	16
 1041              		.thumb_func
 1042              		.type	ADC_SetGain, %function
 1043              	ADC_SetGain:
 1044              	.LFB17:
 696:.\Generated_Source\PSoC4/ADC.c **** 
 697:.\Generated_Source\PSoC4/ADC.c **** 
 698:.\Generated_Source\PSoC4/ADC.c **** /*******************************************************************************
 699:.\Generated_Source\PSoC4/ADC.c **** * Function Name: ADC_SetGain
 700:.\Generated_Source\PSoC4/ADC.c **** ********************************************************************************
 701:.\Generated_Source\PSoC4/ADC.c **** *
 702:.\Generated_Source\PSoC4/ADC.c **** * Summary:
 703:.\Generated_Source\PSoC4/ADC.c **** *  Description: Sets the ADC gain in counts per 10 volt for the voltage
 704:.\Generated_Source\PSoC4/ADC.c **** *  conversion functions below. This value is set by default by the
 705:.\Generated_Source\PSoC4/ADC.c **** *  reference and input range settings. It should only be used to further
 706:.\Generated_Source\PSoC4/ADC.c **** *  calibrate the ADC with a known input or if an external reference is
 707:.\Generated_Source\PSoC4/ADC.c **** *  used. Affects the ADC_CountsTo_uVolts, ADC_CountsTo_mVolts
 708:.\Generated_Source\PSoC4/ADC.c **** *  and ADC_CountsTo_Volts functions by supplying the correct
 709:.\Generated_Source\PSoC4/ADC.c **** *  conversion between ADC counts and voltage.
 710:.\Generated_Source\PSoC4/ADC.c **** *
 711:.\Generated_Source\PSoC4/ADC.c **** * Parameters:
 712:.\Generated_Source\PSoC4/ADC.c **** *  chan: ADC channel number.
 713:.\Generated_Source\PSoC4/ADC.c **** *  adcGain: ADC gain in counts per 10 volts.
 714:.\Generated_Source\PSoC4/ADC.c **** *
 715:.\Generated_Source\PSoC4/ADC.c **** * Return:
ARM GAS  C:\Users\Henny\AppData\Local\Temp\ccAaGkFp.s 			page 32


 716:.\Generated_Source\PSoC4/ADC.c **** *  None.
 717:.\Generated_Source\PSoC4/ADC.c **** *
 718:.\Generated_Source\PSoC4/ADC.c **** * Global variables:
 719:.\Generated_Source\PSoC4/ADC.c **** *  ADC_CountsPer10Volt:  modified to set the ADC gain in counts
 720:.\Generated_Source\PSoC4/ADC.c **** *   per 10 volt.
 721:.\Generated_Source\PSoC4/ADC.c **** *
 722:.\Generated_Source\PSoC4/ADC.c **** *******************************************************************************/
 723:.\Generated_Source\PSoC4/ADC.c **** void ADC_SetGain(uint32 chan, int32 adcGain)
 724:.\Generated_Source\PSoC4/ADC.c **** {
 1045              		.loc 1 724 0
 1046              		.cfi_startproc
 1047 0000 80B5     		push	{r7, lr}
 1048              		.cfi_def_cfa_offset 8
 1049              		.cfi_offset 7, -8
 1050              		.cfi_offset 14, -4
 1051 0002 82B0     		sub	sp, sp, #8
 1052              		.cfi_def_cfa_offset 16
 1053 0004 00AF     		add	r7, sp, #0
 1054              		.cfi_def_cfa_register 7
 1055 0006 7860     		str	r0, [r7, #4]
 1056 0008 3960     		str	r1, [r7]
 725:.\Generated_Source\PSoC4/ADC.c ****     /* Halt CPU in debug mode if channel is out of valid range */
 726:.\Generated_Source\PSoC4/ADC.c ****     CYASSERT(chan < ADC_TOTAL_CHANNELS_NUM);
 1057              		.loc 1 726 0
 1058 000a 7B68     		ldr	r3, [r7, #4]
 1059 000c 012B     		cmp	r3, #1
 1060 000e 02D9     		bls	.L75
 1061              		.loc 1 726 0 is_stmt 0 discriminator 1
 1062 0010 0020     		mov	r0, #0
 1063 0012 FFF7FEFF 		bl	CyHalt
 1064              	.L75:
 727:.\Generated_Source\PSoC4/ADC.c **** 
 728:.\Generated_Source\PSoC4/ADC.c ****     ADC_countsPer10Volt[chan] = adcGain;
 1065              		.loc 1 728 0 is_stmt 1
 1066 0016 044B     		ldr	r3, .L76
 1067 0018 7A68     		ldr	r2, [r7, #4]
 1068 001a 9200     		lsl	r2, r2, #2
 1069 001c 3968     		ldr	r1, [r7]
 1070 001e D150     		str	r1, [r2, r3]
 729:.\Generated_Source\PSoC4/ADC.c **** }
 1071              		.loc 1 729 0
 1072 0020 BD46     		mov	sp, r7
 1073 0022 02B0     		add	sp, sp, #8
 1074              		@ sp needed
 1075 0024 80BD     		pop	{r7, pc}
 1076              	.L77:
 1077 0026 C046     		.align	2
 1078              	.L76:
 1079 0028 00000000 		.word	ADC_countsPer10Volt
 1080              		.cfi_endproc
 1081              	.LFE17:
 1082              		.size	ADC_SetGain, .-ADC_SetGain
 1083              		.global	__aeabi_idiv
 1084              		.section	.text.ADC_CountsTo_mVolts,"ax",%progbits
 1085              		.align	2
 1086              		.global	ADC_CountsTo_mVolts
 1087              		.code	16
ARM GAS  C:\Users\Henny\AppData\Local\Temp\ccAaGkFp.s 			page 33


 1088              		.thumb_func
 1089              		.type	ADC_CountsTo_mVolts, %function
 1090              	ADC_CountsTo_mVolts:
 1091              	.LFB18:
 730:.\Generated_Source\PSoC4/ADC.c **** 
 731:.\Generated_Source\PSoC4/ADC.c **** 
 732:.\Generated_Source\PSoC4/ADC.c **** #if(ADC_DEFAULT_JUSTIFICATION_SEL == ADC__RIGHT)
 733:.\Generated_Source\PSoC4/ADC.c **** 
 734:.\Generated_Source\PSoC4/ADC.c **** 
 735:.\Generated_Source\PSoC4/ADC.c ****     /*******************************************************************************
 736:.\Generated_Source\PSoC4/ADC.c ****     * Function Name: ADC_CountsTo_mVolts
 737:.\Generated_Source\PSoC4/ADC.c ****     ********************************************************************************
 738:.\Generated_Source\PSoC4/ADC.c ****     *
 739:.\Generated_Source\PSoC4/ADC.c ****     * Summary:
 740:.\Generated_Source\PSoC4/ADC.c ****     *  This function converts ADC counts to mVolts
 741:.\Generated_Source\PSoC4/ADC.c ****     *  This function is not available when left data format justification selected.
 742:.\Generated_Source\PSoC4/ADC.c ****     *
 743:.\Generated_Source\PSoC4/ADC.c ****     * Parameters:
 744:.\Generated_Source\PSoC4/ADC.c ****     *  chan: The ADC channel number.
 745:.\Generated_Source\PSoC4/ADC.c ****     *  adcCounts: Result from the ADC conversion
 746:.\Generated_Source\PSoC4/ADC.c ****     *
 747:.\Generated_Source\PSoC4/ADC.c ****     * Return:
 748:.\Generated_Source\PSoC4/ADC.c ****     *  Results in mVolts
 749:.\Generated_Source\PSoC4/ADC.c ****     *
 750:.\Generated_Source\PSoC4/ADC.c ****     * Global variables:
 751:.\Generated_Source\PSoC4/ADC.c ****     *  ADC_countsPer10Volt:  used to convert ADC counts to mVolts.
 752:.\Generated_Source\PSoC4/ADC.c ****     *  ADC_Offset:  Used as the offset while converting ADC counts
 753:.\Generated_Source\PSoC4/ADC.c ****     *   to mVolts.
 754:.\Generated_Source\PSoC4/ADC.c ****     *
 755:.\Generated_Source\PSoC4/ADC.c ****     *******************************************************************************/
 756:.\Generated_Source\PSoC4/ADC.c ****     int16 ADC_CountsTo_mVolts(uint32 chan, int16 adcCounts)
 757:.\Generated_Source\PSoC4/ADC.c ****     {
 1092              		.loc 1 757 0
 1093              		.cfi_startproc
 1094 0000 80B5     		push	{r7, lr}
 1095              		.cfi_def_cfa_offset 8
 1096              		.cfi_offset 7, -8
 1097              		.cfi_offset 14, -4
 1098 0002 84B0     		sub	sp, sp, #16
 1099              		.cfi_def_cfa_offset 24
 1100 0004 00AF     		add	r7, sp, #0
 1101              		.cfi_def_cfa_register 7
 1102 0006 7860     		str	r0, [r7, #4]
 1103 0008 0A1C     		mov	r2, r1
 1104 000a BB1C     		add	r3, r7, #2
 1105 000c 1A80     		strh	r2, [r3]
 758:.\Generated_Source\PSoC4/ADC.c ****         int16 mVolts;
 759:.\Generated_Source\PSoC4/ADC.c **** 
 760:.\Generated_Source\PSoC4/ADC.c ****         /* Halt CPU in debug mode if channel is out of valid range */
 761:.\Generated_Source\PSoC4/ADC.c ****         CYASSERT(chan < ADC_TOTAL_CHANNELS_NUM);
 1106              		.loc 1 761 0
 1107 000e 7B68     		ldr	r3, [r7, #4]
 1108 0010 012B     		cmp	r3, #1
 1109 0012 02D9     		bls	.L79
 1110              		.loc 1 761 0 is_stmt 0 discriminator 1
 1111 0014 0020     		mov	r0, #0
 1112 0016 FFF7FEFF 		bl	CyHalt
ARM GAS  C:\Users\Henny\AppData\Local\Temp\ccAaGkFp.s 			page 34


 1113              	.L79:
 762:.\Generated_Source\PSoC4/ADC.c **** 
 763:.\Generated_Source\PSoC4/ADC.c ****         /* Divide the adcCount when accumulate averaging mode selected */
 764:.\Generated_Source\PSoC4/ADC.c ****         #if(ADC_DEFAULT_AVG_MODE == ADC__ACCUMULATE)
 765:.\Generated_Source\PSoC4/ADC.c ****             if((ADC_channelsConfig[chan] & ADC_AVERAGING_EN) != 0u)
 766:.\Generated_Source\PSoC4/ADC.c ****             {
 767:.\Generated_Source\PSoC4/ADC.c ****                 adcCounts /= ADC_DEFAULT_AVG_SAMPLES_DIV;
 768:.\Generated_Source\PSoC4/ADC.c ****             }
 769:.\Generated_Source\PSoC4/ADC.c ****         #endif /* ADC_DEFAULT_AVG_MODE == ADC__ACCUMULATE */
 770:.\Generated_Source\PSoC4/ADC.c **** 
 771:.\Generated_Source\PSoC4/ADC.c ****         /* Subtract ADC offset */
 772:.\Generated_Source\PSoC4/ADC.c ****         adcCounts -= ADC_offset[chan];
 1114              		.loc 1 772 0 is_stmt 1
 1115 001a 1F4B     		ldr	r3, .L85
 1116 001c 7A68     		ldr	r2, [r7, #4]
 1117 001e 5200     		lsl	r2, r2, #1
 1118 0020 D35A     		ldrh	r3, [r2, r3]
 1119 0022 99B2     		uxth	r1, r3
 1120 0024 BB1C     		add	r3, r7, #2
 1121 0026 1A88     		ldrh	r2, [r3]
 1122 0028 8BB2     		uxth	r3, r1
 1123 002a D31A     		sub	r3, r2, r3
 1124 002c 9AB2     		uxth	r2, r3
 1125 002e BB1C     		add	r3, r7, #2
 1126 0030 1A80     		strh	r2, [r3]
 773:.\Generated_Source\PSoC4/ADC.c **** 
 774:.\Generated_Source\PSoC4/ADC.c ****         mVolts = (int16)((((int32)adcCounts * ADC_10MV_COUNTS) + ( (adcCounts > 0) ?
 1127              		.loc 1 774 0
 1128 0032 BB1C     		add	r3, r7, #2
 1129 0034 0022     		mov	r2, #0
 1130 0036 9B5E     		ldrsh	r3, [r3, r2]
 1131 0038 184A     		ldr	r2, .L85+4
 1132 003a 5A43     		mul	r2, r3
 775:.\Generated_Source\PSoC4/ADC.c ****                  (ADC_countsPer10Volt[chan] / 2) : (-(ADC_countsPer10Volt[chan] / 2)) ))
 1133              		.loc 1 775 0
 1134 003c BB1C     		add	r3, r7, #2
 1135 003e 0021     		mov	r1, #0
 1136 0040 5B5E     		ldrsh	r3, [r3, r1]
 1137 0042 002B     		cmp	r3, #0
 1138 0044 08DD     		ble	.L80
 1139              		.loc 1 775 0 is_stmt 0 discriminator 1
 1140 0046 164B     		ldr	r3, .L85+8
 1141 0048 7968     		ldr	r1, [r7, #4]
 1142 004a 8900     		lsl	r1, r1, #2
 1143 004c CB58     		ldr	r3, [r1, r3]
 1144 004e 002B     		cmp	r3, #0
 1145 0050 00DA     		bge	.L81
 1146 0052 0133     		add	r3, r3, #1
 1147              	.L81:
 1148 0054 5B10     		asr	r3, r3, #1
 1149 0056 08E0     		b	.L82
 1150              	.L80:
 1151              		.loc 1 775 0 discriminator 2
 1152 0058 114B     		ldr	r3, .L85+8
 1153 005a 7968     		ldr	r1, [r7, #4]
 1154 005c 8900     		lsl	r1, r1, #2
 1155 005e CB58     		ldr	r3, [r1, r3]
ARM GAS  C:\Users\Henny\AppData\Local\Temp\ccAaGkFp.s 			page 35


 1156 0060 002B     		cmp	r3, #0
 1157 0062 00DA     		bge	.L83
 1158 0064 0133     		add	r3, r3, #1
 1159              	.L83:
 1160 0066 5B10     		asr	r3, r3, #1
 1161 0068 5B42     		neg	r3, r3
 1162              	.L82:
 774:.\Generated_Source\PSoC4/ADC.c ****                  (ADC_countsPer10Volt[chan] / 2) : (-(ADC_countsPer10Volt[chan] / 2)) ))
 1163              		.loc 1 774 0 is_stmt 1
 1164 006a D118     		add	r1, r2, r3
 776:.\Generated_Source\PSoC4/ADC.c ****                  / ADC_countsPer10Volt[chan]);
 1165              		.loc 1 776 0
 1166 006c 0C4B     		ldr	r3, .L85+8
 1167 006e 7A68     		ldr	r2, [r7, #4]
 1168 0070 9200     		lsl	r2, r2, #2
 1169 0072 D358     		ldr	r3, [r2, r3]
 1170 0074 081C     		mov	r0, r1
 1171 0076 191C     		mov	r1, r3
 1172 0078 FFF7FEFF 		bl	__aeabi_idiv
 1173 007c 031C     		mov	r3, r0
 1174 007e 1A1C     		mov	r2, r3
 774:.\Generated_Source\PSoC4/ADC.c ****                  (ADC_countsPer10Volt[chan] / 2) : (-(ADC_countsPer10Volt[chan] / 2)) ))
 1175              		.loc 1 774 0
 1176 0080 0E23     		mov	r3, #14
 1177 0082 FB18     		add	r3, r7, r3
 1178 0084 1A80     		strh	r2, [r3]
 777:.\Generated_Source\PSoC4/ADC.c **** 
 778:.\Generated_Source\PSoC4/ADC.c ****         return( mVolts );
 1179              		.loc 1 778 0
 1180 0086 0E23     		mov	r3, #14
 1181 0088 FB18     		add	r3, r7, r3
 1182 008a 1B88     		ldrh	r3, [r3]
 1183 008c 1BB2     		sxth	r3, r3
 779:.\Generated_Source\PSoC4/ADC.c ****     }
 1184              		.loc 1 779 0
 1185 008e 181C     		mov	r0, r3
 1186 0090 BD46     		mov	sp, r7
 1187 0092 04B0     		add	sp, sp, #16
 1188              		@ sp needed
 1189 0094 80BD     		pop	{r7, pc}
 1190              	.L86:
 1191 0096 C046     		.align	2
 1192              	.L85:
 1193 0098 00000000 		.word	ADC_offset
 1194 009c 10270000 		.word	10000
 1195 00a0 00000000 		.word	ADC_countsPer10Volt
 1196              		.cfi_endproc
 1197              	.LFE18:
 1198              		.size	ADC_CountsTo_mVolts, .-ADC_CountsTo_mVolts
 1199              		.global	__aeabi_lmul
 1200              		.global	__aeabi_ldivmod
 1201              		.section	.text.ADC_CountsTo_uVolts,"ax",%progbits
 1202              		.align	2
 1203              		.global	ADC_CountsTo_uVolts
 1204              		.code	16
 1205              		.thumb_func
 1206              		.type	ADC_CountsTo_uVolts, %function
ARM GAS  C:\Users\Henny\AppData\Local\Temp\ccAaGkFp.s 			page 36


 1207              	ADC_CountsTo_uVolts:
 1208              	.LFB19:
 780:.\Generated_Source\PSoC4/ADC.c **** 
 781:.\Generated_Source\PSoC4/ADC.c **** 
 782:.\Generated_Source\PSoC4/ADC.c ****     /*******************************************************************************
 783:.\Generated_Source\PSoC4/ADC.c ****     * Function Name: ADC_CountsTo_uVolts
 784:.\Generated_Source\PSoC4/ADC.c ****     ********************************************************************************
 785:.\Generated_Source\PSoC4/ADC.c ****     *
 786:.\Generated_Source\PSoC4/ADC.c ****     * Summary:
 787:.\Generated_Source\PSoC4/ADC.c ****     *  This function converts ADC counts to micro Volts
 788:.\Generated_Source\PSoC4/ADC.c ****     *  This function is not available when left data format justification selected.
 789:.\Generated_Source\PSoC4/ADC.c ****     *
 790:.\Generated_Source\PSoC4/ADC.c ****     * Parameters:
 791:.\Generated_Source\PSoC4/ADC.c ****     *  chan: The ADC channel number.
 792:.\Generated_Source\PSoC4/ADC.c ****     *  adcCounts: Result from the ADC conversion
 793:.\Generated_Source\PSoC4/ADC.c ****     *
 794:.\Generated_Source\PSoC4/ADC.c ****     * Return:
 795:.\Generated_Source\PSoC4/ADC.c ****     *  Results in uVolts
 796:.\Generated_Source\PSoC4/ADC.c ****     *
 797:.\Generated_Source\PSoC4/ADC.c ****     * Global variables:
 798:.\Generated_Source\PSoC4/ADC.c ****     *  ADC_countsPer10Volt:  used to convert ADC counts to uVolts.
 799:.\Generated_Source\PSoC4/ADC.c ****     *  ADC_Offset:  Used as the offset while converting ADC counts
 800:.\Generated_Source\PSoC4/ADC.c ****     *   to mVolts.
 801:.\Generated_Source\PSoC4/ADC.c ****     *
 802:.\Generated_Source\PSoC4/ADC.c ****     * Theory:
 803:.\Generated_Source\PSoC4/ADC.c ****     *  Care must be taken to not exceed the maximum value for a 31 bit signed
 804:.\Generated_Source\PSoC4/ADC.c ****     *  number in the conversion to uVolts and at the same time not loose
 805:.\Generated_Source\PSoC4/ADC.c ****     *  resolution.
 806:.\Generated_Source\PSoC4/ADC.c ****     *  To convert adcCounts to microVolts it is required to be multiplied
 807:.\Generated_Source\PSoC4/ADC.c ****     *  on 10 million and later divide on gain in counts per 10V.
 808:.\Generated_Source\PSoC4/ADC.c ****     *
 809:.\Generated_Source\PSoC4/ADC.c ****     *******************************************************************************/
 810:.\Generated_Source\PSoC4/ADC.c ****     int32 ADC_CountsTo_uVolts(uint32 chan, int16 adcCounts)
 811:.\Generated_Source\PSoC4/ADC.c ****     {
 1209              		.loc 1 811 0
 1210              		.cfi_startproc
 1211 0000 B0B5     		push	{r4, r5, r7, lr}
 1212              		.cfi_def_cfa_offset 16
 1213              		.cfi_offset 4, -16
 1214              		.cfi_offset 5, -12
 1215              		.cfi_offset 7, -8
 1216              		.cfi_offset 14, -4
 1217 0002 86B0     		sub	sp, sp, #24
 1218              		.cfi_def_cfa_offset 40
 1219 0004 00AF     		add	r7, sp, #0
 1220              		.cfi_def_cfa_register 7
 1221 0006 F860     		str	r0, [r7, #12]
 1222 0008 0A1C     		mov	r2, r1
 1223 000a 0A23     		mov	r3, #10
 1224 000c FB18     		add	r3, r7, r3
 1225 000e 1A80     		strh	r2, [r3]
 812:.\Generated_Source\PSoC4/ADC.c ****         int64 uVolts;
 813:.\Generated_Source\PSoC4/ADC.c **** 
 814:.\Generated_Source\PSoC4/ADC.c ****         /* Halt CPU in debug mode if channel is out of valid range */
 815:.\Generated_Source\PSoC4/ADC.c ****         CYASSERT(chan < ADC_TOTAL_CHANNELS_NUM);
 1226              		.loc 1 815 0
 1227 0010 FB68     		ldr	r3, [r7, #12]
ARM GAS  C:\Users\Henny\AppData\Local\Temp\ccAaGkFp.s 			page 37


 1228 0012 012B     		cmp	r3, #1
 1229 0014 02D9     		bls	.L88
 1230              		.loc 1 815 0 is_stmt 0 discriminator 1
 1231 0016 0020     		mov	r0, #0
 1232 0018 FFF7FEFF 		bl	CyHalt
 1233              	.L88:
 816:.\Generated_Source\PSoC4/ADC.c **** 
 817:.\Generated_Source\PSoC4/ADC.c ****         /* Divide the adcCount when accumulate averaging mode selected */
 818:.\Generated_Source\PSoC4/ADC.c ****         #if(ADC_DEFAULT_AVG_MODE == ADC__ACCUMULATE)
 819:.\Generated_Source\PSoC4/ADC.c ****             if((ADC_channelsConfig[chan] & ADC_AVERAGING_EN) != 0u)
 820:.\Generated_Source\PSoC4/ADC.c ****             {
 821:.\Generated_Source\PSoC4/ADC.c ****                 adcCounts /= ADC_DEFAULT_AVG_SAMPLES_DIV;
 822:.\Generated_Source\PSoC4/ADC.c ****             }
 823:.\Generated_Source\PSoC4/ADC.c ****         #endif /* ADC_DEFAULT_AVG_MODE == ADC__ACCUMULATE */
 824:.\Generated_Source\PSoC4/ADC.c **** 
 825:.\Generated_Source\PSoC4/ADC.c ****         /* Subtract ADC offset */
 826:.\Generated_Source\PSoC4/ADC.c ****         adcCounts -= ADC_offset[chan];
 1234              		.loc 1 826 0 is_stmt 1
 1235 001c 194B     		ldr	r3, .L90
 1236 001e FA68     		ldr	r2, [r7, #12]
 1237 0020 5200     		lsl	r2, r2, #1
 1238 0022 D35A     		ldrh	r3, [r2, r3]
 1239 0024 99B2     		uxth	r1, r3
 1240 0026 0A23     		mov	r3, #10
 1241 0028 FB18     		add	r3, r7, r3
 1242 002a 1A88     		ldrh	r2, [r3]
 1243 002c 8BB2     		uxth	r3, r1
 1244 002e D31A     		sub	r3, r2, r3
 1245 0030 9AB2     		uxth	r2, r3
 1246 0032 0A23     		mov	r3, #10
 1247 0034 FB18     		add	r3, r7, r3
 1248 0036 1A80     		strh	r2, [r3]
 827:.\Generated_Source\PSoC4/ADC.c **** 
 828:.\Generated_Source\PSoC4/ADC.c ****         uVolts = ((int64)adcCounts * ADC_10UV_COUNTS) / ADC_countsPer10Volt[chan];
 1249              		.loc 1 828 0
 1250 0038 0A23     		mov	r3, #10
 1251 003a FB18     		add	r3, r7, r3
 1252 003c 1B88     		ldrh	r3, [r3]
 1253 003e 1BB2     		sxth	r3, r3
 1254 0040 3B60     		str	r3, [r7]
 1255 0042 DB17     		asr	r3, r3, #31
 1256 0044 7B60     		str	r3, [r7, #4]
 1257 0046 3868     		ldr	r0, [r7]
 1258 0048 7968     		ldr	r1, [r7, #4]
 1259 004a 0F4A     		ldr	r2, .L90+4
 1260 004c 0023     		mov	r3, #0
 1261 004e FFF7FEFF 		bl	__aeabi_lmul
 1262 0052 021C     		mov	r2, r0
 1263 0054 0B1C     		mov	r3, r1
 1264 0056 101C     		mov	r0, r2
 1265 0058 191C     		mov	r1, r3
 1266 005a 0C4B     		ldr	r3, .L90+8
 1267 005c FA68     		ldr	r2, [r7, #12]
 1268 005e 9200     		lsl	r2, r2, #2
 1269 0060 D358     		ldr	r3, [r2, r3]
 1270 0062 1C1C     		mov	r4, r3
 1271 0064 DB17     		asr	r3, r3, #31
ARM GAS  C:\Users\Henny\AppData\Local\Temp\ccAaGkFp.s 			page 38


 1272 0066 1D1C     		mov	r5, r3
 1273 0068 221C     		mov	r2, r4
 1274 006a 2B1C     		mov	r3, r5
 1275 006c FFF7FEFF 		bl	__aeabi_ldivmod
 1276 0070 031C     		mov	r3, r0
 1277 0072 0C1C     		mov	r4, r1
 1278 0074 3B61     		str	r3, [r7, #16]
 1279 0076 7C61     		str	r4, [r7, #20]
 829:.\Generated_Source\PSoC4/ADC.c **** 
 830:.\Generated_Source\PSoC4/ADC.c ****         return( (int32)uVolts );
 1280              		.loc 1 830 0
 1281 0078 3B69     		ldr	r3, [r7, #16]
 831:.\Generated_Source\PSoC4/ADC.c ****     }
 1282              		.loc 1 831 0
 1283 007a 181C     		mov	r0, r3
 1284 007c BD46     		mov	sp, r7
 1285 007e 06B0     		add	sp, sp, #24
 1286              		@ sp needed
 1287 0080 B0BD     		pop	{r4, r5, r7, pc}
 1288              	.L91:
 1289 0082 C046     		.align	2
 1290              	.L90:
 1291 0084 00000000 		.word	ADC_offset
 1292 0088 80969800 		.word	10000000
 1293 008c 00000000 		.word	ADC_countsPer10Volt
 1294              		.cfi_endproc
 1295              	.LFE19:
 1296              		.size	ADC_CountsTo_uVolts, .-ADC_CountsTo_uVolts
 1297              		.global	__aeabi_i2f
 1298              		.global	__aeabi_fmul
 1299              		.global	__aeabi_fdiv
 1300              		.section	.text.ADC_CountsTo_Volts,"ax",%progbits
 1301              		.align	2
 1302              		.global	ADC_CountsTo_Volts
 1303              		.code	16
 1304              		.thumb_func
 1305              		.type	ADC_CountsTo_Volts, %function
 1306              	ADC_CountsTo_Volts:
 1307              	.LFB20:
 832:.\Generated_Source\PSoC4/ADC.c **** 
 833:.\Generated_Source\PSoC4/ADC.c **** 
 834:.\Generated_Source\PSoC4/ADC.c ****     /*******************************************************************************
 835:.\Generated_Source\PSoC4/ADC.c ****     * Function Name: ADC_CountsTo_Volts
 836:.\Generated_Source\PSoC4/ADC.c ****     ********************************************************************************
 837:.\Generated_Source\PSoC4/ADC.c ****     *
 838:.\Generated_Source\PSoC4/ADC.c ****     * Summary:
 839:.\Generated_Source\PSoC4/ADC.c ****     *  Converts the ADC output to Volts as a floating point number.
 840:.\Generated_Source\PSoC4/ADC.c ****     *  This function is not available when left data format justification selected.
 841:.\Generated_Source\PSoC4/ADC.c ****     *
 842:.\Generated_Source\PSoC4/ADC.c ****     * Parameters:
 843:.\Generated_Source\PSoC4/ADC.c ****     *  chan: The ADC channel number.
 844:.\Generated_Source\PSoC4/ADC.c ****     *  Result from the ADC conversion
 845:.\Generated_Source\PSoC4/ADC.c ****     *
 846:.\Generated_Source\PSoC4/ADC.c ****     * Return:
 847:.\Generated_Source\PSoC4/ADC.c ****     *  Results in Volts
 848:.\Generated_Source\PSoC4/ADC.c ****     *
 849:.\Generated_Source\PSoC4/ADC.c ****     * Global variables:
ARM GAS  C:\Users\Henny\AppData\Local\Temp\ccAaGkFp.s 			page 39


 850:.\Generated_Source\PSoC4/ADC.c ****     *  ADC_countsPer10Volt:  used to convert ADC counts to Volts.
 851:.\Generated_Source\PSoC4/ADC.c ****     *  ADC_Offset:  Used as the offset while converting ADC counts
 852:.\Generated_Source\PSoC4/ADC.c ****     *   to mVolts.
 853:.\Generated_Source\PSoC4/ADC.c ****     *
 854:.\Generated_Source\PSoC4/ADC.c ****     *******************************************************************************/
 855:.\Generated_Source\PSoC4/ADC.c ****     float32 ADC_CountsTo_Volts(uint32 chan, int16 adcCounts)
 856:.\Generated_Source\PSoC4/ADC.c ****     {
 1308              		.loc 1 856 0
 1309              		.cfi_startproc
 1310 0000 90B5     		push	{r4, r7, lr}
 1311              		.cfi_def_cfa_offset 12
 1312              		.cfi_offset 4, -12
 1313              		.cfi_offset 7, -8
 1314              		.cfi_offset 14, -4
 1315 0002 85B0     		sub	sp, sp, #20
 1316              		.cfi_def_cfa_offset 32
 1317 0004 00AF     		add	r7, sp, #0
 1318              		.cfi_def_cfa_register 7
 1319 0006 7860     		str	r0, [r7, #4]
 1320 0008 0A1C     		mov	r2, r1
 1321 000a BB1C     		add	r3, r7, #2
 1322 000c 1A80     		strh	r2, [r3]
 857:.\Generated_Source\PSoC4/ADC.c ****         float32 volts;
 858:.\Generated_Source\PSoC4/ADC.c **** 
 859:.\Generated_Source\PSoC4/ADC.c ****         /* Halt CPU in debug mode if channel is out of valid range */
 860:.\Generated_Source\PSoC4/ADC.c ****         CYASSERT(chan < ADC_TOTAL_CHANNELS_NUM);
 1323              		.loc 1 860 0
 1324 000e 7B68     		ldr	r3, [r7, #4]
 1325 0010 012B     		cmp	r3, #1
 1326 0012 02D9     		bls	.L93
 1327              		.loc 1 860 0 is_stmt 0 discriminator 1
 1328 0014 0020     		mov	r0, #0
 1329 0016 FFF7FEFF 		bl	CyHalt
 1330              	.L93:
 861:.\Generated_Source\PSoC4/ADC.c **** 
 862:.\Generated_Source\PSoC4/ADC.c ****         /* Divide the adcCount when accumulate averaging mode selected */
 863:.\Generated_Source\PSoC4/ADC.c ****         #if(ADC_DEFAULT_AVG_MODE == ADC__ACCUMULATE)
 864:.\Generated_Source\PSoC4/ADC.c ****             if((ADC_channelsConfig[chan] & ADC_AVERAGING_EN) != 0u)
 865:.\Generated_Source\PSoC4/ADC.c ****             {
 866:.\Generated_Source\PSoC4/ADC.c ****                 adcCounts /= ADC_DEFAULT_AVG_SAMPLES_DIV;
 867:.\Generated_Source\PSoC4/ADC.c ****             }
 868:.\Generated_Source\PSoC4/ADC.c ****         #endif /* ADC_DEFAULT_AVG_MODE == ADC__ACCUMULATE */
 869:.\Generated_Source\PSoC4/ADC.c **** 
 870:.\Generated_Source\PSoC4/ADC.c ****         /* Subtract ADC offset */
 871:.\Generated_Source\PSoC4/ADC.c ****         adcCounts -= ADC_offset[chan];
 1331              		.loc 1 871 0 is_stmt 1
 1332 001a 164B     		ldr	r3, .L95
 1333 001c 7A68     		ldr	r2, [r7, #4]
 1334 001e 5200     		lsl	r2, r2, #1
 1335 0020 D35A     		ldrh	r3, [r2, r3]
 1336 0022 99B2     		uxth	r1, r3
 1337 0024 BB1C     		add	r3, r7, #2
 1338 0026 1A88     		ldrh	r2, [r3]
 1339 0028 8BB2     		uxth	r3, r1
 1340 002a D31A     		sub	r3, r2, r3
 1341 002c 9AB2     		uxth	r2, r3
 1342 002e BB1C     		add	r3, r7, #2
ARM GAS  C:\Users\Henny\AppData\Local\Temp\ccAaGkFp.s 			page 40


 1343 0030 1A80     		strh	r2, [r3]
 872:.\Generated_Source\PSoC4/ADC.c **** 
 873:.\Generated_Source\PSoC4/ADC.c ****         volts = ((float32)adcCounts * ADC_10V_COUNTS) / (float32)ADC_countsPer10Volt[chan];
 1344              		.loc 1 873 0
 1345 0032 BB1C     		add	r3, r7, #2
 1346 0034 0022     		mov	r2, #0
 1347 0036 9B5E     		ldrsh	r3, [r3, r2]
 1348 0038 181C     		mov	r0, r3
 1349 003a FFF7FEFF 		bl	__aeabi_i2f
 1350 003e 031C     		add	r3, r0, #0
 1351 0040 181C     		add	r0, r3, #0
 1352 0042 0D49     		ldr	r1, .L95+4
 1353 0044 FFF7FEFF 		bl	__aeabi_fmul
 1354 0048 031C     		add	r3, r0, #0
 1355 004a 1C1C     		add	r4, r3, #0
 1356 004c 0B4B     		ldr	r3, .L95+8
 1357 004e 7A68     		ldr	r2, [r7, #4]
 1358 0050 9200     		lsl	r2, r2, #2
 1359 0052 D358     		ldr	r3, [r2, r3]
 1360 0054 181C     		mov	r0, r3
 1361 0056 FFF7FEFF 		bl	__aeabi_i2f
 1362 005a 031C     		add	r3, r0, #0
 1363 005c 201C     		add	r0, r4, #0
 1364 005e 191C     		add	r1, r3, #0
 1365 0060 FFF7FEFF 		bl	__aeabi_fdiv
 1366 0064 031C     		add	r3, r0, #0
 1367 0066 FB60     		str	r3, [r7, #12]
 874:.\Generated_Source\PSoC4/ADC.c **** 
 875:.\Generated_Source\PSoC4/ADC.c ****         return( volts );
 1368              		.loc 1 875 0
 1369 0068 FB68     		ldr	r3, [r7, #12]
 876:.\Generated_Source\PSoC4/ADC.c ****     }
 1370              		.loc 1 876 0
 1371 006a 181C     		add	r0, r3, #0
 1372 006c BD46     		mov	sp, r7
 1373 006e 05B0     		add	sp, sp, #20
 1374              		@ sp needed
 1375 0070 90BD     		pop	{r4, r7, pc}
 1376              	.L96:
 1377 0072 C046     		.align	2
 1378              	.L95:
 1379 0074 00000000 		.word	ADC_offset
 1380 0078 00002041 		.word	1092616192
 1381 007c 00000000 		.word	ADC_countsPer10Volt
 1382              		.cfi_endproc
 1383              	.LFE20:
 1384              		.size	ADC_CountsTo_Volts, .-ADC_CountsTo_Volts
 1385              		.section	.rodata
 1386              		.align	2
 1387              		.type	ADC_InputsPlacement.4770, %object
 1388              		.size	ADC_InputsPlacement.4770, 2
 1389              	ADC_InputsPlacement.4770:
 1390 0008 00       		.byte	0
 1391 0009 70       		.byte	112
 1392 000a 0000     		.text
 1393              	.Letext0:
 1394              		.file 2 ".\\Generated_Source\\PSoC4\\cytypes.h"
ARM GAS  C:\Users\Henny\AppData\Local\Temp\ccAaGkFp.s 			page 41

