ARM GAS  C:\Users\Henny\AppData\Local\Temp\ccoPzryc.s 			page 1


   1              		.cpu cortex-m0
   2              		.fpu softvfp
   3              		.eabi_attribute 20, 1
   4              		.eabi_attribute 21, 1
   5              		.eabi_attribute 23, 3
   6              		.eabi_attribute 24, 1
   7              		.eabi_attribute 25, 1
   8              		.eabi_attribute 26, 1
   9              		.eabi_attribute 30, 6
  10              		.eabi_attribute 34, 0
  11              		.eabi_attribute 18, 4
  12              		.code	16
  13              		.file	"bas.c"
  14              		.text
  15              	.Ltext0:
  16              		.cfi_sections	.debug_frame
  17              		.global	batterySimulationNotify
  18              		.bss
  19              		.align	1
  20              		.type	batterySimulationNotify, %object
  21              		.size	batterySimulationNotify, 2
  22              	batterySimulationNotify:
  23 0000 0000     		.space	2
  24              		.global	batteryMeasureNotify
  25              		.align	1
  26              		.type	batteryMeasureNotify, %object
  27              		.size	batteryMeasureNotify, 2
  28              	batteryMeasureNotify:
  29 0002 0000     		.space	2
  30              		.section	.rodata
  31              		.align	2
  32              	.LC0:
  33 0000 42415320 		.ascii	"BAS event: %lx, \000"
  33      6576656E 
  33      743A2025 
  33      6C782C20 
  33      00
  34 0011 000000   		.align	2
  35              	.LC3:
  36 0014 4359424C 		.ascii	"CYBLE_EVT_BASS_NOTIFICATION_ENABLED: %x \015\012\000"
  36      455F4556 
  36      545F4241 
  36      53535F4E 
  36      4F544946 
  37 003f 00       		.align	2
  38              	.LC7:
  39 0040 4359424C 		.ascii	"CYBLE_EVT_BASS_NOTIFICATION_DISABLED: %x \015\012\000"
  39      455F4556 
  39      545F4241 
  39      53535F4E 
  39      4F544946 
  40              		.align	2
  41              	.LC9:
  42 006c 4E6F7420 		.ascii	"Not supported event\015\000"
  42      73757070 
  42      6F727465 
  42      64206576 
ARM GAS  C:\Users\Henny\AppData\Local\Temp\ccoPzryc.s 			page 2


  42      656E740D 
  43              		.section	.text.BasCallBack,"ax",%progbits
  44              		.align	2
  45              		.global	BasCallBack
  46              		.code	16
  47              		.thumb_func
  48              		.type	BasCallBack, %function
  49              	BasCallBack:
  50              	.LFB37:
  51              		.file 1 ".\\bas.c"
   1:.\bas.c       **** /*******************************************************************************
   2:.\bas.c       **** * File Name: bas.c
   3:.\bas.c       **** *
   4:.\bas.c       **** * Version: 1.0
   5:.\bas.c       **** *
   6:.\bas.c       **** * Description:
   7:.\bas.c       **** *  This file contains BAS callback handler function.
   8:.\bas.c       **** *
   9:.\bas.c       **** * Hardware Dependency:
  10:.\bas.c       **** *  CY8CKIT-042 BLE
  11:.\bas.c       **** * 
  12:.\bas.c       **** ********************************************************************************
  13:.\bas.c       **** * Copyright 2015, Cypress Semiconductor Corporation.  All rights reserved.
  14:.\bas.c       **** * You may use this file only in accordance with the license, terms, conditions,
  15:.\bas.c       **** * disclaimers, and limitations in the end user license agreement accompanying
  16:.\bas.c       **** * the software package with which this file was provided.
  17:.\bas.c       **** *******************************************************************************/
  18:.\bas.c       **** 
  19:.\bas.c       **** #include "common.h"
  20:.\bas.c       **** #include "bas.h"
  21:.\bas.c       **** 
  22:.\bas.c       **** uint16 batterySimulationNotify = 0u;
  23:.\bas.c       **** uint16 batteryMeasureNotify = 0u;
  24:.\bas.c       **** 
  25:.\bas.c       **** 
  26:.\bas.c       **** /*******************************************************************************
  27:.\bas.c       **** * Function Name: BasCallBack()
  28:.\bas.c       **** ********************************************************************************
  29:.\bas.c       **** *
  30:.\bas.c       **** * Summary:
  31:.\bas.c       **** *   This is an event callback function to receive service specific events from 
  32:.\bas.c       **** *   Battery Service.
  33:.\bas.c       **** *
  34:.\bas.c       **** * Parameters:
  35:.\bas.c       **** *  event - the event code
  36:.\bas.c       **** *  *eventParam - the event parameters
  37:.\bas.c       **** *
  38:.\bas.c       **** * Return:
  39:.\bas.c       **** *  None.
  40:.\bas.c       **** *
  41:.\bas.c       **** ********************************************************************************/
  42:.\bas.c       **** void BasCallBack(uint32 event, void *eventParam)
  43:.\bas.c       **** {
  52              		.loc 1 43 0
  53              		.cfi_startproc
  54 0000 80B5     		push	{r7, lr}
  55              		.cfi_def_cfa_offset 8
ARM GAS  C:\Users\Henny\AppData\Local\Temp\ccoPzryc.s 			page 3


  56              		.cfi_offset 7, -8
  57              		.cfi_offset 14, -4
  58 0002 84B0     		sub	sp, sp, #16
  59              		.cfi_def_cfa_offset 24
  60 0004 00AF     		add	r7, sp, #0
  61              		.cfi_def_cfa_register 7
  62 0006 7860     		str	r0, [r7, #4]
  63 0008 3960     		str	r1, [r7]
  44:.\bas.c       ****     uint8 locServiceIndex;
  45:.\bas.c       ****     
  46:.\bas.c       ****     locServiceIndex = ((CYBLE_BAS_CHAR_VALUE_T *)eventParam)->serviceIndex;
  64              		.loc 1 46 0
  65 000a 0F23     		mov	r3, #15
  66 000c FB18     		add	r3, r7, r3
  67 000e 3A68     		ldr	r2, [r7]
  68 0010 9278     		ldrb	r2, [r2, #2]
  69 0012 1A70     		strb	r2, [r3]
  47:.\bas.c       ****     DBG_PRINTF("BAS event: %lx, ", event);
  70              		.loc 1 47 0
  71 0014 264A     		ldr	r2, .L16
  72 0016 7B68     		ldr	r3, [r7, #4]
  73 0018 101C     		mov	r0, r2
  74 001a 191C     		mov	r1, r3
  75 001c FFF7FEFF 		bl	printf
  48:.\bas.c       ****     
  49:.\bas.c       ****     switch(event)
  76              		.loc 1 49 0
  77 0020 7B68     		ldr	r3, [r7, #4]
  78 0022 243B     		sub	r3, r3, #36
  79 0024 FF3B     		sub	r3, r3, #255
  80 0026 052B     		cmp	r3, #5
  81 0028 38D8     		bhi	.L2
  82 002a 9A00     		lsl	r2, r3, #2
  83 002c 214B     		ldr	r3, .L16+4
  84 002e D318     		add	r3, r2, r3
  85 0030 1B68     		ldr	r3, [r3]
  86 0032 9F46     		mov	pc, r3
  87              		.section	.rodata
  88 0081 000000   		.align	2
  89              	.L4:
  90 0084 34000000 		.word	.L3
  91 0088 68000000 		.word	.L5
  92 008c A8000000 		.word	.L15
  93 0090 A8000000 		.word	.L15
  94 0094 A8000000 		.word	.L15
  95 0098 A8000000 		.word	.L15
  96              		.section	.text.BasCallBack
  97              	.L3:
  50:.\bas.c       ****     {
  51:.\bas.c       ****         case CYBLE_EVT_BASS_NOTIFICATION_ENABLED:
  52:.\bas.c       ****             DBG_PRINTF("CYBLE_EVT_BASS_NOTIFICATION_ENABLED: %x \r\n", locServiceIndex);
  98              		.loc 1 52 0
  99 0034 0F23     		mov	r3, #15
 100 0036 FB18     		add	r3, r7, r3
 101 0038 1B78     		ldrb	r3, [r3]
 102 003a 1F4A     		ldr	r2, .L16+8
 103 003c 101C     		mov	r0, r2
ARM GAS  C:\Users\Henny\AppData\Local\Temp\ccoPzryc.s 			page 4


 104 003e 191C     		mov	r1, r3
 105 0040 FFF7FEFF 		bl	printf
  53:.\bas.c       ****             if(BAS_SERVICE_SIMULATE == locServiceIndex)
 106              		.loc 1 53 0
 107 0044 0F23     		mov	r3, #15
 108 0046 FB18     		add	r3, r7, r3
 109 0048 1B78     		ldrb	r3, [r3]
 110 004a 002B     		cmp	r3, #0
 111 004c 02D1     		bne	.L10
  54:.\bas.c       ****             {
  55:.\bas.c       ****                 batterySimulationNotify = ENABLED;
 112              		.loc 1 55 0
 113 004e 1B4B     		ldr	r3, .L16+12
 114 0050 0122     		mov	r2, #1
 115 0052 1A80     		strh	r2, [r3]
 116              	.L10:
  56:.\bas.c       ****             }
  57:.\bas.c       ****             if(BAS_SERVICE_MEASURE == locServiceIndex)
 117              		.loc 1 57 0
 118 0054 0F23     		mov	r3, #15
 119 0056 FB18     		add	r3, r7, r3
 120 0058 1B78     		ldrb	r3, [r3]
 121 005a 002B     		cmp	r3, #0
 122 005c 03D1     		bne	.L11
  58:.\bas.c       ****             {
  59:.\bas.c       ****                 batteryMeasureNotify = ENABLED;
 123              		.loc 1 59 0
 124 005e 184B     		ldr	r3, .L16+16
 125 0060 0122     		mov	r2, #1
 126 0062 1A80     		strh	r2, [r3]
  60:.\bas.c       ****             }
  61:.\bas.c       ****             break;
 127              		.loc 1 61 0
 128 0064 21E0     		b	.L1
 129              	.L11:
 130 0066 20E0     		b	.L1
 131              	.L5:
  62:.\bas.c       ****                 
  63:.\bas.c       ****         case CYBLE_EVT_BASS_NOTIFICATION_DISABLED:
  64:.\bas.c       ****             DBG_PRINTF("CYBLE_EVT_BASS_NOTIFICATION_DISABLED: %x \r\n", locServiceIndex);
 132              		.loc 1 64 0
 133 0068 0F23     		mov	r3, #15
 134 006a FB18     		add	r3, r7, r3
 135 006c 1B78     		ldrb	r3, [r3]
 136 006e 154A     		ldr	r2, .L16+20
 137 0070 101C     		mov	r0, r2
 138 0072 191C     		mov	r1, r3
 139 0074 FFF7FEFF 		bl	printf
  65:.\bas.c       ****             if(BAS_SERVICE_SIMULATE == locServiceIndex)
 140              		.loc 1 65 0
 141 0078 0F23     		mov	r3, #15
 142 007a FB18     		add	r3, r7, r3
 143 007c 1B78     		ldrb	r3, [r3]
 144 007e 002B     		cmp	r3, #0
 145 0080 02D1     		bne	.L13
  66:.\bas.c       ****             {
  67:.\bas.c       ****                 batterySimulationNotify = DISABLED;
ARM GAS  C:\Users\Henny\AppData\Local\Temp\ccoPzryc.s 			page 5


 146              		.loc 1 67 0
 147 0082 0E4B     		ldr	r3, .L16+12
 148 0084 0022     		mov	r2, #0
 149 0086 1A80     		strh	r2, [r3]
 150              	.L13:
  68:.\bas.c       ****             }
  69:.\bas.c       ****             if(BAS_SERVICE_MEASURE == locServiceIndex)
 151              		.loc 1 69 0
 152 0088 0F23     		mov	r3, #15
 153 008a FB18     		add	r3, r7, r3
 154 008c 1B78     		ldrb	r3, [r3]
 155 008e 002B     		cmp	r3, #0
 156 0090 03D1     		bne	.L14
  70:.\bas.c       ****             {
  71:.\bas.c       ****                 batteryMeasureNotify = DISABLED;
 157              		.loc 1 71 0
 158 0092 0B4B     		ldr	r3, .L16+16
 159 0094 0022     		mov	r2, #0
 160 0096 1A80     		strh	r2, [r3]
  72:.\bas.c       ****             }
  73:.\bas.c       ****             break;
 161              		.loc 1 73 0
 162 0098 07E0     		b	.L1
 163              	.L14:
 164 009a 06E0     		b	.L1
 165              	.L2:
  74:.\bas.c       ****         case CYBLE_EVT_BASC_NOTIFICATION:
  75:.\bas.c       ****             break;
  76:.\bas.c       ****         case CYBLE_EVT_BASC_READ_CHAR_RESPONSE:
  77:.\bas.c       ****             break;
  78:.\bas.c       ****         case CYBLE_EVT_BASC_READ_DESCR_RESPONSE:
  79:.\bas.c       ****             break;
  80:.\bas.c       ****         case CYBLE_EVT_BASC_WRITE_DESCR_RESPONSE:
  81:.\bas.c       ****             break;
  82:.\bas.c       **** 		default:
  83:.\bas.c       ****             DBG_PRINTF("Not supported event\r\n");
 166              		.loc 1 83 0
 167 009c 0A4B     		ldr	r3, .L16+24
 168 009e 181C     		mov	r0, r3
 169 00a0 FFF7FEFF 		bl	puts
  84:.\bas.c       **** 			break;
 170              		.loc 1 84 0
 171 00a4 C046     		mov	r8, r8
 172 00a6 00E0     		b	.L1
 173              	.L15:
  81:.\bas.c       **** 		default:
 174              		.loc 1 81 0
 175 00a8 C046     		mov	r8, r8
 176              	.L1:
  85:.\bas.c       ****     }
  86:.\bas.c       **** }
 177              		.loc 1 86 0
 178 00aa BD46     		mov	sp, r7
 179 00ac 04B0     		add	sp, sp, #16
 180              		@ sp needed
 181 00ae 80BD     		pop	{r7, pc}
 182              	.L17:
ARM GAS  C:\Users\Henny\AppData\Local\Temp\ccoPzryc.s 			page 6


 183              		.align	2
 184              	.L16:
 185 00b0 00000000 		.word	.LC0
 186 00b4 84000000 		.word	.L4
 187 00b8 14000000 		.word	.LC3
 188 00bc 00000000 		.word	batterySimulationNotify
 189 00c0 00000000 		.word	batteryMeasureNotify
 190 00c4 40000000 		.word	.LC7
 191 00c8 6C000000 		.word	.LC9
 192              		.cfi_endproc
 193              	.LFE37:
 194              		.size	BasCallBack, .-BasCallBack
 195              		.global	__aeabi_idiv
 196              		.section	.rodata
 197              		.align	2
 198              	.LC14:
 199 009c 41504920 		.ascii	"API Error: %x \015\012\000"
 199      4572726F 
 199      723A2025 
 199      78200D0A 
 199      00
 200 00ad 000000   		.align	2
 201              	.LC16:
 202 00b0 4D656173 		.ascii	"MeasureBatteryLevelUpdate: %d \015\012\000"
 202      75726542 
 202      61747465 
 202      72794C65 
 202      76656C55 
 203              		.section	.text.MeasureBattery,"ax",%progbits
 204              		.align	2
 205              		.global	MeasureBattery
 206              		.code	16
 207              		.thumb_func
 208              		.type	MeasureBattery, %function
 209              	MeasureBattery:
 210              	.LFB38:
  87:.\bas.c       **** 
  88:.\bas.c       **** 
  89:.\bas.c       **** /*******************************************************************************
  90:.\bas.c       **** * Function Name: MeasureBattery()
  91:.\bas.c       **** ********************************************************************************
  92:.\bas.c       **** *
  93:.\bas.c       **** * Summary:
  94:.\bas.c       **** *   This function measures the battery voltage and sends it to the client.
  95:.\bas.c       **** *
  96:.\bas.c       **** *******************************************************************************/
  97:.\bas.c       **** void MeasureBattery(void)
  98:.\bas.c       **** {
 211              		.loc 1 98 0
 212              		.cfi_startproc
 213 0000 90B5     		push	{r4, r7, lr}
 214              		.cfi_def_cfa_offset 12
 215              		.cfi_offset 4, -12
 216              		.cfi_offset 7, -8
 217              		.cfi_offset 14, -4
 218 0002 89B0     		sub	sp, sp, #36
 219              		.cfi_def_cfa_offset 48
ARM GAS  C:\Users\Henny\AppData\Local\Temp\ccoPzryc.s 			page 7


 220 0004 02AF     		add	r7, sp, #8
 221              		.cfi_def_cfa 7, 40
  99:.\bas.c       **** 	int16 adcResult;
 100:.\bas.c       ****     int32 mvolts;
 101:.\bas.c       **** 	uint32 sarControlReg;
 102:.\bas.c       ****     uint8 batteryLevel;
 103:.\bas.c       ****     CYBLE_API_RESULT_T apiResult;
 104:.\bas.c       ****     
 105:.\bas.c       ****     static uint32 batteryTimer = BATTERY_TIMEOUT;
 106:.\bas.c       ****     
 107:.\bas.c       ****     if(--batteryTimer == 0u) 
 222              		.loc 1 107 0
 223 0006 664B     		ldr	r3, .L29
 224 0008 1B68     		ldr	r3, [r3]
 225 000a 5A1E     		sub	r2, r3, #1
 226 000c 644B     		ldr	r3, .L29
 227 000e 1A60     		str	r2, [r3]
 228 0010 634B     		ldr	r3, .L29
 229 0012 1B68     		ldr	r3, [r3]
 230 0014 002B     		cmp	r3, #0
 231 0016 00D0     		beq	.LCB159
 232 0018 BFE0     		b	.L18	@long jump
 233              	.LCB159:
 108:.\bas.c       ****     {
 109:.\bas.c       ****         batteryTimer = BATTERY_TIMEOUT;
 234              		.loc 1 109 0
 235 001a 614B     		ldr	r3, .L29
 236 001c 0322     		mov	r2, #3
 237 001e 1A60     		str	r2, [r3]
 110:.\bas.c       ****         
 111:.\bas.c       ****     	/* Set the reference to 1.024V and enable reference bypass */
 112:.\bas.c       ****     	sarControlReg = ADC_SAR_CTRL_REG & ~ADC_VREF_MASK;
 238              		.loc 1 112 0
 239 0020 604B     		ldr	r3, .L29+4
 240 0022 1B68     		ldr	r3, [r3]
 241 0024 F022     		mov	r2, #240
 242 0026 9343     		bic	r3, r2
 243 0028 3B61     		str	r3, [r7, #16]
 113:.\bas.c       ****     	ADC_SAR_CTRL_REG = sarControlReg | ADC_VREF_INTERNAL1024BYPASSED;
 244              		.loc 1 113 0
 245 002a 5E4B     		ldr	r3, .L29+4
 246 002c 3A69     		ldr	r2, [r7, #16]
 247 002e C021     		mov	r1, #192
 248 0030 0A43     		orr	r2, r1
 249 0032 1A60     		str	r2, [r3]
 114:.\bas.c       ****     	
 115:.\bas.c       ****     	/* 25 ms delay for reference capacitor to charge */
 116:.\bas.c       ****     	CyDelay(25u);             
 250              		.loc 1 116 0
 251 0034 1920     		mov	r0, #25
 252 0036 FFF7FEFF 		bl	CyDelay
 117:.\bas.c       ****     	
 118:.\bas.c       ****     	/* Set the reference to VDD and disable reference bypass */
 119:.\bas.c       ****     	sarControlReg = ADC_SAR_CTRL_REG & ~ADC_VREF_MASK;
 253              		.loc 1 119 0
 254 003a 5A4B     		ldr	r3, .L29+4
 255 003c 1B68     		ldr	r3, [r3]
ARM GAS  C:\Users\Henny\AppData\Local\Temp\ccoPzryc.s 			page 8


 256 003e F022     		mov	r2, #240
 257 0040 9343     		bic	r3, r2
 258 0042 3B61     		str	r3, [r7, #16]
 120:.\bas.c       ****     	ADC_SAR_CTRL_REG = sarControlReg | ADC_VREF_VDDA;
 259              		.loc 1 120 0
 260 0044 574B     		ldr	r3, .L29+4
 261 0046 3A69     		ldr	r2, [r7, #16]
 262 0048 7021     		mov	r1, #112
 263 004a 0A43     		orr	r2, r1
 264 004c 1A60     		str	r2, [r3]
 121:.\bas.c       **** 
 122:.\bas.c       ****     	/* Perform a measurement. Store this value in Vref. */
 123:.\bas.c       ****     	CyDelay(1u);
 265              		.loc 1 123 0
 266 004e 0120     		mov	r0, #1
 267 0050 FFF7FEFF 		bl	CyDelay
 124:.\bas.c       ****     	ADC_StartConvert();
 268              		.loc 1 124 0
 269 0054 FFF7FEFF 		bl	ADC_StartConvert
 125:.\bas.c       ****     	ADC_IsEndConversion(ADC_WAIT_FOR_RESULT);
 270              		.loc 1 125 0
 271 0058 0220     		mov	r0, #2
 272 005a FFF7FEFF 		bl	ADC_IsEndConversion
 126:.\bas.c       **** 
 127:.\bas.c       ****     	/* Set the reference to 1.024V and enable reference bypass */
 128:.\bas.c       ****     	sarControlReg = ADC_SAR_CTRL_REG & ~ADC_VREF_MASK;
 273              		.loc 1 128 0
 274 005e 514B     		ldr	r3, .L29+4
 275 0060 1B68     		ldr	r3, [r3]
 276 0062 F022     		mov	r2, #240
 277 0064 9343     		bic	r3, r2
 278 0066 3B61     		str	r3, [r7, #16]
 129:.\bas.c       ****     	ADC_SAR_CTRL_REG = sarControlReg | ADC_VREF_INTERNAL1024BYPASSED;
 279              		.loc 1 129 0
 280 0068 4E4B     		ldr	r3, .L29+4
 281 006a 3A69     		ldr	r2, [r7, #16]
 282 006c C021     		mov	r1, #192
 283 006e 0A43     		orr	r2, r1
 284 0070 1A60     		str	r2, [r3]
 130:.\bas.c       ****         
 131:.\bas.c       ****         adcResult = ADC_GetResult16(ADC_BATTERY_CHANNEL);
 285              		.loc 1 131 0
 286 0072 0E23     		mov	r3, #14
 287 0074 FC18     		add	r4, r7, r3
 288 0076 0020     		mov	r0, #0
 289 0078 FFF7FEFF 		bl	ADC_GetResult16
 290 007c 031C     		mov	r3, r0
 291 007e 2380     		strh	r3, [r4]
 132:.\bas.c       ****     	/* Calculate input voltage by using ratio of ADC counts from reference
 133:.\bas.c       ****     	*  and ADC Full Scale counts. 
 134:.\bas.c       ****         */
 135:.\bas.c       ****     	mvolts = (1024 * 2048) / adcResult;
 292              		.loc 1 135 0
 293 0080 0E23     		mov	r3, #14
 294 0082 FB18     		add	r3, r7, r3
 295 0084 0022     		mov	r2, #0
 296 0086 9A5E     		ldrsh	r2, [r3, r2]
ARM GAS  C:\Users\Henny\AppData\Local\Temp\ccoPzryc.s 			page 9


 297 0088 8023     		mov	r3, #128
 298 008a 9803     		lsl	r0, r3, #14
 299 008c 111C     		mov	r1, r2
 300 008e FFF7FEFF 		bl	__aeabi_idiv
 301 0092 031C     		mov	r3, r0
 302 0094 BB60     		str	r3, [r7, #8]
 136:.\bas.c       ****         
 137:.\bas.c       ****         /* Convert battery level voltage to percentage using linear approximation
 138:.\bas.c       ****         *  divided to two sections according to typical performance of 
 139:.\bas.c       ****         *  CR2033 battery specification:
 140:.\bas.c       ****         *  3V - 100%
 141:.\bas.c       ****         *  2.8V - 29%
 142:.\bas.c       ****         *  2.0V - 0%
 143:.\bas.c       ****         */
 144:.\bas.c       ****         if(mvolts < MEASURE_BATTERY_MIN)
 303              		.loc 1 144 0
 304 0096 BB68     		ldr	r3, [r7, #8]
 305 0098 434A     		ldr	r2, .L29+8
 306 009a 9342     		cmp	r3, r2
 307 009c 03DC     		bgt	.L20
 145:.\bas.c       ****         {
 146:.\bas.c       ****             batteryLevel = 0;
 308              		.loc 1 146 0
 309 009e FB1D     		add	r3, r7, #7
 310 00a0 0022     		mov	r2, #0
 311 00a2 1A70     		strb	r2, [r3]
 312 00a4 2FE0     		b	.L21
 313              	.L20:
 147:.\bas.c       ****         }
 148:.\bas.c       ****         else if(mvolts < MEASURE_BATTERY_MID)
 314              		.loc 1 148 0
 315 00a6 BB68     		ldr	r3, [r7, #8]
 316 00a8 404A     		ldr	r2, .L29+12
 317 00aa 9342     		cmp	r3, r2
 318 00ac 11DC     		bgt	.L22
 149:.\bas.c       ****         {
 150:.\bas.c       ****             batteryLevel = (mvolts - MEASURE_BATTERY_MIN) * MEASURE_BATTERY_MID_PERCENT / 
 319              		.loc 1 150 0
 320 00ae BB68     		ldr	r3, [r7, #8]
 321 00b0 3F4A     		ldr	r2, .L29+16
 322 00b2 9A18     		add	r2, r3, r2
 323 00b4 131C     		mov	r3, r2
 324 00b6 DB00     		lsl	r3, r3, #3
 325 00b8 9B1A     		sub	r3, r3, r2
 326 00ba 9B00     		lsl	r3, r3, #2
 327 00bc 9B18     		add	r3, r3, r2
 328 00be 181C     		mov	r0, r3
 329 00c0 C823     		mov	r3, #200
 330 00c2 9900     		lsl	r1, r3, #2
 331 00c4 FFF7FEFF 		bl	__aeabi_idiv
 332 00c8 031C     		mov	r3, r0
 333 00ca DAB2     		uxtb	r2, r3
 334 00cc FB1D     		add	r3, r7, #7
 335 00ce 1A70     		strb	r2, [r3]
 336 00d0 19E0     		b	.L21
 337              	.L22:
 151:.\bas.c       ****                            (MEASURE_BATTERY_MID - MEASURE_BATTERY_MIN); 
ARM GAS  C:\Users\Henny\AppData\Local\Temp\ccoPzryc.s 			page 10


 152:.\bas.c       ****         }
 153:.\bas.c       ****         else if(mvolts < MEASURE_BATTERY_MAX)
 338              		.loc 1 153 0
 339 00d2 BB68     		ldr	r3, [r7, #8]
 340 00d4 374A     		ldr	r2, .L29+20
 341 00d6 9342     		cmp	r3, r2
 342 00d8 12DC     		bgt	.L23
 154:.\bas.c       ****         {
 155:.\bas.c       ****             batteryLevel = MEASURE_BATTERY_MID_PERCENT +
 156:.\bas.c       ****                            (mvolts - MEASURE_BATTERY_MID) * (100 - MEASURE_BATTERY_MID_PERCENT) / 
 343              		.loc 1 156 0
 344 00da BB68     		ldr	r3, [r7, #8]
 345 00dc 364A     		ldr	r2, .L29+24
 346 00de 9A18     		add	r2, r3, r2
 347 00e0 131C     		mov	r3, r2
 348 00e2 DB00     		lsl	r3, r3, #3
 349 00e4 9B18     		add	r3, r3, r2
 350 00e6 DB00     		lsl	r3, r3, #3
 351 00e8 9B1A     		sub	r3, r3, r2
 352 00ea 181C     		mov	r0, r3
 353 00ec C821     		mov	r1, #200
 354 00ee FFF7FEFF 		bl	__aeabi_idiv
 355 00f2 031C     		mov	r3, r0
 155:.\bas.c       ****                            (mvolts - MEASURE_BATTERY_MID) * (100 - MEASURE_BATTERY_MID_PERCENT) / 
 356              		.loc 1 155 0
 357 00f4 DBB2     		uxtb	r3, r3
 358 00f6 1D33     		add	r3, r3, #29
 359 00f8 DAB2     		uxtb	r2, r3
 360 00fa FB1D     		add	r3, r7, #7
 361 00fc 1A70     		strb	r2, [r3]
 362 00fe 02E0     		b	.L21
 363              	.L23:
 157:.\bas.c       ****                            (MEASURE_BATTERY_MAX - MEASURE_BATTERY_MID); 
 158:.\bas.c       ****         }
 159:.\bas.c       ****         else
 160:.\bas.c       ****         {
 161:.\bas.c       ****             batteryLevel = CYBLE_BAS_MAX_BATTERY_LEVEL_VALUE;
 364              		.loc 1 161 0
 365 0100 FB1D     		add	r3, r7, #7
 366 0102 6422     		mov	r2, #100
 367 0104 1A70     		strb	r2, [r3]
 368              	.L21:
 162:.\bas.c       ****         }
 163:.\bas.c       ****         
 164:.\bas.c       ****         if(batteryLevel < LOW_BATTERY_LIMIT)
 369              		.loc 1 164 0
 370 0106 FB1D     		add	r3, r7, #7
 371 0108 1B78     		ldrb	r3, [r3]
 372 010a 092B     		cmp	r3, #9
 373 010c 03D8     		bhi	.L24
 165:.\bas.c       ****         {
 166:.\bas.c       ****             LowPower_LED_Write(LED_ON);
 374              		.loc 1 166 0
 375 010e 0020     		mov	r0, #0
 376 0110 FFF7FEFF 		bl	LowPower_LED_Write
 377 0114 02E0     		b	.L25
 378              	.L24:
ARM GAS  C:\Users\Henny\AppData\Local\Temp\ccoPzryc.s 			page 11


 167:.\bas.c       ****         }
 168:.\bas.c       ****         else
 169:.\bas.c       ****         {
 170:.\bas.c       ****             LowPower_LED_Write(LED_OFF);
 379              		.loc 1 170 0
 380 0116 0120     		mov	r0, #1
 381 0118 FFF7FEFF 		bl	LowPower_LED_Write
 382              	.L25:
 171:.\bas.c       ****         }
 172:.\bas.c       **** 
 173:.\bas.c       ****         if(batteryMeasureNotify == ENABLED)
 383              		.loc 1 173 0
 384 011c 274B     		ldr	r3, .L29+28
 385 011e 1B88     		ldrh	r3, [r3]
 386 0120 012B     		cmp	r3, #1
 387 0122 17D1     		bne	.L26
 174:.\bas.c       ****         {
 175:.\bas.c       ****             /* Update Battery Level characteristic value and send Notification */
 176:.\bas.c       ****             apiResult = CyBle_BassSendNotification(cyBle_connHandle, BAS_SERVICE_MEASURE, CYBLE_BAS
 388              		.loc 1 176 0
 389 0124 1623     		mov	r3, #22
 390 0126 FC18     		add	r4, r7, r3
 391 0128 254B     		ldr	r3, .L29+32
 392 012a FA1D     		add	r2, r7, #7
 393 012c 0092     		str	r2, [sp]
 394 012e 1A78     		ldrb	r2, [r3]
 395 0130 5B78     		ldrb	r3, [r3, #1]
 396 0132 1B02     		lsl	r3, r3, #8
 397 0134 1A43     		orr	r2, r3
 398 0136 0023     		mov	r3, #0
 399 0138 1204     		lsl	r2, r2, #16
 400 013a 120C     		lsr	r2, r2, #16
 401 013c 1B0C     		lsr	r3, r3, #16
 402 013e 1B04     		lsl	r3, r3, #16
 403 0140 1343     		orr	r3, r2
 404 0142 181C     		mov	r0, r3
 405 0144 0021     		mov	r1, #0
 406 0146 0022     		mov	r2, #0
 407 0148 0123     		mov	r3, #1
 408 014a FFF7FEFF 		bl	CyBle_BassSendNotification
 409 014e 031C     		mov	r3, r0
 410 0150 2380     		strh	r3, [r4]
 411 0152 09E0     		b	.L27
 412              	.L26:
 177:.\bas.c       ****                 sizeof(batteryLevel), &batteryLevel);
 178:.\bas.c       ****         }
 179:.\bas.c       ****         else
 180:.\bas.c       ****         {
 181:.\bas.c       ****             /* Update Battery Level characteristic value */
 182:.\bas.c       ****             apiResult = CyBle_BassSetCharacteristicValue(BAS_SERVICE_MEASURE, CYBLE_BAS_BATTERY_LEV
 413              		.loc 1 182 0
 414 0154 1623     		mov	r3, #22
 415 0156 FC18     		add	r4, r7, r3
 416 0158 FB1D     		add	r3, r7, #7
 417 015a 0020     		mov	r0, #0
 418 015c 0021     		mov	r1, #0
 419 015e 0122     		mov	r2, #1
ARM GAS  C:\Users\Henny\AppData\Local\Temp\ccoPzryc.s 			page 12


 420 0160 FFF7FEFF 		bl	CyBle_BassSetCharacteristicValue
 421 0164 031C     		mov	r3, r0
 422 0166 2380     		strh	r3, [r4]
 423              	.L27:
 183:.\bas.c       ****                 sizeof(batteryLevel), &batteryLevel);
 184:.\bas.c       ****         }
 185:.\bas.c       ****         if(apiResult != CYBLE_ERROR_OK)
 424              		.loc 1 185 0
 425 0168 1623     		mov	r3, #22
 426 016a FB18     		add	r3, r7, r3
 427 016c 1B88     		ldrh	r3, [r3]
 428 016e 002B     		cmp	r3, #0
 429 0170 0BD0     		beq	.L28
 186:.\bas.c       ****         {
 187:.\bas.c       ****             DBG_PRINTF("API Error: %x \r\n", apiResult);
 430              		.loc 1 187 0
 431 0172 1623     		mov	r3, #22
 432 0174 FB18     		add	r3, r7, r3
 433 0176 1B88     		ldrh	r3, [r3]
 434 0178 124A     		ldr	r2, .L29+36
 435 017a 101C     		mov	r0, r2
 436 017c 191C     		mov	r1, r3
 437 017e FFF7FEFF 		bl	printf
 188:.\bas.c       ****             batteryMeasureNotify = DISABLED;
 438              		.loc 1 188 0
 439 0182 0E4B     		ldr	r3, .L29+28
 440 0184 0022     		mov	r2, #0
 441 0186 1A80     		strh	r2, [r3]
 442 0188 07E0     		b	.L18
 443              	.L28:
 189:.\bas.c       ****         }
 190:.\bas.c       ****         else
 191:.\bas.c       ****         {
 192:.\bas.c       ****             DBG_PRINTF("MeasureBatteryLevelUpdate: %d \r\n",batteryLevel);
 444              		.loc 1 192 0
 445 018a FB1D     		add	r3, r7, #7
 446 018c 1B78     		ldrb	r3, [r3]
 447 018e 1A1C     		mov	r2, r3
 448 0190 0D4B     		ldr	r3, .L29+40
 449 0192 181C     		mov	r0, r3
 450 0194 111C     		mov	r1, r2
 451 0196 FFF7FEFF 		bl	printf
 452              	.L18:
 193:.\bas.c       ****         }
 194:.\bas.c       ****     }
 195:.\bas.c       **** }
 453              		.loc 1 195 0
 454 019a BD46     		mov	sp, r7
 455 019c 07B0     		add	sp, sp, #28
 456              		@ sp needed
 457 019e 90BD     		pop	{r4, r7, pc}
 458              	.L30:
 459              		.align	2
 460              	.L29:
 461 01a0 00000000 		.word	batteryTimer.7772
 462 01a4 00003A40 		.word	1077542912
 463 01a8 CF070000 		.word	1999
ARM GAS  C:\Users\Henny\AppData\Local\Temp\ccoPzryc.s 			page 13


 464 01ac EF0A0000 		.word	2799
 465 01b0 30F8FFFF 		.word	-2000
 466 01b4 B70B0000 		.word	2999
 467 01b8 10F5FFFF 		.word	-2800
 468 01bc 00000000 		.word	batteryMeasureNotify
 469 01c0 00000000 		.word	cyBle_connHandle
 470 01c4 9C000000 		.word	.LC14
 471 01c8 B0000000 		.word	.LC16
 472              		.cfi_endproc
 473              	.LFE38:
 474              		.size	MeasureBattery, .-MeasureBattery
 475              		.section	.rodata
 476 00d1 000000   		.align	2
 477              	.LC24:
 478 00d4 53696D75 		.ascii	"SimulBatteryLevelUpdate: %d \015\012\000"
 478      6C426174 
 478      74657279 
 478      4C657665 
 478      6C557064 
 479 00f3 00       		.section	.text.SimulateBattery,"ax",%progbits
 480              		.align	2
 481              		.global	SimulateBattery
 482              		.code	16
 483              		.thumb_func
 484              		.type	SimulateBattery, %function
 485              	SimulateBattery:
 486              	.LFB39:
 196:.\bas.c       **** 
 197:.\bas.c       **** 
 198:.\bas.c       **** /*******************************************************************************
 199:.\bas.c       **** * Function Name: SimulateBattery()
 200:.\bas.c       **** ********************************************************************************
 201:.\bas.c       **** *
 202:.\bas.c       **** * Summary:
 203:.\bas.c       **** *   The custom function to simulate Battery Voltage.
 204:.\bas.c       **** *
 205:.\bas.c       **** *******************************************************************************/
 206:.\bas.c       **** void SimulateBattery(void)
 207:.\bas.c       **** {
 487              		.loc 1 207 0
 488              		.cfi_startproc
 489 0000 90B5     		push	{r4, r7, lr}
 490              		.cfi_def_cfa_offset 12
 491              		.cfi_offset 4, -12
 492              		.cfi_offset 7, -8
 493              		.cfi_offset 14, -4
 494 0002 85B0     		sub	sp, sp, #20
 495              		.cfi_def_cfa_offset 32
 496 0004 02AF     		add	r7, sp, #8
 497              		.cfi_def_cfa 7, 24
 208:.\bas.c       ****     static uint32 batteryTimer = BATTERY_TIMEOUT;
 209:.\bas.c       ****     static uint8 batteryLevel = SIM_BATTERY_MIN;
 210:.\bas.c       ****     CYBLE_API_RESULT_T apiResult;
 211:.\bas.c       ****     
 212:.\bas.c       ****     if((CyBle_GattGetBusyStatus() == CYBLE_STACK_STATE_FREE) && (--batteryTimer == 0u))
 498              		.loc 1 212 0
 499 0006 334B     		ldr	r3, .L39
ARM GAS  C:\Users\Henny\AppData\Local\Temp\ccoPzryc.s 			page 14


 500 0008 1B78     		ldrb	r3, [r3]
 501 000a DBB2     		uxtb	r3, r3
 502 000c 002B     		cmp	r3, #0
 503 000e 5ED1     		bne	.L31
 504              		.loc 1 212 0 is_stmt 0 discriminator 1
 505 0010 314B     		ldr	r3, .L39+4
 506 0012 1B68     		ldr	r3, [r3]
 507 0014 5A1E     		sub	r2, r3, #1
 508 0016 304B     		ldr	r3, .L39+4
 509 0018 1A60     		str	r2, [r3]
 510 001a 2F4B     		ldr	r3, .L39+4
 511 001c 1B68     		ldr	r3, [r3]
 512 001e 002B     		cmp	r3, #0
 513 0020 55D1     		bne	.L31
 213:.\bas.c       ****     {
 214:.\bas.c       ****         batteryTimer = BATTERY_TIMEOUT;
 514              		.loc 1 214 0 is_stmt 1
 515 0022 2D4B     		ldr	r3, .L39+4
 516 0024 0322     		mov	r2, #3
 517 0026 1A60     		str	r2, [r3]
 215:.\bas.c       ****         
 216:.\bas.c       ****         /* Battery Level simulation */
 217:.\bas.c       ****         batteryLevel += SIM_BATTERY_INCREMENT;
 518              		.loc 1 217 0
 519 0028 2C4B     		ldr	r3, .L39+8
 520 002a 1B78     		ldrb	r3, [r3]
 521 002c 0133     		add	r3, r3, #1
 522 002e DAB2     		uxtb	r2, r3
 523 0030 2A4B     		ldr	r3, .L39+8
 524 0032 1A70     		strb	r2, [r3]
 218:.\bas.c       ****         if(batteryLevel > SIM_BATTERY_MAX)
 525              		.loc 1 218 0
 526 0034 294B     		ldr	r3, .L39+8
 527 0036 1B78     		ldrb	r3, [r3]
 528 0038 142B     		cmp	r3, #20
 529 003a 02D9     		bls	.L33
 219:.\bas.c       ****         {
 220:.\bas.c       ****             batteryLevel = SIM_BATTERY_MIN; 
 530              		.loc 1 220 0
 531 003c 274B     		ldr	r3, .L39+8
 532 003e 0222     		mov	r2, #2
 533 0040 1A70     		strb	r2, [r3]
 534              	.L33:
 221:.\bas.c       ****         }
 222:.\bas.c       ****         if(batteryLevel < LOW_BATTERY_LIMIT)
 535              		.loc 1 222 0
 536 0042 264B     		ldr	r3, .L39+8
 537 0044 1B78     		ldrb	r3, [r3]
 538 0046 092B     		cmp	r3, #9
 539 0048 03D8     		bhi	.L34
 223:.\bas.c       ****         {
 224:.\bas.c       ****             LowPower_LED_Write(LED_ON);
 540              		.loc 1 224 0
 541 004a 0020     		mov	r0, #0
 542 004c FFF7FEFF 		bl	LowPower_LED_Write
 543 0050 02E0     		b	.L35
 544              	.L34:
ARM GAS  C:\Users\Henny\AppData\Local\Temp\ccoPzryc.s 			page 15


 225:.\bas.c       ****         }
 226:.\bas.c       ****         else
 227:.\bas.c       ****         {
 228:.\bas.c       ****             LowPower_LED_Write(LED_OFF);
 545              		.loc 1 228 0
 546 0052 0120     		mov	r0, #1
 547 0054 FFF7FEFF 		bl	LowPower_LED_Write
 548              	.L35:
 229:.\bas.c       ****         }
 230:.\bas.c       **** 
 231:.\bas.c       ****         if(batterySimulationNotify == ENABLED)
 549              		.loc 1 231 0
 550 0058 214B     		ldr	r3, .L39+12
 551 005a 1B88     		ldrh	r3, [r3]
 552 005c 012B     		cmp	r3, #1
 553 005e 16D1     		bne	.L36
 232:.\bas.c       ****         {
 233:.\bas.c       ****             /* Update Battery Level characteristic value and send Notification */
 234:.\bas.c       ****              apiResult = CyBle_BassSendNotification(cyBle_connHandle, BAS_SERVICE_SIMULATE, 
 554              		.loc 1 234 0
 555 0060 BC1D     		add	r4, r7, #6
 556 0062 204B     		ldr	r3, .L39+16
 557 0064 1D4A     		ldr	r2, .L39+8
 558 0066 0092     		str	r2, [sp]
 559 0068 1A78     		ldrb	r2, [r3]
 560 006a 5B78     		ldrb	r3, [r3, #1]
 561 006c 1B02     		lsl	r3, r3, #8
 562 006e 1A43     		orr	r2, r3
 563 0070 0023     		mov	r3, #0
 564 0072 1204     		lsl	r2, r2, #16
 565 0074 120C     		lsr	r2, r2, #16
 566 0076 1B0C     		lsr	r3, r3, #16
 567 0078 1B04     		lsl	r3, r3, #16
 568 007a 1343     		orr	r3, r2
 569 007c 181C     		mov	r0, r3
 570 007e 0021     		mov	r1, #0
 571 0080 0022     		mov	r2, #0
 572 0082 0123     		mov	r3, #1
 573 0084 FFF7FEFF 		bl	CyBle_BassSendNotification
 574 0088 031C     		mov	r3, r0
 575 008a 2380     		strh	r3, [r4]
 576 008c 08E0     		b	.L37
 577              	.L36:
 235:.\bas.c       ****                 CYBLE_BAS_BATTERY_LEVEL, sizeof(batteryLevel), &batteryLevel);
 236:.\bas.c       ****         }
 237:.\bas.c       ****         else
 238:.\bas.c       ****         {
 239:.\bas.c       ****             /* Update Battery Level characteristic value */
 240:.\bas.c       ****              apiResult = CyBle_BassSetCharacteristicValue(BAS_SERVICE_SIMULATE, 
 578              		.loc 1 240 0
 579 008e BC1D     		add	r4, r7, #6
 580 0090 124B     		ldr	r3, .L39+8
 581 0092 0020     		mov	r0, #0
 582 0094 0021     		mov	r1, #0
 583 0096 0122     		mov	r2, #1
 584 0098 FFF7FEFF 		bl	CyBle_BassSetCharacteristicValue
 585 009c 031C     		mov	r3, r0
ARM GAS  C:\Users\Henny\AppData\Local\Temp\ccoPzryc.s 			page 16


 586 009e 2380     		strh	r3, [r4]
 587              	.L37:
 241:.\bas.c       ****                 CYBLE_BAS_BATTERY_LEVEL, sizeof(batteryLevel), &batteryLevel);
 242:.\bas.c       ****         }
 243:.\bas.c       ****         if(apiResult != CYBLE_ERROR_OK)
 588              		.loc 1 243 0
 589 00a0 BB1D     		add	r3, r7, #6
 590 00a2 1B88     		ldrh	r3, [r3]
 591 00a4 002B     		cmp	r3, #0
 592 00a6 0AD0     		beq	.L38
 244:.\bas.c       ****         {
 245:.\bas.c       ****             DBG_PRINTF("API Error: %x \r\n", apiResult);
 593              		.loc 1 245 0
 594 00a8 BB1D     		add	r3, r7, #6
 595 00aa 1B88     		ldrh	r3, [r3]
 596 00ac 0E4A     		ldr	r2, .L39+20
 597 00ae 101C     		mov	r0, r2
 598 00b0 191C     		mov	r1, r3
 599 00b2 FFF7FEFF 		bl	printf
 246:.\bas.c       ****             batterySimulationNotify = DISABLED;
 600              		.loc 1 246 0
 601 00b6 0A4B     		ldr	r3, .L39+12
 602 00b8 0022     		mov	r2, #0
 603 00ba 1A80     		strh	r2, [r3]
 604 00bc 07E0     		b	.L31
 605              	.L38:
 247:.\bas.c       ****         }
 248:.\bas.c       ****         else
 249:.\bas.c       ****         {
 250:.\bas.c       ****             DBG_PRINTF("SimulBatteryLevelUpdate: %d \r\n",batteryLevel);
 606              		.loc 1 250 0
 607 00be 074B     		ldr	r3, .L39+8
 608 00c0 1B78     		ldrb	r3, [r3]
 609 00c2 1A1C     		mov	r2, r3
 610 00c4 094B     		ldr	r3, .L39+24
 611 00c6 181C     		mov	r0, r3
 612 00c8 111C     		mov	r1, r2
 613 00ca FFF7FEFF 		bl	printf
 614              	.L31:
 251:.\bas.c       ****         }
 252:.\bas.c       ****     }
 253:.\bas.c       **** }
 615              		.loc 1 253 0
 616 00ce BD46     		mov	sp, r7
 617 00d0 03B0     		add	sp, sp, #12
 618              		@ sp needed
 619 00d2 90BD     		pop	{r4, r7, pc}
 620              	.L40:
 621              		.align	2
 622              	.L39:
 623 00d4 00000000 		.word	cyBle_busyStatus
 624 00d8 04000000 		.word	batteryTimer.7776
 625 00dc 08000000 		.word	batteryLevel.7777
 626 00e0 00000000 		.word	batterySimulationNotify
 627 00e4 00000000 		.word	cyBle_connHandle
 628 00e8 9C000000 		.word	.LC14
 629 00ec D4000000 		.word	.LC24
ARM GAS  C:\Users\Henny\AppData\Local\Temp\ccoPzryc.s 			page 17


 630              		.cfi_endproc
 631              	.LFE39:
 632              		.size	SimulateBattery, .-SimulateBattery
 633              		.data
 634              		.align	2
 635              		.type	batteryTimer.7772, %object
 636              		.size	batteryTimer.7772, 4
 637              	batteryTimer.7772:
 638 0000 03000000 		.word	3
 639              		.align	2
 640              		.type	batteryTimer.7776, %object
 641              		.size	batteryTimer.7776, 4
 642              	batteryTimer.7776:
 643 0004 03000000 		.word	3
 644              		.type	batteryLevel.7777, %object
 645              		.size	batteryLevel.7777, 1
 646              	batteryLevel.7777:
 647 0008 02       		.byte	2
 648 0009 000000   		.text
 649              	.Letext0:
 650              		.file 2 "Generated_Source\\PSoC4/cytypes.h"
 651              		.file 3 "Generated_Source\\PSoC4/BLE_Stack.h"
 652              		.file 4 "Generated_Source\\PSoC4/BLE_StackGatt.h"
 653              		.file 5 "Generated_Source\\PSoC4/BLE_bas.h"
 654              		.file 6 "Generated_Source\\PSoC4/BLE_dis.h"
 655              		.file 7 "Generated_Source\\PSoC4/BLE_hts.h"
 656              		.file 8 "Generated_Source\\PSoC4/BLE_eventHandler.h"