ARM GAS  C:\Users\Henny\AppData\Local\Temp\ccxxNiEo.s 			page 1


   1              		.cpu cortex-m0
   2              		.fpu softvfp
   3              		.eabi_attribute 20, 1
   4              		.eabi_attribute 21, 1
   5              		.eabi_attribute 23, 3
   6              		.eabi_attribute 24, 1
   7              		.eabi_attribute 25, 1
   8              		.eabi_attribute 26, 1
   9              		.eabi_attribute 30, 6
  10              		.eabi_attribute 34, 0
  11              		.eabi_attribute 18, 4
  12              		.code	16
  13              		.file	"BLE_bas.c"
  14              		.text
  15              	.Ltext0:
  16              		.cfi_sections	.debug_frame
  17              		.bss
  18              		.align	2
  19              	CyBle_BasApplCallback:
  20 0000 00000000 		.space	4
  21              		.global	cyBle_bass
  22              		.section	.rodata
  23              		.align	2
  24              		.type	cyBle_bass, %object
  25              		.size	cyBle_bass, 8
  26              	cyBle_bass:
  27 0000 1C00     		.short	28
  28 0002 1E00     		.short	30
  29 0004 1F00     		.short	31
  30 0006 2000     		.short	32
  31              		.section	.text.CyBle_BasInit,"ax",%progbits
  32              		.align	2
  33              		.global	CyBle_BasInit
  34              		.code	16
  35              		.thumb_func
  36              		.type	CyBle_BasInit, %function
  37              	CyBle_BasInit:
  38              	.LFB2:
  39              		.file 1 ".\\Generated_Source\\PSoC4\\BLE_bas.c"
   1:.\Generated_Source\PSoC4/BLE_bas.c **** /***************************************************************************//**
   2:.\Generated_Source\PSoC4/BLE_bas.c **** * \file CYBLE_bas.c
   3:.\Generated_Source\PSoC4/BLE_bas.c **** * \version 2.30
   4:.\Generated_Source\PSoC4/BLE_bas.c **** * 
   5:.\Generated_Source\PSoC4/BLE_bas.c **** * \brief
   6:.\Generated_Source\PSoC4/BLE_bas.c **** *  Contains the source code for Battery Service.
   7:.\Generated_Source\PSoC4/BLE_bas.c **** * 
   8:.\Generated_Source\PSoC4/BLE_bas.c **** ********************************************************************************
   9:.\Generated_Source\PSoC4/BLE_bas.c **** * \copyright
  10:.\Generated_Source\PSoC4/BLE_bas.c **** * Copyright 2014-2015, Cypress Semiconductor Corporation.  All rights reserved.
  11:.\Generated_Source\PSoC4/BLE_bas.c **** * You may use this file only in accordance with the license, terms, conditions,
  12:.\Generated_Source\PSoC4/BLE_bas.c **** * disclaimers, and limitations in the end user license agreement accompanying
  13:.\Generated_Source\PSoC4/BLE_bas.c **** * the software package with which this file was provided.
  14:.\Generated_Source\PSoC4/BLE_bas.c **** *******************************************************************************/
  15:.\Generated_Source\PSoC4/BLE_bas.c **** 
  16:.\Generated_Source\PSoC4/BLE_bas.c **** 
  17:.\Generated_Source\PSoC4/BLE_bas.c **** #include "BLE_eventHandler.h"
  18:.\Generated_Source\PSoC4/BLE_bas.c **** 
ARM GAS  C:\Users\Henny\AppData\Local\Temp\ccxxNiEo.s 			page 2


  19:.\Generated_Source\PSoC4/BLE_bas.c **** static CYBLE_CALLBACK_T CyBle_BasApplCallback = NULL;
  20:.\Generated_Source\PSoC4/BLE_bas.c **** 
  21:.\Generated_Source\PSoC4/BLE_bas.c **** #ifdef CYBLE_BAS_SERVER
  22:.\Generated_Source\PSoC4/BLE_bas.c **** 
  23:.\Generated_Source\PSoC4/BLE_bas.c **** const CYBLE_BASS_T cyBle_bass[0x01u] = {
  24:.\Generated_Source\PSoC4/BLE_bas.c ****     {
  25:.\Generated_Source\PSoC4/BLE_bas.c ****         0x001Cu, /* Handle of the BAS service */ 
  26:.\Generated_Source\PSoC4/BLE_bas.c ****         0x001Eu, /* Handle of the Battery Level characteristic */ 
  27:.\Generated_Source\PSoC4/BLE_bas.c ****         0x001Fu, /* Handle of the Characteristic Presentation Format descriptor */ 
  28:.\Generated_Source\PSoC4/BLE_bas.c ****         0x0020u, /* Handle of the Client Characteristic Configuration descriptor */ 
  29:.\Generated_Source\PSoC4/BLE_bas.c ****     },
  30:.\Generated_Source\PSoC4/BLE_bas.c **** };
  31:.\Generated_Source\PSoC4/BLE_bas.c **** 
  32:.\Generated_Source\PSoC4/BLE_bas.c **** 
  33:.\Generated_Source\PSoC4/BLE_bas.c **** #endif /* CYBLE_BAS_SERVER */
  34:.\Generated_Source\PSoC4/BLE_bas.c **** 
  35:.\Generated_Source\PSoC4/BLE_bas.c **** #ifdef CYBLE_BAS_CLIENT
  36:.\Generated_Source\PSoC4/BLE_bas.c **** 
  37:.\Generated_Source\PSoC4/BLE_bas.c **** CYBLE_BASC_T cyBle_basc[CYBLE_BASC_SERVICE_COUNT];
  38:.\Generated_Source\PSoC4/BLE_bas.c **** static CYBLE_GATT_DB_ATTR_HANDLE_T cyBle_bascReqHandle;
  39:.\Generated_Source\PSoC4/BLE_bas.c **** 
  40:.\Generated_Source\PSoC4/BLE_bas.c **** #endif /* (CYBLE_BAS_CLIENT) */
  41:.\Generated_Source\PSoC4/BLE_bas.c **** 
  42:.\Generated_Source\PSoC4/BLE_bas.c **** 
  43:.\Generated_Source\PSoC4/BLE_bas.c **** /******************************************************************************
  44:.\Generated_Source\PSoC4/BLE_bas.c **** * Function Name: CyBle_BasInit
  45:.\Generated_Source\PSoC4/BLE_bas.c **** ***************************************************************************//**
  46:.\Generated_Source\PSoC4/BLE_bas.c **** * 
  47:.\Generated_Source\PSoC4/BLE_bas.c **** *  This function initializes the BAS Service.
  48:.\Generated_Source\PSoC4/BLE_bas.c **** * 
  49:.\Generated_Source\PSoC4/BLE_bas.c **** * \return
  50:.\Generated_Source\PSoC4/BLE_bas.c **** *  None
  51:.\Generated_Source\PSoC4/BLE_bas.c **** * 
  52:.\Generated_Source\PSoC4/BLE_bas.c **** ******************************************************************************/
  53:.\Generated_Source\PSoC4/BLE_bas.c **** void CyBle_BasInit(void)
  54:.\Generated_Source\PSoC4/BLE_bas.c **** {
  40              		.loc 1 54 0
  41              		.cfi_startproc
  42 0000 80B5     		push	{r7, lr}
  43              		.cfi_def_cfa_offset 8
  44              		.cfi_offset 7, -8
  45              		.cfi_offset 14, -4
  46 0002 00AF     		add	r7, sp, #0
  47              		.cfi_def_cfa_register 7
  55:.\Generated_Source\PSoC4/BLE_bas.c **** 
  56:.\Generated_Source\PSoC4/BLE_bas.c **** #ifdef CYBLE_BAS_CLIENT
  57:.\Generated_Source\PSoC4/BLE_bas.c **** 
  58:.\Generated_Source\PSoC4/BLE_bas.c ****     (void)memset(&cyBle_basc, 0, sizeof(cyBle_basc));
  59:.\Generated_Source\PSoC4/BLE_bas.c ****     cyBle_bascReqHandle = CYBLE_GATT_INVALID_ATTR_HANDLE_VALUE;
  60:.\Generated_Source\PSoC4/BLE_bas.c **** 
  61:.\Generated_Source\PSoC4/BLE_bas.c **** #endif /* CYBLE_BAS_CLIENT */
  62:.\Generated_Source\PSoC4/BLE_bas.c **** }
  48              		.loc 1 62 0
  49 0004 BD46     		mov	sp, r7
  50              		@ sp needed
  51 0006 80BD     		pop	{r7, pc}
  52              		.cfi_endproc
ARM GAS  C:\Users\Henny\AppData\Local\Temp\ccxxNiEo.s 			page 3


  53              	.LFE2:
  54              		.size	CyBle_BasInit, .-CyBle_BasInit
  55              		.section	.text.CyBle_BasRegisterAttrCallback,"ax",%progbits
  56              		.align	2
  57              		.global	CyBle_BasRegisterAttrCallback
  58              		.code	16
  59              		.thumb_func
  60              		.type	CyBle_BasRegisterAttrCallback, %function
  61              	CyBle_BasRegisterAttrCallback:
  62              	.LFB3:
  63:.\Generated_Source\PSoC4/BLE_bas.c **** 
  64:.\Generated_Source\PSoC4/BLE_bas.c **** 
  65:.\Generated_Source\PSoC4/BLE_bas.c **** /******************************************************************************
  66:.\Generated_Source\PSoC4/BLE_bas.c **** * Function Name: CyBle_BasRegisterAttrCallback
  67:.\Generated_Source\PSoC4/BLE_bas.c **** ***************************************************************************//**
  68:.\Generated_Source\PSoC4/BLE_bas.c **** * 
  69:.\Generated_Source\PSoC4/BLE_bas.c **** *  Registers a callback function for service specific attribute operations.
  70:.\Generated_Source\PSoC4/BLE_bas.c **** *  Service specific write requests from peer device will not be handled with
  71:.\Generated_Source\PSoC4/BLE_bas.c **** *  unregistered callback function.
  72:.\Generated_Source\PSoC4/BLE_bas.c **** * 
  73:.\Generated_Source\PSoC4/BLE_bas.c **** *  \param callbackFunc: An application layer event callback function to receive 
  74:.\Generated_Source\PSoC4/BLE_bas.c **** *                    battery service events from the BLE Component. The
  75:.\Generated_Source\PSoC4/BLE_bas.c **** *                    definition of CYBLE_CALLBACK_T for Battery Service is,\n                 
  76:.\Generated_Source\PSoC4/BLE_bas.c **** *                    typedef void (* CYBLE_CALLBACK_T) (uint32 eventCode, 
  77:.\Generated_Source\PSoC4/BLE_bas.c **** *                                                         void *eventParam)                        
  78:.\Generated_Source\PSoC4/BLE_bas.c **** *                    * eventCode indicates the event that triggered this 
  79:.\Generated_Source\PSoC4/BLE_bas.c **** *                       callback (e.g. CYBLE_EVT_BASS_NOTIFICATION_ENABLED)
  80:.\Generated_Source\PSoC4/BLE_bas.c **** *                    * eventParam contains the parameters corresponding to the
  81:.\Generated_Source\PSoC4/BLE_bas.c **** *                       current event (e.g., pointer to CYBLE_BAS_CHAR_VALUE_T
  82:.\Generated_Source\PSoC4/BLE_bas.c **** *                       structure that contains details of the characteristic 
  83:.\Generated_Source\PSoC4/BLE_bas.c **** *                       for which notification enabled event was triggered)
  84:.\Generated_Source\PSoC4/BLE_bas.c **** * 
  85:.\Generated_Source\PSoC4/BLE_bas.c **** * \return
  86:.\Generated_Source\PSoC4/BLE_bas.c **** *  None
  87:.\Generated_Source\PSoC4/BLE_bas.c **** *
  88:.\Generated_Source\PSoC4/BLE_bas.c **** * \events
  89:.\Generated_Source\PSoC4/BLE_bas.c **** *  None
  90:.\Generated_Source\PSoC4/BLE_bas.c **** *
  91:.\Generated_Source\PSoC4/BLE_bas.c **** * \sideeffect The *eventParams in the callback function should not be used 
  92:.\Generated_Source\PSoC4/BLE_bas.c **** *                by the application once the callback function execution is 
  93:.\Generated_Source\PSoC4/BLE_bas.c **** *                finished. Otherwise this data may become corrupted.
  94:.\Generated_Source\PSoC4/BLE_bas.c **** * 
  95:.\Generated_Source\PSoC4/BLE_bas.c **** ******************************************************************************/
  96:.\Generated_Source\PSoC4/BLE_bas.c **** void CyBle_BasRegisterAttrCallback(CYBLE_CALLBACK_T callbackFunc)
  97:.\Generated_Source\PSoC4/BLE_bas.c **** {
  63              		.loc 1 97 0
  64              		.cfi_startproc
  65 0000 80B5     		push	{r7, lr}
  66              		.cfi_def_cfa_offset 8
  67              		.cfi_offset 7, -8
  68              		.cfi_offset 14, -4
  69 0002 82B0     		sub	sp, sp, #8
  70              		.cfi_def_cfa_offset 16
  71 0004 00AF     		add	r7, sp, #0
  72              		.cfi_def_cfa_register 7
  73 0006 7860     		str	r0, [r7, #4]
  98:.\Generated_Source\PSoC4/BLE_bas.c ****     CyBle_BasApplCallback = callbackFunc;
ARM GAS  C:\Users\Henny\AppData\Local\Temp\ccxxNiEo.s 			page 4


  74              		.loc 1 98 0
  75 0008 024B     		ldr	r3, .L3
  76 000a 7A68     		ldr	r2, [r7, #4]
  77 000c 1A60     		str	r2, [r3]
  99:.\Generated_Source\PSoC4/BLE_bas.c **** }
  78              		.loc 1 99 0
  79 000e BD46     		mov	sp, r7
  80 0010 02B0     		add	sp, sp, #8
  81              		@ sp needed
  82 0012 80BD     		pop	{r7, pc}
  83              	.L4:
  84              		.align	2
  85              	.L3:
  86 0014 00000000 		.word	CyBle_BasApplCallback
  87              		.cfi_endproc
  88              	.LFE3:
  89              		.size	CyBle_BasRegisterAttrCallback, .-CyBle_BasRegisterAttrCallback
  90              		.section	.text.CyBle_BassSetCharacteristicValue,"ax",%progbits
  91              		.align	2
  92              		.global	CyBle_BassSetCharacteristicValue
  93              		.code	16
  94              		.thumb_func
  95              		.type	CyBle_BassSetCharacteristicValue, %function
  96              	CyBle_BassSetCharacteristicValue:
  97              	.LFB4:
 100:.\Generated_Source\PSoC4/BLE_bas.c **** 
 101:.\Generated_Source\PSoC4/BLE_bas.c **** #ifdef CYBLE_BAS_SERVER
 102:.\Generated_Source\PSoC4/BLE_bas.c **** 
 103:.\Generated_Source\PSoC4/BLE_bas.c **** 
 104:.\Generated_Source\PSoC4/BLE_bas.c **** /******************************************************************************
 105:.\Generated_Source\PSoC4/BLE_bas.c **** * Function Name: CyBle_BassSetCharacteristicValue
 106:.\Generated_Source\PSoC4/BLE_bas.c **** ***************************************************************************//**
 107:.\Generated_Source\PSoC4/BLE_bas.c **** * 
 108:.\Generated_Source\PSoC4/BLE_bas.c **** *  Sets a characteristic value of the service in the local database.
 109:.\Generated_Source\PSoC4/BLE_bas.c **** * 
 110:.\Generated_Source\PSoC4/BLE_bas.c **** *  \param serviceIndex: The index of the service instance.
 111:.\Generated_Source\PSoC4/BLE_bas.c **** *  \param charIndex: The index of the service characteristic of type 
 112:.\Generated_Source\PSoC4/BLE_bas.c **** *              CYBLE_BAS_CHAR_INDEX_T.
 113:.\Generated_Source\PSoC4/BLE_bas.c **** *  \param attrSize: The size of the characteristic value attribute. A battery level
 114:.\Generated_Source\PSoC4/BLE_bas.c **** *             characteristic has 1 byte length.
 115:.\Generated_Source\PSoC4/BLE_bas.c **** *  \param attrValue: The pointer to the characteristic value data that should be
 116:.\Generated_Source\PSoC4/BLE_bas.c **** *               stored to the GATT database.
 117:.\Generated_Source\PSoC4/BLE_bas.c **** * 
 118:.\Generated_Source\PSoC4/BLE_bas.c **** * \return
 119:.\Generated_Source\PSoC4/BLE_bas.c **** *  Return value is of type CYBLE_API_RESULT_T.
 120:.\Generated_Source\PSoC4/BLE_bas.c **** *  * CYBLE_ERROR_OK - The request handled successfully
 121:.\Generated_Source\PSoC4/BLE_bas.c **** *  * CYBLE_ERROR_INVALID_PARAMETER - Validation of the input parameter failed
 122:.\Generated_Source\PSoC4/BLE_bas.c **** *
 123:.\Generated_Source\PSoC4/BLE_bas.c **** * \events
 124:.\Generated_Source\PSoC4/BLE_bas.c **** *  None
 125:.\Generated_Source\PSoC4/BLE_bas.c **** *
 126:.\Generated_Source\PSoC4/BLE_bas.c **** ******************************************************************************/
 127:.\Generated_Source\PSoC4/BLE_bas.c **** CYBLE_API_RESULT_T CyBle_BassSetCharacteristicValue(uint8 serviceIndex, CYBLE_BAS_CHAR_INDEX_T char
 128:.\Generated_Source\PSoC4/BLE_bas.c ****     uint8 attrSize, uint8 *attrValue)
 129:.\Generated_Source\PSoC4/BLE_bas.c **** {
  98              		.loc 1 129 0
  99              		.cfi_startproc
ARM GAS  C:\Users\Henny\AppData\Local\Temp\ccxxNiEo.s 			page 5


 100 0000 90B5     		push	{r4, r7, lr}
 101              		.cfi_def_cfa_offset 12
 102              		.cfi_offset 4, -12
 103              		.cfi_offset 7, -8
 104              		.cfi_offset 14, -4
 105 0002 87B0     		sub	sp, sp, #28
 106              		.cfi_def_cfa_offset 40
 107 0004 00AF     		add	r7, sp, #0
 108              		.cfi_def_cfa_register 7
 109 0006 041C     		mov	r4, r0
 110 0008 081C     		mov	r0, r1
 111 000a 111C     		mov	r1, r2
 112 000c 3B60     		str	r3, [r7]
 113 000e FB1D     		add	r3, r7, #7
 114 0010 221C     		add	r2, r4, #0
 115 0012 1A70     		strb	r2, [r3]
 116 0014 BB1D     		add	r3, r7, #6
 117 0016 021C     		add	r2, r0, #0
 118 0018 1A70     		strb	r2, [r3]
 119 001a 7B1D     		add	r3, r7, #5
 120 001c 0A1C     		add	r2, r1, #0
 121 001e 1A70     		strb	r2, [r3]
 130:.\Generated_Source\PSoC4/BLE_bas.c ****     CYBLE_API_RESULT_T apiResult = CYBLE_ERROR_OK;
 122              		.loc 1 130 0
 123 0020 1623     		mov	r3, #22
 124 0022 FB18     		add	r3, r7, r3
 125 0024 0022     		mov	r2, #0
 126 0026 1A80     		strh	r2, [r3]
 131:.\Generated_Source\PSoC4/BLE_bas.c ****     CYBLE_GATT_HANDLE_VALUE_PAIR_T locHandleValuePair;
 132:.\Generated_Source\PSoC4/BLE_bas.c **** 
 133:.\Generated_Source\PSoC4/BLE_bas.c ****     if((serviceIndex >= CYBLE_BASS_SERVICE_COUNT) || (charIndex >= CYBLE_BAS_CHAR_COUNT) ||
 127              		.loc 1 133 0
 128 0028 FB1D     		add	r3, r7, #7
 129 002a 1B78     		ldrb	r3, [r3]
 130 002c 002B     		cmp	r3, #0
 131 002e 0BD1     		bne	.L6
 132              		.loc 1 133 0 is_stmt 0 discriminator 1
 133 0030 BB1D     		add	r3, r7, #6
 134 0032 1B78     		ldrb	r3, [r3]
 135 0034 002B     		cmp	r3, #0
 136 0036 07D1     		bne	.L6
 137              		.loc 1 133 0 discriminator 2
 138 0038 7B1D     		add	r3, r7, #5
 139 003a 1B78     		ldrb	r3, [r3]
 140 003c 012B     		cmp	r3, #1
 141 003e 03D1     		bne	.L6
 134:.\Generated_Source\PSoC4/BLE_bas.c ****        (attrSize != CYBLE_BAS_BATTERY_LEVEL_LEN) || (*attrValue > CYBLE_BAS_MAX_BATTERY_LEVEL_VALUE
 142              		.loc 1 134 0 is_stmt 1
 143 0040 3B68     		ldr	r3, [r7]
 144 0042 1B78     		ldrb	r3, [r3]
 145 0044 642B     		cmp	r3, #100
 146 0046 04D9     		bls	.L7
 147              	.L6:
 135:.\Generated_Source\PSoC4/BLE_bas.c ****     {
 136:.\Generated_Source\PSoC4/BLE_bas.c ****         apiResult = CYBLE_ERROR_INVALID_PARAMETER;
 148              		.loc 1 136 0
 149 0048 1623     		mov	r3, #22
ARM GAS  C:\Users\Henny\AppData\Local\Temp\ccxxNiEo.s 			page 6


 150 004a FB18     		add	r3, r7, r3
 151 004c 0122     		mov	r2, #1
 152 004e 1A80     		strh	r2, [r3]
 153 0050 20E0     		b	.L8
 154              	.L7:
 137:.\Generated_Source\PSoC4/BLE_bas.c ****     }
 138:.\Generated_Source\PSoC4/BLE_bas.c ****     else
 139:.\Generated_Source\PSoC4/BLE_bas.c ****     {
 140:.\Generated_Source\PSoC4/BLE_bas.c ****         /* Store data in database */
 141:.\Generated_Source\PSoC4/BLE_bas.c ****         locHandleValuePair.attrHandle = cyBle_bass[serviceIndex].batteryLevelHandle;
 155              		.loc 1 141 0
 156 0052 FB1D     		add	r3, r7, #7
 157 0054 1B78     		ldrb	r3, [r3]
 158 0056 134A     		ldr	r2, .L10
 159 0058 DB00     		lsl	r3, r3, #3
 160 005a D318     		add	r3, r2, r3
 161 005c 5A88     		ldrh	r2, [r3, #2]
 162 005e 0823     		mov	r3, #8
 163 0060 FB18     		add	r3, r7, r3
 164 0062 1A81     		strh	r2, [r3, #8]
 142:.\Generated_Source\PSoC4/BLE_bas.c ****         locHandleValuePair.value.len = attrSize;
 165              		.loc 1 142 0
 166 0064 7B1D     		add	r3, r7, #5
 167 0066 1B78     		ldrb	r3, [r3]
 168 0068 9AB2     		uxth	r2, r3
 169 006a 0823     		mov	r3, #8
 170 006c FB18     		add	r3, r7, r3
 171 006e 9A80     		strh	r2, [r3, #4]
 143:.\Generated_Source\PSoC4/BLE_bas.c ****         locHandleValuePair.value.val = attrValue;
 172              		.loc 1 143 0
 173 0070 0823     		mov	r3, #8
 174 0072 FB18     		add	r3, r7, r3
 175 0074 3A68     		ldr	r2, [r7]
 176 0076 1A60     		str	r2, [r3]
 144:.\Generated_Source\PSoC4/BLE_bas.c ****         if(CYBLE_GATT_ERR_NONE !=
 145:.\Generated_Source\PSoC4/BLE_bas.c ****             CyBle_GattsWriteAttributeValue(&locHandleValuePair, 0u, NULL, CYBLE_GATT_DB_LOCALLY_INI
 177              		.loc 1 145 0
 178 0078 0823     		mov	r3, #8
 179 007a FB18     		add	r3, r7, r3
 180 007c 181C     		mov	r0, r3
 181 007e 0021     		mov	r1, #0
 182 0080 0022     		mov	r2, #0
 183 0082 0023     		mov	r3, #0
 184 0084 FFF7FEFF 		bl	CyBle_GattsWriteAttributeValue
 185 0088 031E     		sub	r3, r0, #0
 144:.\Generated_Source\PSoC4/BLE_bas.c ****         if(CYBLE_GATT_ERR_NONE !=
 186              		.loc 1 144 0
 187 008a 03D0     		beq	.L8
 146:.\Generated_Source\PSoC4/BLE_bas.c ****         {
 147:.\Generated_Source\PSoC4/BLE_bas.c ****             apiResult = CYBLE_ERROR_INVALID_PARAMETER;
 188              		.loc 1 147 0
 189 008c 1623     		mov	r3, #22
 190 008e FB18     		add	r3, r7, r3
 191 0090 0122     		mov	r2, #1
 192 0092 1A80     		strh	r2, [r3]
 193              	.L8:
 148:.\Generated_Source\PSoC4/BLE_bas.c ****         }
ARM GAS  C:\Users\Henny\AppData\Local\Temp\ccxxNiEo.s 			page 7


 149:.\Generated_Source\PSoC4/BLE_bas.c ****     }
 150:.\Generated_Source\PSoC4/BLE_bas.c ****     return (apiResult);
 194              		.loc 1 150 0
 195 0094 1623     		mov	r3, #22
 196 0096 FB18     		add	r3, r7, r3
 197 0098 1B88     		ldrh	r3, [r3]
 151:.\Generated_Source\PSoC4/BLE_bas.c **** }
 198              		.loc 1 151 0
 199 009a 181C     		mov	r0, r3
 200 009c BD46     		mov	sp, r7
 201 009e 07B0     		add	sp, sp, #28
 202              		@ sp needed
 203 00a0 90BD     		pop	{r4, r7, pc}
 204              	.L11:
 205 00a2 C046     		.align	2
 206              	.L10:
 207 00a4 00000000 		.word	cyBle_bass
 208              		.cfi_endproc
 209              	.LFE4:
 210              		.size	CyBle_BassSetCharacteristicValue, .-CyBle_BassSetCharacteristicValue
 211              		.section	.text.CyBle_BassGetCharacteristicValue,"ax",%progbits
 212              		.align	2
 213              		.global	CyBle_BassGetCharacteristicValue
 214              		.code	16
 215              		.thumb_func
 216              		.type	CyBle_BassGetCharacteristicValue, %function
 217              	CyBle_BassGetCharacteristicValue:
 218              	.LFB5:
 152:.\Generated_Source\PSoC4/BLE_bas.c **** 
 153:.\Generated_Source\PSoC4/BLE_bas.c **** 
 154:.\Generated_Source\PSoC4/BLE_bas.c **** /******************************************************************************
 155:.\Generated_Source\PSoC4/BLE_bas.c **** * Function Name: CyBle_BassGetCharacteristicValue
 156:.\Generated_Source\PSoC4/BLE_bas.c **** ***************************************************************************//**
 157:.\Generated_Source\PSoC4/BLE_bas.c **** * 
 158:.\Generated_Source\PSoC4/BLE_bas.c **** *  Gets a characteristic value of the Battery service, which is identified by 
 159:.\Generated_Source\PSoC4/BLE_bas.c **** *  charIndex.
 160:.\Generated_Source\PSoC4/BLE_bas.c **** * 
 161:.\Generated_Source\PSoC4/BLE_bas.c **** *  \param serviceIndex: The index of the service instance. e.g. If two Battery Services
 162:.\Generated_Source\PSoC4/BLE_bas.c **** *                 are supported in your design, then first service will be 
 163:.\Generated_Source\PSoC4/BLE_bas.c **** *                 identified by serviceIndex of 0 and the second by serviceIndex
 164:.\Generated_Source\PSoC4/BLE_bas.c **** *                 of 1.
 165:.\Generated_Source\PSoC4/BLE_bas.c **** *  \param charIndex: The index of a service characteristic of type CYBLE_BAS_CHAR_INDEX_T.
 166:.\Generated_Source\PSoC4/BLE_bas.c **** *  \param attrSize: The size of the characteristic value attribute. A battery level
 167:.\Generated_Source\PSoC4/BLE_bas.c **** *             characteristic has a 1 byte length.
 168:.\Generated_Source\PSoC4/BLE_bas.c **** *  \param attrValue: The pointer to the location where characteristic value data
 169:.\Generated_Source\PSoC4/BLE_bas.c **** *               should be stored.
 170:.\Generated_Source\PSoC4/BLE_bas.c **** * 
 171:.\Generated_Source\PSoC4/BLE_bas.c **** * \return
 172:.\Generated_Source\PSoC4/BLE_bas.c **** *  Return value is of type CYBLE_API_RESULT_T.
 173:.\Generated_Source\PSoC4/BLE_bas.c **** *  * CYBLE_ERROR_OK - The request handled successfully
 174:.\Generated_Source\PSoC4/BLE_bas.c **** *  * CYBLE_ERROR_INVALID_PARAMETER - Validation of the input parameter failed
 175:.\Generated_Source\PSoC4/BLE_bas.c **** *
 176:.\Generated_Source\PSoC4/BLE_bas.c **** * \events
 177:.\Generated_Source\PSoC4/BLE_bas.c **** *  None
 178:.\Generated_Source\PSoC4/BLE_bas.c **** *
 179:.\Generated_Source\PSoC4/BLE_bas.c **** ******************************************************************************/
 180:.\Generated_Source\PSoC4/BLE_bas.c **** CYBLE_API_RESULT_T CyBle_BassGetCharacteristicValue(uint8 serviceIndex, CYBLE_BAS_CHAR_INDEX_T char
ARM GAS  C:\Users\Henny\AppData\Local\Temp\ccxxNiEo.s 			page 8


 181:.\Generated_Source\PSoC4/BLE_bas.c ****     uint8 attrSize, uint8 *attrValue)
 182:.\Generated_Source\PSoC4/BLE_bas.c **** {
 219              		.loc 1 182 0
 220              		.cfi_startproc
 221 0000 90B5     		push	{r4, r7, lr}
 222              		.cfi_def_cfa_offset 12
 223              		.cfi_offset 4, -12
 224              		.cfi_offset 7, -8
 225              		.cfi_offset 14, -4
 226 0002 87B0     		sub	sp, sp, #28
 227              		.cfi_def_cfa_offset 40
 228 0004 00AF     		add	r7, sp, #0
 229              		.cfi_def_cfa_register 7
 230 0006 041C     		mov	r4, r0
 231 0008 081C     		mov	r0, r1
 232 000a 111C     		mov	r1, r2
 233 000c 3B60     		str	r3, [r7]
 234 000e FB1D     		add	r3, r7, #7
 235 0010 221C     		add	r2, r4, #0
 236 0012 1A70     		strb	r2, [r3]
 237 0014 BB1D     		add	r3, r7, #6
 238 0016 021C     		add	r2, r0, #0
 239 0018 1A70     		strb	r2, [r3]
 240 001a 7B1D     		add	r3, r7, #5
 241 001c 0A1C     		add	r2, r1, #0
 242 001e 1A70     		strb	r2, [r3]
 183:.\Generated_Source\PSoC4/BLE_bas.c ****     CYBLE_API_RESULT_T apiResult = CYBLE_ERROR_OK;
 243              		.loc 1 183 0
 244 0020 1623     		mov	r3, #22
 245 0022 FB18     		add	r3, r7, r3
 246 0024 0022     		mov	r2, #0
 247 0026 1A80     		strh	r2, [r3]
 184:.\Generated_Source\PSoC4/BLE_bas.c ****     CYBLE_GATT_HANDLE_VALUE_PAIR_T locHandleValuePair;
 185:.\Generated_Source\PSoC4/BLE_bas.c **** 
 186:.\Generated_Source\PSoC4/BLE_bas.c ****     if((serviceIndex >= CYBLE_BASS_SERVICE_COUNT) || (charIndex >= CYBLE_BAS_CHAR_COUNT) ||
 248              		.loc 1 186 0
 249 0028 FB1D     		add	r3, r7, #7
 250 002a 1B78     		ldrb	r3, [r3]
 251 002c 002B     		cmp	r3, #0
 252 002e 07D1     		bne	.L13
 253              		.loc 1 186 0 is_stmt 0 discriminator 1
 254 0030 BB1D     		add	r3, r7, #6
 255 0032 1B78     		ldrb	r3, [r3]
 256 0034 002B     		cmp	r3, #0
 257 0036 03D1     		bne	.L13
 258              		.loc 1 186 0 discriminator 2
 259 0038 7B1D     		add	r3, r7, #5
 260 003a 1B78     		ldrb	r3, [r3]
 261 003c 012B     		cmp	r3, #1
 262 003e 04D0     		beq	.L14
 263              	.L13:
 187:.\Generated_Source\PSoC4/BLE_bas.c ****        (attrSize != CYBLE_BAS_BATTERY_LEVEL_LEN) )
 188:.\Generated_Source\PSoC4/BLE_bas.c ****     {
 189:.\Generated_Source\PSoC4/BLE_bas.c ****         apiResult = CYBLE_ERROR_INVALID_PARAMETER;
 264              		.loc 1 189 0 is_stmt 1
 265 0040 1623     		mov	r3, #22
 266 0042 FB18     		add	r3, r7, r3
ARM GAS  C:\Users\Henny\AppData\Local\Temp\ccxxNiEo.s 			page 9


 267 0044 0122     		mov	r2, #1
 268 0046 1A80     		strh	r2, [r3]
 269 0048 1FE0     		b	.L15
 270              	.L14:
 190:.\Generated_Source\PSoC4/BLE_bas.c ****     }
 191:.\Generated_Source\PSoC4/BLE_bas.c ****     else
 192:.\Generated_Source\PSoC4/BLE_bas.c ****     {
 193:.\Generated_Source\PSoC4/BLE_bas.c ****         /* Read characteristic value from database */
 194:.\Generated_Source\PSoC4/BLE_bas.c ****         locHandleValuePair.attrHandle = cyBle_bass[serviceIndex].batteryLevelHandle;
 271              		.loc 1 194 0
 272 004a FB1D     		add	r3, r7, #7
 273 004c 1B78     		ldrb	r3, [r3]
 274 004e 124A     		ldr	r2, .L17
 275 0050 DB00     		lsl	r3, r3, #3
 276 0052 D318     		add	r3, r2, r3
 277 0054 5A88     		ldrh	r2, [r3, #2]
 278 0056 0823     		mov	r3, #8
 279 0058 FB18     		add	r3, r7, r3
 280 005a 1A81     		strh	r2, [r3, #8]
 195:.\Generated_Source\PSoC4/BLE_bas.c ****         locHandleValuePair.value.len = attrSize;
 281              		.loc 1 195 0
 282 005c 7B1D     		add	r3, r7, #5
 283 005e 1B78     		ldrb	r3, [r3]
 284 0060 9AB2     		uxth	r2, r3
 285 0062 0823     		mov	r3, #8
 286 0064 FB18     		add	r3, r7, r3
 287 0066 9A80     		strh	r2, [r3, #4]
 196:.\Generated_Source\PSoC4/BLE_bas.c ****         locHandleValuePair.value.val = attrValue;
 288              		.loc 1 196 0
 289 0068 0823     		mov	r3, #8
 290 006a FB18     		add	r3, r7, r3
 291 006c 3A68     		ldr	r2, [r7]
 292 006e 1A60     		str	r2, [r3]
 197:.\Generated_Source\PSoC4/BLE_bas.c ****         if(CYBLE_GATT_ERR_NONE !=
 198:.\Generated_Source\PSoC4/BLE_bas.c ****             CyBle_GattsReadAttributeValue(&locHandleValuePair, NULL, CYBLE_GATT_DB_LOCALLY_INITIATE
 293              		.loc 1 198 0
 294 0070 0823     		mov	r3, #8
 295 0072 FB18     		add	r3, r7, r3
 296 0074 181C     		mov	r0, r3
 297 0076 0021     		mov	r1, #0
 298 0078 0022     		mov	r2, #0
 299 007a FFF7FEFF 		bl	CyBle_GattsReadAttributeValue
 300 007e 031E     		sub	r3, r0, #0
 197:.\Generated_Source\PSoC4/BLE_bas.c ****         if(CYBLE_GATT_ERR_NONE !=
 301              		.loc 1 197 0
 302 0080 03D0     		beq	.L15
 199:.\Generated_Source\PSoC4/BLE_bas.c ****         {
 200:.\Generated_Source\PSoC4/BLE_bas.c ****             apiResult = CYBLE_ERROR_INVALID_PARAMETER;
 303              		.loc 1 200 0
 304 0082 1623     		mov	r3, #22
 305 0084 FB18     		add	r3, r7, r3
 306 0086 0122     		mov	r2, #1
 307 0088 1A80     		strh	r2, [r3]
 308              	.L15:
 201:.\Generated_Source\PSoC4/BLE_bas.c ****         }
 202:.\Generated_Source\PSoC4/BLE_bas.c ****     }
 203:.\Generated_Source\PSoC4/BLE_bas.c ****     return (apiResult);
ARM GAS  C:\Users\Henny\AppData\Local\Temp\ccxxNiEo.s 			page 10


 309              		.loc 1 203 0
 310 008a 1623     		mov	r3, #22
 311 008c FB18     		add	r3, r7, r3
 312 008e 1B88     		ldrh	r3, [r3]
 204:.\Generated_Source\PSoC4/BLE_bas.c **** }
 313              		.loc 1 204 0
 314 0090 181C     		mov	r0, r3
 315 0092 BD46     		mov	sp, r7
 316 0094 07B0     		add	sp, sp, #28
 317              		@ sp needed
 318 0096 90BD     		pop	{r4, r7, pc}
 319              	.L18:
 320              		.align	2
 321              	.L17:
 322 0098 00000000 		.word	cyBle_bass
 323              		.cfi_endproc
 324              	.LFE5:
 325              		.size	CyBle_BassGetCharacteristicValue, .-CyBle_BassGetCharacteristicValue
 326              		.section	.text.CyBle_BassGetCharacteristicDescriptor,"ax",%progbits
 327              		.align	2
 328              		.global	CyBle_BassGetCharacteristicDescriptor
 329              		.code	16
 330              		.thumb_func
 331              		.type	CyBle_BassGetCharacteristicDescriptor, %function
 332              	CyBle_BassGetCharacteristicDescriptor:
 333              	.LFB6:
 205:.\Generated_Source\PSoC4/BLE_bas.c **** 
 206:.\Generated_Source\PSoC4/BLE_bas.c **** 
 207:.\Generated_Source\PSoC4/BLE_bas.c **** /******************************************************************************
 208:.\Generated_Source\PSoC4/BLE_bas.c **** * Function Name: CyBle_BassGetCharacteristicDescriptor
 209:.\Generated_Source\PSoC4/BLE_bas.c **** ***************************************************************************//**
 210:.\Generated_Source\PSoC4/BLE_bas.c **** * 
 211:.\Generated_Source\PSoC4/BLE_bas.c **** *  Gets a characteristic descriptor of a specified characteristic of the 
 212:.\Generated_Source\PSoC4/BLE_bas.c **** *   Battery service from the local GATT database.
 213:.\Generated_Source\PSoC4/BLE_bas.c **** * 
 214:.\Generated_Source\PSoC4/BLE_bas.c **** *  \param serviceIndex: The index of the service instance. e.g. If two Battery Services
 215:.\Generated_Source\PSoC4/BLE_bas.c **** *                 are supported in your design, then first service will be 
 216:.\Generated_Source\PSoC4/BLE_bas.c **** *                 identified by serviceIndex of 0 and the second by serviceIndex
 217:.\Generated_Source\PSoC4/BLE_bas.c **** *                 of 1.
 218:.\Generated_Source\PSoC4/BLE_bas.c **** *  \param charIndex: The index of a service characteristic of type 
 219:.\Generated_Source\PSoC4/BLE_bas.c **** *              CYBLE_BAS_CHAR_INDEX_T.
 220:.\Generated_Source\PSoC4/BLE_bas.c **** *  \param descrIndex: The index of a service characteristic descriptor of type 
 221:.\Generated_Source\PSoC4/BLE_bas.c **** *               CYBLE_BAS_DESCR_INDEX_T.
 222:.\Generated_Source\PSoC4/BLE_bas.c **** *  \param attrSize: The size of the characteristic descriptor attribute.
 223:.\Generated_Source\PSoC4/BLE_bas.c **** *  \param attrValue: The pointer to the location where characteristic descriptor 
 224:.\Generated_Source\PSoC4/BLE_bas.c **** *               value data should be stored.
 225:.\Generated_Source\PSoC4/BLE_bas.c **** * 
 226:.\Generated_Source\PSoC4/BLE_bas.c **** * \return
 227:.\Generated_Source\PSoC4/BLE_bas.c **** *  Return value is of type CYBLE_API_RESULT_T.
 228:.\Generated_Source\PSoC4/BLE_bas.c **** *  * CYBLE_ERROR_OK - The request handled successfully
 229:.\Generated_Source\PSoC4/BLE_bas.c **** *  * CYBLE_ERROR_INVALID_PARAMETER - Validation of the input parameter failed
 230:.\Generated_Source\PSoC4/BLE_bas.c **** *
 231:.\Generated_Source\PSoC4/BLE_bas.c **** * \events
 232:.\Generated_Source\PSoC4/BLE_bas.c **** *  None
 233:.\Generated_Source\PSoC4/BLE_bas.c **** *
 234:.\Generated_Source\PSoC4/BLE_bas.c **** ******************************************************************************/
 235:.\Generated_Source\PSoC4/BLE_bas.c **** CYBLE_API_RESULT_T CyBle_BassGetCharacteristicDescriptor(uint8 serviceIndex, CYBLE_BAS_CHAR_INDEX_T
ARM GAS  C:\Users\Henny\AppData\Local\Temp\ccxxNiEo.s 			page 11


 236:.\Generated_Source\PSoC4/BLE_bas.c ****     CYBLE_BAS_DESCR_INDEX_T descrIndex, uint8 attrSize, uint8 *attrValue)
 237:.\Generated_Source\PSoC4/BLE_bas.c **** {
 334              		.loc 1 237 0
 335              		.cfi_startproc
 336 0000 B0B5     		push	{r4, r5, r7, lr}
 337              		.cfi_def_cfa_offset 16
 338              		.cfi_offset 4, -16
 339              		.cfi_offset 5, -12
 340              		.cfi_offset 7, -8
 341              		.cfi_offset 14, -4
 342 0002 86B0     		sub	sp, sp, #24
 343              		.cfi_def_cfa_offset 40
 344 0004 00AF     		add	r7, sp, #0
 345              		.cfi_def_cfa_register 7
 346 0006 051C     		mov	r5, r0
 347 0008 0C1C     		mov	r4, r1
 348 000a 101C     		mov	r0, r2
 349 000c 191C     		mov	r1, r3
 350 000e FB1D     		add	r3, r7, #7
 351 0010 2A1C     		add	r2, r5, #0
 352 0012 1A70     		strb	r2, [r3]
 353 0014 BB1D     		add	r3, r7, #6
 354 0016 221C     		add	r2, r4, #0
 355 0018 1A70     		strb	r2, [r3]
 356 001a 7B1D     		add	r3, r7, #5
 357 001c 021C     		add	r2, r0, #0
 358 001e 1A70     		strb	r2, [r3]
 359 0020 3B1D     		add	r3, r7, #4
 360 0022 0A1C     		add	r2, r1, #0
 361 0024 1A70     		strb	r2, [r3]
 238:.\Generated_Source\PSoC4/BLE_bas.c ****     CYBLE_API_RESULT_T apiResult = CYBLE_ERROR_OK;
 362              		.loc 1 238 0
 363 0026 1623     		mov	r3, #22
 364 0028 FB18     		add	r3, r7, r3
 365 002a 0022     		mov	r2, #0
 366 002c 1A80     		strh	r2, [r3]
 239:.\Generated_Source\PSoC4/BLE_bas.c ****     CYBLE_GATT_HANDLE_VALUE_PAIR_T locHandleValuePair;
 240:.\Generated_Source\PSoC4/BLE_bas.c **** 
 241:.\Generated_Source\PSoC4/BLE_bas.c ****     if((serviceIndex >= CYBLE_BASS_SERVICE_COUNT) || (charIndex >= CYBLE_BAS_CHAR_COUNT) ||
 367              		.loc 1 241 0
 368 002e FB1D     		add	r3, r7, #7
 369 0030 1B78     		ldrb	r3, [r3]
 370 0032 002B     		cmp	r3, #0
 371 0034 07D1     		bne	.L20
 372              		.loc 1 241 0 is_stmt 0 discriminator 1
 373 0036 BB1D     		add	r3, r7, #6
 374 0038 1B78     		ldrb	r3, [r3]
 375 003a 002B     		cmp	r3, #0
 376 003c 03D1     		bne	.L20
 377              		.loc 1 241 0 discriminator 2
 378 003e 7B1D     		add	r3, r7, #5
 379 0040 1B78     		ldrb	r3, [r3]
 380 0042 012B     		cmp	r3, #1
 381 0044 04D9     		bls	.L21
 382              	.L20:
 242:.\Generated_Source\PSoC4/BLE_bas.c ****        (descrIndex >= CYBLE_BAS_DESCR_COUNT))
 243:.\Generated_Source\PSoC4/BLE_bas.c ****     {
ARM GAS  C:\Users\Henny\AppData\Local\Temp\ccxxNiEo.s 			page 12


 244:.\Generated_Source\PSoC4/BLE_bas.c ****         apiResult = CYBLE_ERROR_INVALID_PARAMETER;
 383              		.loc 1 244 0 is_stmt 1
 384 0046 1623     		mov	r3, #22
 385 0048 FB18     		add	r3, r7, r3
 386 004a 0122     		mov	r2, #1
 387 004c 1A80     		strh	r2, [r3]
 388 004e 28E0     		b	.L22
 389              	.L21:
 245:.\Generated_Source\PSoC4/BLE_bas.c ****     }
 246:.\Generated_Source\PSoC4/BLE_bas.c ****     else
 247:.\Generated_Source\PSoC4/BLE_bas.c ****     {
 248:.\Generated_Source\PSoC4/BLE_bas.c ****         /* Get data from database */
 249:.\Generated_Source\PSoC4/BLE_bas.c ****         if(descrIndex == CYBLE_BAS_BATTERY_LEVEL_CCCD)
 390              		.loc 1 249 0
 391 0050 7B1D     		add	r3, r7, #5
 392 0052 1B78     		ldrb	r3, [r3]
 393 0054 002B     		cmp	r3, #0
 394 0056 04D1     		bne	.L23
 250:.\Generated_Source\PSoC4/BLE_bas.c ****         {
 251:.\Generated_Source\PSoC4/BLE_bas.c ****             locHandleValuePair.attrHandle = cyBle_bass[serviceIndex].cccdHandle;
 395              		.loc 1 251 0
 396 0058 2022     		mov	r2, #32
 397 005a 0823     		mov	r3, #8
 398 005c FB18     		add	r3, r7, r3
 399 005e 1A81     		strh	r2, [r3, #8]
 400 0060 08E0     		b	.L24
 401              	.L23:
 252:.\Generated_Source\PSoC4/BLE_bas.c ****         }
 253:.\Generated_Source\PSoC4/BLE_bas.c ****         else
 254:.\Generated_Source\PSoC4/BLE_bas.c ****         {
 255:.\Generated_Source\PSoC4/BLE_bas.c ****             locHandleValuePair.attrHandle = cyBle_bass[serviceIndex].cpfdHandle;
 402              		.loc 1 255 0
 403 0062 FB1D     		add	r3, r7, #7
 404 0064 1B78     		ldrb	r3, [r3]
 405 0066 124A     		ldr	r2, .L26
 406 0068 DB00     		lsl	r3, r3, #3
 407 006a D318     		add	r3, r2, r3
 408 006c 9A88     		ldrh	r2, [r3, #4]
 409 006e 0823     		mov	r3, #8
 410 0070 FB18     		add	r3, r7, r3
 411 0072 1A81     		strh	r2, [r3, #8]
 412              	.L24:
 256:.\Generated_Source\PSoC4/BLE_bas.c ****         }
 257:.\Generated_Source\PSoC4/BLE_bas.c ****         locHandleValuePair.value.len = attrSize;
 413              		.loc 1 257 0
 414 0074 3B1D     		add	r3, r7, #4
 415 0076 1B78     		ldrb	r3, [r3]
 416 0078 9AB2     		uxth	r2, r3
 417 007a 0823     		mov	r3, #8
 418 007c FB18     		add	r3, r7, r3
 419 007e 9A80     		strh	r2, [r3, #4]
 258:.\Generated_Source\PSoC4/BLE_bas.c ****         locHandleValuePair.value.val = attrValue;
 420              		.loc 1 258 0
 421 0080 0823     		mov	r3, #8
 422 0082 FB18     		add	r3, r7, r3
 423 0084 BA6A     		ldr	r2, [r7, #40]
 424 0086 1A60     		str	r2, [r3]
ARM GAS  C:\Users\Henny\AppData\Local\Temp\ccxxNiEo.s 			page 13


 259:.\Generated_Source\PSoC4/BLE_bas.c ****         if(CYBLE_GATT_ERR_NONE !=
 260:.\Generated_Source\PSoC4/BLE_bas.c ****             CyBle_GattsReadAttributeValue(&locHandleValuePair, NULL, CYBLE_GATT_DB_LOCALLY_INITIATE
 425              		.loc 1 260 0
 426 0088 0823     		mov	r3, #8
 427 008a FB18     		add	r3, r7, r3
 428 008c 181C     		mov	r0, r3
 429 008e 0021     		mov	r1, #0
 430 0090 0022     		mov	r2, #0
 431 0092 FFF7FEFF 		bl	CyBle_GattsReadAttributeValue
 432 0096 031E     		sub	r3, r0, #0
 259:.\Generated_Source\PSoC4/BLE_bas.c ****         if(CYBLE_GATT_ERR_NONE !=
 433              		.loc 1 259 0
 434 0098 03D0     		beq	.L22
 261:.\Generated_Source\PSoC4/BLE_bas.c ****         {
 262:.\Generated_Source\PSoC4/BLE_bas.c ****             apiResult = CYBLE_ERROR_INVALID_PARAMETER;
 435              		.loc 1 262 0
 436 009a 1623     		mov	r3, #22
 437 009c FB18     		add	r3, r7, r3
 438 009e 0122     		mov	r2, #1
 439 00a0 1A80     		strh	r2, [r3]
 440              	.L22:
 263:.\Generated_Source\PSoC4/BLE_bas.c ****         }
 264:.\Generated_Source\PSoC4/BLE_bas.c ****     }
 265:.\Generated_Source\PSoC4/BLE_bas.c ****     return (apiResult);
 441              		.loc 1 265 0
 442 00a2 1623     		mov	r3, #22
 443 00a4 FB18     		add	r3, r7, r3
 444 00a6 1B88     		ldrh	r3, [r3]
 266:.\Generated_Source\PSoC4/BLE_bas.c **** }
 445              		.loc 1 266 0
 446 00a8 181C     		mov	r0, r3
 447 00aa BD46     		mov	sp, r7
 448 00ac 06B0     		add	sp, sp, #24
 449              		@ sp needed
 450 00ae B0BD     		pop	{r4, r5, r7, pc}
 451              	.L27:
 452              		.align	2
 453              	.L26:
 454 00b0 00000000 		.word	cyBle_bass
 455              		.cfi_endproc
 456              	.LFE6:
 457              		.size	CyBle_BassGetCharacteristicDescriptor, .-CyBle_BassGetCharacteristicDescriptor
 458              		.section	.text.CyBle_BassWriteEventHandler,"ax",%progbits
 459              		.align	2
 460              		.global	CyBle_BassWriteEventHandler
 461              		.code	16
 462              		.thumb_func
 463              		.type	CyBle_BassWriteEventHandler, %function
 464              	CyBle_BassWriteEventHandler:
 465              	.LFB7:
 267:.\Generated_Source\PSoC4/BLE_bas.c **** 
 268:.\Generated_Source\PSoC4/BLE_bas.c **** 
 269:.\Generated_Source\PSoC4/BLE_bas.c **** /******************************************************************************
 270:.\Generated_Source\PSoC4/BLE_bas.c **** * Function Name: CyBle_BassWriteEventHandler
 271:.\Generated_Source\PSoC4/BLE_bas.c **** ***************************************************************************//**
 272:.\Generated_Source\PSoC4/BLE_bas.c **** * 
 273:.\Generated_Source\PSoC4/BLE_bas.c **** *  Handles the Write Request Event for Battery service.
ARM GAS  C:\Users\Henny\AppData\Local\Temp\ccxxNiEo.s 			page 14


 274:.\Generated_Source\PSoC4/BLE_bas.c **** * 
 275:.\Generated_Source\PSoC4/BLE_bas.c **** *  \param void *eventParam: the pointer to the data structure specified by the event.
 276:.\Generated_Source\PSoC4/BLE_bas.c **** * 
 277:.\Generated_Source\PSoC4/BLE_bas.c **** * \return
 278:.\Generated_Source\PSoC4/BLE_bas.c **** *  Return value is of type CYBLE_GATT_ERR_CODE_T.
 279:.\Generated_Source\PSoC4/BLE_bas.c **** *   * CYBLE_GATT_ERR_NONE - Write request is handled successfully.
 280:.\Generated_Source\PSoC4/BLE_bas.c **** *   * CYBLE_GATT_ERR_REQUEST_NOT_SUPPORTED - Notification isn't supported.
 281:.\Generated_Source\PSoC4/BLE_bas.c **** *   * CYBLE_GATT_ERR_UNLIKELY_ERROR - Internal error while writing attribute
 282:.\Generated_Source\PSoC4/BLE_bas.c **** *                                      value.
 283:.\Generated_Source\PSoC4/BLE_bas.c **** * 
 284:.\Generated_Source\PSoC4/BLE_bas.c **** ******************************************************************************/
 285:.\Generated_Source\PSoC4/BLE_bas.c **** CYBLE_GATT_ERR_CODE_T CyBle_BassWriteEventHandler(CYBLE_GATTS_WRITE_REQ_PARAM_T *eventParam)
 286:.\Generated_Source\PSoC4/BLE_bas.c **** {
 466              		.loc 1 286 0
 467              		.cfi_startproc
 468 0000 90B5     		push	{r4, r7, lr}
 469              		.cfi_def_cfa_offset 12
 470              		.cfi_offset 4, -12
 471              		.cfi_offset 7, -8
 472              		.cfi_offset 14, -4
 473 0002 87B0     		sub	sp, sp, #28
 474              		.cfi_def_cfa_offset 40
 475 0004 00AF     		add	r7, sp, #0
 476              		.cfi_def_cfa_register 7
 477 0006 7860     		str	r0, [r7, #4]
 287:.\Generated_Source\PSoC4/BLE_bas.c ****     uint8 locServIndex = 0u;
 478              		.loc 1 287 0
 479 0008 1723     		mov	r3, #23
 480 000a FB18     		add	r3, r7, r3
 481 000c 0022     		mov	r2, #0
 482 000e 1A70     		strb	r2, [r3]
 288:.\Generated_Source\PSoC4/BLE_bas.c ****     CYBLE_BAS_CHAR_VALUE_T locCharIndex;
 289:.\Generated_Source\PSoC4/BLE_bas.c ****     CYBLE_GATT_ERR_CODE_T gattErr = CYBLE_GATT_ERR_NONE;
 483              		.loc 1 289 0
 484 0010 1623     		mov	r3, #22
 485 0012 FB18     		add	r3, r7, r3
 486 0014 0022     		mov	r2, #0
 487 0016 1A70     		strb	r2, [r3]
 290:.\Generated_Source\PSoC4/BLE_bas.c **** 
 291:.\Generated_Source\PSoC4/BLE_bas.c ****     if(NULL != CyBle_BasApplCallback)
 488              		.loc 1 291 0
 489 0018 414B     		ldr	r3, .L37
 490 001a 1B68     		ldr	r3, [r3]
 491 001c 002B     		cmp	r3, #0
 492 001e 00D1     		bne	.LCB417
 493 0020 76E0     		b	.L29	@long jump
 494              	.LCB417:
 495              	.L35:
 292:.\Generated_Source\PSoC4/BLE_bas.c ****     {
 293:.\Generated_Source\PSoC4/BLE_bas.c ****         do
 294:.\Generated_Source\PSoC4/BLE_bas.c ****         {
 295:.\Generated_Source\PSoC4/BLE_bas.c ****             /* Client Characteristic Configuration descriptor write request */
 296:.\Generated_Source\PSoC4/BLE_bas.c ****             if(eventParam->handleValPair.attrHandle == cyBle_bass[locServIndex].cccdHandle)
 496              		.loc 1 296 0
 497 0022 7B68     		ldr	r3, [r7, #4]
 498 0024 9B89     		ldrh	r3, [r3, #12]
 499 0026 2022     		mov	r2, #32
ARM GAS  C:\Users\Henny\AppData\Local\Temp\ccxxNiEo.s 			page 15


 500 0028 9342     		cmp	r3, r2
 501 002a 65D1     		bne	.L30
 297:.\Generated_Source\PSoC4/BLE_bas.c ****             {
 298:.\Generated_Source\PSoC4/BLE_bas.c ****                 /* Verify that optional notification property is enabled for Battery Level characte
 299:.\Generated_Source\PSoC4/BLE_bas.c ****                 if(CYBLE_IS_NOTIFICATION_SUPPORTED(cyBle_bass[locServIndex].batteryLevelHandle))
 502              		.loc 1 299 0
 503 002c 1723     		mov	r3, #23
 504 002e FB18     		add	r3, r7, r3
 505 0030 1B78     		ldrb	r3, [r3]
 506 0032 3C4A     		ldr	r2, .L37+4
 507 0034 DB00     		lsl	r3, r3, #3
 508 0036 D318     		add	r3, r2, r3
 509 0038 5B88     		ldrh	r3, [r3, #2]
 510 003a 5A1E     		sub	r2, r3, #1
 511 003c 3A49     		ldr	r1, .L37+8
 512 003e 131C     		mov	r3, r2
 513 0040 9B00     		lsl	r3, r3, #2
 514 0042 9B18     		add	r3, r3, r2
 515 0044 9B00     		lsl	r3, r3, #2
 516 0046 CB18     		add	r3, r1, r3
 517 0048 5A68     		ldr	r2, [r3, #4]
 518 004a 8023     		mov	r3, #128
 519 004c 5B01     		lsl	r3, r3, #5
 520 004e 1340     		and	r3, r2
 521 0050 45D0     		beq	.L31
 300:.\Generated_Source\PSoC4/BLE_bas.c ****                 {
 301:.\Generated_Source\PSoC4/BLE_bas.c ****                     gattErr = CyBle_GattsWriteAttributeValue(&eventParam->handleValPair, 0u, 
 522              		.loc 1 301 0
 523 0052 7B68     		ldr	r3, [r7, #4]
 524 0054 1A1D     		add	r2, r3, #4
 525 0056 7B68     		ldr	r3, [r7, #4]
 526 0058 1621     		mov	r1, #22
 527 005a 7C18     		add	r4, r7, r1
 528 005c 101C     		mov	r0, r2
 529 005e 0021     		mov	r1, #0
 530 0060 1A1C     		mov	r2, r3
 531 0062 4023     		mov	r3, #64
 532 0064 FFF7FEFF 		bl	CyBle_GattsWriteAttributeValue
 533 0068 031C     		mov	r3, r0
 534 006a 2370     		strb	r3, [r4]
 302:.\Generated_Source\PSoC4/BLE_bas.c ****                         &eventParam->connHandle, CYBLE_GATT_DB_PEER_INITIATED);
 303:.\Generated_Source\PSoC4/BLE_bas.c ****                     if(CYBLE_GATT_ERR_NONE == gattErr)
 535              		.loc 1 303 0
 536 006c 1623     		mov	r3, #22
 537 006e FB18     		add	r3, r7, r3
 538 0070 1B78     		ldrb	r3, [r3]
 539 0072 002B     		cmp	r3, #0
 540 0074 37D1     		bne	.L34
 304:.\Generated_Source\PSoC4/BLE_bas.c ****                     {
 305:.\Generated_Source\PSoC4/BLE_bas.c ****                         locCharIndex.connHandle = eventParam->connHandle;
 541              		.loc 1 305 0
 542 0076 0C23     		mov	r3, #12
 543 0078 FB18     		add	r3, r7, r3
 544 007a 7A68     		ldr	r2, [r7, #4]
 545 007c 1288     		ldrh	r2, [r2]
 546 007e 1A80     		strh	r2, [r3]
 306:.\Generated_Source\PSoC4/BLE_bas.c ****                         locCharIndex.serviceIndex = locServIndex;
ARM GAS  C:\Users\Henny\AppData\Local\Temp\ccxxNiEo.s 			page 16


 547              		.loc 1 306 0
 548 0080 0C23     		mov	r3, #12
 549 0082 FB18     		add	r3, r7, r3
 550 0084 1722     		mov	r2, #23
 551 0086 BA18     		add	r2, r7, r2
 552 0088 1278     		ldrb	r2, [r2]
 553 008a 9A70     		strb	r2, [r3, #2]
 307:.\Generated_Source\PSoC4/BLE_bas.c ****                         locCharIndex.charIndex = CYBLE_BAS_BATTERY_LEVEL;
 554              		.loc 1 307 0
 555 008c 0C23     		mov	r3, #12
 556 008e FB18     		add	r3, r7, r3
 557 0090 0022     		mov	r2, #0
 558 0092 DA70     		strb	r2, [r3, #3]
 308:.\Generated_Source\PSoC4/BLE_bas.c ****                         locCharIndex.value = NULL;
 559              		.loc 1 308 0
 560 0094 0C23     		mov	r3, #12
 561 0096 FB18     		add	r3, r7, r3
 562 0098 0022     		mov	r2, #0
 563 009a 5A60     		str	r2, [r3, #4]
 309:.\Generated_Source\PSoC4/BLE_bas.c ****                         
 310:.\Generated_Source\PSoC4/BLE_bas.c ****                         if(CYBLE_IS_NOTIFICATION_ENABLED_IN_PTR(eventParam->handleValPair.value.val
 564              		.loc 1 310 0
 565 009c 7B68     		ldr	r3, [r7, #4]
 566 009e 5B68     		ldr	r3, [r3, #4]
 567 00a0 181C     		mov	r0, r3
 568 00a2 FFF7FEFF 		bl	CyBle_Get16ByPtr
 569 00a6 031C     		mov	r3, r0
 570 00a8 1A1C     		mov	r2, r3
 571 00aa 0123     		mov	r3, #1
 572 00ac 1340     		and	r3, r2
 573 00ae 9BB2     		uxth	r3, r3
 574 00b0 002B     		cmp	r3, #0
 575 00b2 0AD0     		beq	.L33
 311:.\Generated_Source\PSoC4/BLE_bas.c ****                         {
 312:.\Generated_Source\PSoC4/BLE_bas.c ****                             CyBle_BasApplCallback((uint32)CYBLE_EVT_BASS_NOTIFICATION_ENABLED, &loc
 576              		.loc 1 312 0
 577 00b4 1A4B     		ldr	r3, .L37
 578 00b6 1B68     		ldr	r3, [r3]
 579 00b8 2422     		mov	r2, #36
 580 00ba FF32     		add	r2, r2, #255
 581 00bc 111C     		mov	r1, r2
 582 00be 0C22     		mov	r2, #12
 583 00c0 BA18     		add	r2, r7, r2
 584 00c2 081C     		mov	r0, r1
 585 00c4 111C     		mov	r1, r2
 586 00c6 9847     		blx	r3
 587 00c8 0DE0     		b	.L34
 588              	.L33:
 313:.\Generated_Source\PSoC4/BLE_bas.c ****                         }
 314:.\Generated_Source\PSoC4/BLE_bas.c ****                         else
 315:.\Generated_Source\PSoC4/BLE_bas.c ****                         {
 316:.\Generated_Source\PSoC4/BLE_bas.c ****                             CyBle_BasApplCallback((uint32)CYBLE_EVT_BASS_NOTIFICATION_DISABLED, &lo
 589              		.loc 1 316 0
 590 00ca 154B     		ldr	r3, .L37
 591 00cc 1B68     		ldr	r3, [r3]
 592 00ce 9222     		mov	r2, #146
 593 00d0 5100     		lsl	r1, r2, #1
ARM GAS  C:\Users\Henny\AppData\Local\Temp\ccxxNiEo.s 			page 17


 594 00d2 0C22     		mov	r2, #12
 595 00d4 BA18     		add	r2, r7, r2
 596 00d6 081C     		mov	r0, r1
 597 00d8 111C     		mov	r1, r2
 598 00da 9847     		blx	r3
 599 00dc 03E0     		b	.L34
 600              	.L31:
 317:.\Generated_Source\PSoC4/BLE_bas.c ****                         }
 318:.\Generated_Source\PSoC4/BLE_bas.c ****                     #if((CYBLE_GAP_ROLE_PERIPHERAL || CYBLE_GAP_ROLE_CENTRAL) && \
 319:.\Generated_Source\PSoC4/BLE_bas.c ****                         (CYBLE_BONDING_REQUIREMENT == CYBLE_BONDING_YES))
 320:.\Generated_Source\PSoC4/BLE_bas.c ****                         /* Set flag to store bonding data to flash */
 321:.\Generated_Source\PSoC4/BLE_bas.c ****                         if(cyBle_peerBonding == CYBLE_GAP_BONDING)
 322:.\Generated_Source\PSoC4/BLE_bas.c ****                         {
 323:.\Generated_Source\PSoC4/BLE_bas.c ****                             cyBle_pendingFlashWrite |= CYBLE_PENDING_CCCD_FLASH_WRITE_BIT;
 324:.\Generated_Source\PSoC4/BLE_bas.c ****                         }
 325:.\Generated_Source\PSoC4/BLE_bas.c ****                     #endif /* (CYBLE_BONDING_REQUIREMENT == CYBLE_BONDING_YES) */
 326:.\Generated_Source\PSoC4/BLE_bas.c ****                     }
 327:.\Generated_Source\PSoC4/BLE_bas.c ****                 }
 328:.\Generated_Source\PSoC4/BLE_bas.c ****                 else
 329:.\Generated_Source\PSoC4/BLE_bas.c ****                 {
 330:.\Generated_Source\PSoC4/BLE_bas.c ****                     gattErr = CYBLE_GATT_ERR_REQUEST_NOT_SUPPORTED;
 601              		.loc 1 330 0
 602 00de 1623     		mov	r3, #22
 603 00e0 FB18     		add	r3, r7, r3
 604 00e2 0622     		mov	r2, #6
 605 00e4 1A70     		strb	r2, [r3]
 606              	.L34:
 331:.\Generated_Source\PSoC4/BLE_bas.c ****                 }
 332:.\Generated_Source\PSoC4/BLE_bas.c ****                 cyBle_eventHandlerFlag &= (uint8)~CYBLE_CALLBACK;
 607              		.loc 1 332 0
 608 00e6 114B     		ldr	r3, .L37+12
 609 00e8 1B78     		ldrb	r3, [r3]
 610 00ea DBB2     		uxtb	r3, r3
 611 00ec 0122     		mov	r2, #1
 612 00ee 9343     		bic	r3, r2
 613 00f0 DAB2     		uxtb	r2, r3
 614 00f2 0E4B     		ldr	r3, .L37+12
 615 00f4 1A70     		strb	r2, [r3]
 333:.\Generated_Source\PSoC4/BLE_bas.c ****                 break;
 616              		.loc 1 333 0
 617 00f6 0BE0     		b	.L29
 618              	.L30:
 334:.\Generated_Source\PSoC4/BLE_bas.c ****             }
 335:.\Generated_Source\PSoC4/BLE_bas.c ****         locServIndex++;
 619              		.loc 1 335 0
 620 00f8 1723     		mov	r3, #23
 621 00fa FB18     		add	r3, r7, r3
 622 00fc 1A78     		ldrb	r2, [r3]
 623 00fe 1723     		mov	r3, #23
 624 0100 FB18     		add	r3, r7, r3
 625 0102 0132     		add	r2, r2, #1
 626 0104 1A70     		strb	r2, [r3]
 336:.\Generated_Source\PSoC4/BLE_bas.c ****         }while(locServIndex < CYBLE_BASS_SERVICE_COUNT);
 627              		.loc 1 336 0
 628 0106 1723     		mov	r3, #23
 629 0108 FB18     		add	r3, r7, r3
 630 010a 1B78     		ldrb	r3, [r3]
ARM GAS  C:\Users\Henny\AppData\Local\Temp\ccxxNiEo.s 			page 18


 631 010c 002B     		cmp	r3, #0
 632 010e 88D0     		beq	.L35
 633              	.L29:
 337:.\Generated_Source\PSoC4/BLE_bas.c ****     }
 338:.\Generated_Source\PSoC4/BLE_bas.c ****     return (gattErr);
 634              		.loc 1 338 0
 635 0110 1623     		mov	r3, #22
 636 0112 FB18     		add	r3, r7, r3
 637 0114 1B78     		ldrb	r3, [r3]
 339:.\Generated_Source\PSoC4/BLE_bas.c **** }
 638              		.loc 1 339 0
 639 0116 181C     		mov	r0, r3
 640 0118 BD46     		mov	sp, r7
 641 011a 07B0     		add	sp, sp, #28
 642              		@ sp needed
 643 011c 90BD     		pop	{r4, r7, pc}
 644              	.L38:
 645 011e C046     		.align	2
 646              	.L37:
 647 0120 00000000 		.word	CyBle_BasApplCallback
 648 0124 00000000 		.word	cyBle_bass
 649 0128 00000000 		.word	cyBle_gattDB
 650 012c 00000000 		.word	cyBle_eventHandlerFlag
 651              		.cfi_endproc
 652              	.LFE7:
 653              		.size	CyBle_BassWriteEventHandler, .-CyBle_BassWriteEventHandler
 654              		.section	.text.CyBle_BassSendNotification,"ax",%progbits
 655              		.align	2
 656              		.global	CyBle_BassSendNotification
 657              		.code	16
 658              		.thumb_func
 659              		.type	CyBle_BassSendNotification, %function
 660              	CyBle_BassSendNotification:
 661              	.LFB8:
 340:.\Generated_Source\PSoC4/BLE_bas.c **** 
 341:.\Generated_Source\PSoC4/BLE_bas.c **** 
 342:.\Generated_Source\PSoC4/BLE_bas.c **** /******************************************************************************
 343:.\Generated_Source\PSoC4/BLE_bas.c **** * Function Name: CyBle_BassSendNotification
 344:.\Generated_Source\PSoC4/BLE_bas.c **** ***************************************************************************//**
 345:.\Generated_Source\PSoC4/BLE_bas.c **** * 
 346:.\Generated_Source\PSoC4/BLE_bas.c **** *  This function updates the value of the Battery Level characteristic in the 
 347:.\Generated_Source\PSoC4/BLE_bas.c **** *  GATT database. If the client has configured a notification on the Battery
 348:.\Generated_Source\PSoC4/BLE_bas.c **** *  Level characteristic, the function additionally sends this value using a 
 349:.\Generated_Source\PSoC4/BLE_bas.c **** *  GATT Notification message.
 350:.\Generated_Source\PSoC4/BLE_bas.c **** * 
 351:.\Generated_Source\PSoC4/BLE_bas.c **** *  The CYBLE_EVT_BASC_NOTIFICATION event is received by the peer device, on 
 352:.\Generated_Source\PSoC4/BLE_bas.c **** *  invoking this function.
 353:.\Generated_Source\PSoC4/BLE_bas.c **** * 
 354:.\Generated_Source\PSoC4/BLE_bas.c **** *  \param connHandle: The BLE peer device connection handle
 355:.\Generated_Source\PSoC4/BLE_bas.c **** *  \param serviceIndex: The index of the service instance. e.g. If two Battery Services
 356:.\Generated_Source\PSoC4/BLE_bas.c **** *                 are supported in your design, then first service will be 
 357:.\Generated_Source\PSoC4/BLE_bas.c **** *                 identified by serviceIndex of 0 and the second by 
 358:.\Generated_Source\PSoC4/BLE_bas.c **** *                 serviceIndex of 1.
 359:.\Generated_Source\PSoC4/BLE_bas.c **** *  \param charIndex: The index of a service characteristic of type 
 360:.\Generated_Source\PSoC4/BLE_bas.c **** *              CYBLE_BAS_CHAR_INDEX_T.
 361:.\Generated_Source\PSoC4/BLE_bas.c **** *  \param attrSize: The size of the characteristic value attribute. A battery level
 362:.\Generated_Source\PSoC4/BLE_bas.c **** *             characteristic has 1 byte length.
ARM GAS  C:\Users\Henny\AppData\Local\Temp\ccxxNiEo.s 			page 19


 363:.\Generated_Source\PSoC4/BLE_bas.c **** *  \param attrValue: The pointer to the characteristic value data that should be
 364:.\Generated_Source\PSoC4/BLE_bas.c **** *               sent to the Client device.
 365:.\Generated_Source\PSoC4/BLE_bas.c **** * 
 366:.\Generated_Source\PSoC4/BLE_bas.c **** * \return
 367:.\Generated_Source\PSoC4/BLE_bas.c **** *  Return value is of type CYBLE_API_RESULT_T.
 368:.\Generated_Source\PSoC4/BLE_bas.c **** *   * CYBLE_ERROR_OK - The request handled successfully
 369:.\Generated_Source\PSoC4/BLE_bas.c **** *   * CYBLE_ERROR_INVALID_PARAMETER - Validation of the input parameter failed
 370:.\Generated_Source\PSoC4/BLE_bas.c **** *   * CYBLE_ERROR_INVALID_OPERATION - This operation is not permitted
 371:.\Generated_Source\PSoC4/BLE_bas.c **** *   * CYBLE_ERROR_INVALID_STATE - Connection with the client is not established
 372:.\Generated_Source\PSoC4/BLE_bas.c **** *   * CYBLE_ERROR_MEMORY_ALLOCATION_FAILED - Memory allocation failed. 
 373:.\Generated_Source\PSoC4/BLE_bas.c **** *   * CYBLE_ERROR_NTF_DISABLED - Notification is not enabled by the client.
 374:.\Generated_Source\PSoC4/BLE_bas.c **** * 
 375:.\Generated_Source\PSoC4/BLE_bas.c **** ******************************************************************************/
 376:.\Generated_Source\PSoC4/BLE_bas.c **** CYBLE_API_RESULT_T CyBle_BassSendNotification(CYBLE_CONN_HANDLE_T connHandle,
 377:.\Generated_Source\PSoC4/BLE_bas.c ****     uint8 serviceIndex, CYBLE_BAS_CHAR_INDEX_T charIndex, uint8 attrSize, uint8 *attrValue)
 378:.\Generated_Source\PSoC4/BLE_bas.c **** {
 662              		.loc 1 378 0
 663              		.cfi_startproc
 664 0000 90B5     		push	{r4, r7, lr}
 665              		.cfi_def_cfa_offset 12
 666              		.cfi_offset 4, -12
 667              		.cfi_offset 7, -8
 668              		.cfi_offset 14, -4
 669 0002 87B0     		sub	sp, sp, #28
 670              		.cfi_def_cfa_offset 40
 671 0004 00AF     		add	r7, sp, #0
 672              		.cfi_def_cfa_register 7
 673 0006 3C1D     		add	r4, r7, #4
 674 0008 2080     		strh	r0, [r4]
 675 000a 0C1C     		mov	r4, r1
 676 000c 101C     		mov	r0, r2
 677 000e 191C     		mov	r1, r3
 678 0010 FB1C     		add	r3, r7, #3
 679 0012 221C     		add	r2, r4, #0
 680 0014 1A70     		strb	r2, [r3]
 681 0016 BB1C     		add	r3, r7, #2
 682 0018 021C     		add	r2, r0, #0
 683 001a 1A70     		strb	r2, [r3]
 684 001c 7B1C     		add	r3, r7, #1
 685 001e 0A1C     		add	r2, r1, #0
 686 0020 1A70     		strb	r2, [r3]
 379:.\Generated_Source\PSoC4/BLE_bas.c ****     CYBLE_API_RESULT_T apiResult;
 380:.\Generated_Source\PSoC4/BLE_bas.c **** 
 381:.\Generated_Source\PSoC4/BLE_bas.c ****     /* Store new data in database */
 382:.\Generated_Source\PSoC4/BLE_bas.c ****     apiResult = CyBle_BassSetCharacteristicValue(serviceIndex, charIndex, attrSize, attrValue);
 687              		.loc 1 382 0
 688 0022 1623     		mov	r3, #22
 689 0024 FC18     		add	r4, r7, r3
 690 0026 FB1C     		add	r3, r7, #3
 691 0028 1878     		ldrb	r0, [r3]
 692 002a BB1C     		add	r3, r7, #2
 693 002c 1978     		ldrb	r1, [r3]
 694 002e 7B1C     		add	r3, r7, #1
 695 0030 1A78     		ldrb	r2, [r3]
 696 0032 BB6A     		ldr	r3, [r7, #40]
 697 0034 FFF7FEFF 		bl	CyBle_BassSetCharacteristicValue
 698 0038 031C     		mov	r3, r0
ARM GAS  C:\Users\Henny\AppData\Local\Temp\ccxxNiEo.s 			page 20


 699 003a 2380     		strh	r3, [r4]
 383:.\Generated_Source\PSoC4/BLE_bas.c ****     
 384:.\Generated_Source\PSoC4/BLE_bas.c ****     if(CYBLE_ERROR_OK == apiResult)  
 700              		.loc 1 384 0
 701 003c 1623     		mov	r3, #22
 702 003e FB18     		add	r3, r7, r3
 703 0040 1B88     		ldrh	r3, [r3]
 704 0042 002B     		cmp	r3, #0
 705 0044 45D1     		bne	.L40
 385:.\Generated_Source\PSoC4/BLE_bas.c ****     {
 386:.\Generated_Source\PSoC4/BLE_bas.c ****         /* Send Notification if it is enabled and connected */
 387:.\Generated_Source\PSoC4/BLE_bas.c ****         if(CYBLE_STATE_CONNECTED != CyBle_GetState())
 706              		.loc 1 387 0
 707 0046 264B     		ldr	r3, .L45
 708 0048 1B78     		ldrb	r3, [r3]
 709 004a 022B     		cmp	r3, #2
 710 004c 05D0     		beq	.L41
 388:.\Generated_Source\PSoC4/BLE_bas.c ****         {
 389:.\Generated_Source\PSoC4/BLE_bas.c ****             apiResult = CYBLE_ERROR_INVALID_STATE;
 711              		.loc 1 389 0
 712 004e 1623     		mov	r3, #22
 713 0050 FB18     		add	r3, r7, r3
 714 0052 0422     		mov	r2, #4
 715 0054 FF32     		add	r2, r2, #255
 716 0056 1A80     		strh	r2, [r3]
 717 0058 3BE0     		b	.L40
 718              	.L41:
 390:.\Generated_Source\PSoC4/BLE_bas.c ****         }
 391:.\Generated_Source\PSoC4/BLE_bas.c ****         else if((cyBle_bass[serviceIndex].cccdHandle == CYBLE_GATT_INVALID_ATTR_HANDLE_VALUE)
 719              		.loc 1 391 0
 720 005a 2023     		mov	r3, #32
 721 005c 002B     		cmp	r3, #0
 722 005e 14D0     		beq	.L42
 392:.\Generated_Source\PSoC4/BLE_bas.c ****             || (!CYBLE_IS_NOTIFICATION_ENABLED(cyBle_bass[serviceIndex].cccdHandle)))
 723              		.loc 1 392 0
 724 0060 2023     		mov	r3, #32
 725 0062 5A1E     		sub	r2, r3, #1
 726 0064 1F49     		ldr	r1, .L45+4
 727 0066 131C     		mov	r3, r2
 728 0068 9B00     		lsl	r3, r3, #2
 729 006a 9B18     		add	r3, r3, r2
 730 006c 9B00     		lsl	r3, r3, #2
 731 006e CB18     		add	r3, r1, r3
 732 0070 0833     		add	r3, r3, #8
 733 0072 9B68     		ldr	r3, [r3, #8]
 734 0074 5B68     		ldr	r3, [r3, #4]
 735 0076 181C     		mov	r0, r3
 736 0078 FFF7FEFF 		bl	CyBle_Get16ByPtr
 737 007c 031C     		mov	r3, r0
 738 007e 1A1C     		mov	r2, r3
 739 0080 0123     		mov	r3, #1
 740 0082 1340     		and	r3, r2
 741 0084 9BB2     		uxth	r3, r3
 742 0086 002B     		cmp	r3, #0
 743 0088 05D1     		bne	.L43
 744              	.L42:
 393:.\Generated_Source\PSoC4/BLE_bas.c ****         {
ARM GAS  C:\Users\Henny\AppData\Local\Temp\ccxxNiEo.s 			page 21


 394:.\Generated_Source\PSoC4/BLE_bas.c ****             apiResult = CYBLE_ERROR_NTF_DISABLED;
 745              		.loc 1 394 0
 746 008a 1623     		mov	r3, #22
 747 008c FB18     		add	r3, r7, r3
 748 008e 8022     		mov	r2, #128
 749 0090 5200     		lsl	r2, r2, #1
 750 0092 1A80     		strh	r2, [r3]
 751 0094 1DE0     		b	.L40
 752              	.L43:
 753              	.LBB2:
 395:.\Generated_Source\PSoC4/BLE_bas.c ****         }
 396:.\Generated_Source\PSoC4/BLE_bas.c ****         else
 397:.\Generated_Source\PSoC4/BLE_bas.c ****         {
 398:.\Generated_Source\PSoC4/BLE_bas.c ****             CYBLE_GATTS_HANDLE_VALUE_NTF_T ntfReqParam;
 399:.\Generated_Source\PSoC4/BLE_bas.c ****             
 400:.\Generated_Source\PSoC4/BLE_bas.c ****             /* Fill all fields of write request structure ... */
 401:.\Generated_Source\PSoC4/BLE_bas.c ****             ntfReqParam.attrHandle = cyBle_bass[serviceIndex].batteryLevelHandle;
 754              		.loc 1 401 0
 755 0096 FB1C     		add	r3, r7, #3
 756 0098 1B78     		ldrb	r3, [r3]
 757 009a 134A     		ldr	r2, .L45+8
 758 009c DB00     		lsl	r3, r3, #3
 759 009e D318     		add	r3, r2, r3
 760 00a0 5A88     		ldrh	r2, [r3, #2]
 761 00a2 0823     		mov	r3, #8
 762 00a4 FB18     		add	r3, r7, r3
 763 00a6 1A81     		strh	r2, [r3, #8]
 402:.\Generated_Source\PSoC4/BLE_bas.c ****             ntfReqParam.value.val = attrValue;
 764              		.loc 1 402 0
 765 00a8 0823     		mov	r3, #8
 766 00aa FB18     		add	r3, r7, r3
 767 00ac BA6A     		ldr	r2, [r7, #40]
 768 00ae 1A60     		str	r2, [r3]
 403:.\Generated_Source\PSoC4/BLE_bas.c ****             ntfReqParam.value.len = attrSize;
 769              		.loc 1 403 0
 770 00b0 7B1C     		add	r3, r7, #1
 771 00b2 1B78     		ldrb	r3, [r3]
 772 00b4 9AB2     		uxth	r2, r3
 773 00b6 0823     		mov	r3, #8
 774 00b8 FB18     		add	r3, r7, r3
 775 00ba 9A80     		strh	r2, [r3, #4]
 404:.\Generated_Source\PSoC4/BLE_bas.c ****             
 405:.\Generated_Source\PSoC4/BLE_bas.c ****             /* Send notification to client using previously filled structure */
 406:.\Generated_Source\PSoC4/BLE_bas.c ****             apiResult = CyBle_GattsNotification(connHandle, &ntfReqParam);
 776              		.loc 1 406 0
 777 00bc 1623     		mov	r3, #22
 778 00be FC18     		add	r4, r7, r3
 779 00c0 3B1D     		add	r3, r7, #4
 780 00c2 0822     		mov	r2, #8
 781 00c4 BA18     		add	r2, r7, r2
 782 00c6 1868     		ldr	r0, [r3]
 783 00c8 111C     		mov	r1, r2
 784 00ca FFF7FEFF 		bl	CyBle_GattsNotification
 785 00ce 031C     		mov	r3, r0
 786 00d0 2380     		strh	r3, [r4]
 787              	.L40:
 788              	.LBE2:
ARM GAS  C:\Users\Henny\AppData\Local\Temp\ccxxNiEo.s 			page 22


 407:.\Generated_Source\PSoC4/BLE_bas.c ****         }
 408:.\Generated_Source\PSoC4/BLE_bas.c ****     }
 409:.\Generated_Source\PSoC4/BLE_bas.c ****     
 410:.\Generated_Source\PSoC4/BLE_bas.c ****     return (apiResult);
 789              		.loc 1 410 0
 790 00d2 1623     		mov	r3, #22
 791 00d4 FB18     		add	r3, r7, r3
 792 00d6 1B88     		ldrh	r3, [r3]
 411:.\Generated_Source\PSoC4/BLE_bas.c **** }
 793              		.loc 1 411 0
 794 00d8 181C     		mov	r0, r3
 795 00da BD46     		mov	sp, r7
 796 00dc 07B0     		add	sp, sp, #28
 797              		@ sp needed
 798 00de 90BD     		pop	{r4, r7, pc}
 799              	.L46:
 800              		.align	2
 801              	.L45:
 802 00e0 00000000 		.word	cyBle_state
 803 00e4 00000000 		.word	cyBle_gattDB
 804 00e8 00000000 		.word	cyBle_bass
 805              		.cfi_endproc
 806              	.LFE8:
 807              		.size	CyBle_BassSendNotification, .-CyBle_BassSendNotification
 808              		.text
 809              	.Letext0:
 810              		.file 2 ".\\Generated_Source\\PSoC4\\cytypes.h"
 811              		.file 3 ".\\Generated_Source\\PSoC4\\BLE_Stack.h"
 812              		.file 4 ".\\Generated_Source\\PSoC4\\BLE_StackGatt.h"
 813              		.file 5 ".\\Generated_Source\\PSoC4\\BLE_StackGattServer.h"
 814              		.file 6 ".\\Generated_Source\\PSoC4\\BLE_StackGattDb.h"
 815              		.file 7 ".\\Generated_Source\\PSoC4\\BLE.h"
 816              		.file 8 ".\\Generated_Source\\PSoC4\\BLE_bas.h"
 817              		.file 9 ".\\Generated_Source\\PSoC4\\BLE_dis.h"
 818              		.file 10 ".\\Generated_Source\\PSoC4\\BLE_hts.h"
 819              		.file 11 ".\\Generated_Source\\PSoC4\\BLE_eventHandler.h"
 820              		.file 12 ".\\Generated_Source\\PSoC4\\BLE_gatt.h"