ARM GAS  C:\Users\Henny\AppData\Local\Temp\ccRrnRtI.s 			page 1


   1              		.cpu cortex-m0
   2              		.fpu softvfp
   3              		.eabi_attribute 20, 1
   4              		.eabi_attribute 21, 1
   5              		.eabi_attribute 23, 3
   6              		.eabi_attribute 24, 1
   7              		.eabi_attribute 25, 1
   8              		.eabi_attribute 26, 1
   9              		.eabi_attribute 30, 6
  10              		.eabi_attribute 34, 0
  11              		.eabi_attribute 18, 4
  12              		.code	16
  13              		.file	"BLE_hts.c"
  14              		.text
  15              	.Ltext0:
  16              		.cfi_sections	.debug_frame
  17              		.bss
  18              		.align	2
  19              	CyBle_HtsApplCallback:
  20 0000 00000000 		.space	4
  21              		.global	cyBle_htss
  22              		.section	.rodata
  23              		.align	2
  24              		.type	cyBle_htss, %object
  25              		.size	cyBle_htss, 26
  26              	cyBle_htss:
  27 0000 0C00     		.short	12
  28 0002 0E00     		.short	14
  29 0004 0F00     		.short	15
  30 0006 0000     		.short	0
  31 0008 1100     		.short	17
  32 000a 0000     		.short	0
  33 000c 0000     		.short	0
  34 000e 0000     		.short	0
  35 0010 0000     		.short	0
  36 0012 0000     		.short	0
  37 0014 1300     		.short	19
  38 0016 0000     		.short	0
  39 0018 1400     		.short	20
  40 001a 0000     		.bss
  41              		.align	1
  42              	cyBle_htssReqHandle:
  43 0004 0000     		.space	2
  44 0006 0000     		.section	.text.CyBle_HtsInit,"ax",%progbits
  45              		.align	2
  46              		.global	CyBle_HtsInit
  47              		.code	16
  48              		.thumb_func
  49              		.type	CyBle_HtsInit, %function
  50              	CyBle_HtsInit:
  51              	.LFB2:
  52              		.file 1 ".\\Generated_Source\\PSoC4\\BLE_hts.c"
   1:.\Generated_Source\PSoC4/BLE_hts.c **** /***************************************************************************//**
   2:.\Generated_Source\PSoC4/BLE_hts.c **** * \file CYBLE_hts.c
   3:.\Generated_Source\PSoC4/BLE_hts.c **** * \version 2.30
   4:.\Generated_Source\PSoC4/BLE_hts.c **** * 
   5:.\Generated_Source\PSoC4/BLE_hts.c **** * \brief
ARM GAS  C:\Users\Henny\AppData\Local\Temp\ccRrnRtI.s 			page 2


   6:.\Generated_Source\PSoC4/BLE_hts.c **** *  Contains the source code for Health Thermometer Service.
   7:.\Generated_Source\PSoC4/BLE_hts.c **** * 
   8:.\Generated_Source\PSoC4/BLE_hts.c **** ********************************************************************************
   9:.\Generated_Source\PSoC4/BLE_hts.c **** * \copyright
  10:.\Generated_Source\PSoC4/BLE_hts.c **** * Copyright 2014-2015, Cypress Semiconductor Corporation.  All rights reserved.
  11:.\Generated_Source\PSoC4/BLE_hts.c **** * You may use this file only in accordance with the license, terms, conditions,
  12:.\Generated_Source\PSoC4/BLE_hts.c **** * disclaimers, and limitations in the end user license agreement accompanying
  13:.\Generated_Source\PSoC4/BLE_hts.c **** * the software package with which this file was provided.
  14:.\Generated_Source\PSoC4/BLE_hts.c **** *******************************************************************************/
  15:.\Generated_Source\PSoC4/BLE_hts.c **** 
  16:.\Generated_Source\PSoC4/BLE_hts.c **** 
  17:.\Generated_Source\PSoC4/BLE_hts.c **** #include "BLE_eventHandler.h"
  18:.\Generated_Source\PSoC4/BLE_hts.c **** 
  19:.\Generated_Source\PSoC4/BLE_hts.c **** static CYBLE_CALLBACK_T CyBle_HtsApplCallback = NULL;
  20:.\Generated_Source\PSoC4/BLE_hts.c **** 
  21:.\Generated_Source\PSoC4/BLE_hts.c **** #ifdef CYBLE_HTS_SERVER
  22:.\Generated_Source\PSoC4/BLE_hts.c **** 
  23:.\Generated_Source\PSoC4/BLE_hts.c **** const CYBLE_HTSS_T cyBle_htss =
  24:.\Generated_Source\PSoC4/BLE_hts.c **** {
  25:.\Generated_Source\PSoC4/BLE_hts.c ****     0x000Cu,    /* Handle of the HTS service */
  26:.\Generated_Source\PSoC4/BLE_hts.c ****     {
  27:.\Generated_Source\PSoC4/BLE_hts.c ****         
  28:.\Generated_Source\PSoC4/BLE_hts.c ****         /* Temperature Measurement characteristic */
  29:.\Generated_Source\PSoC4/BLE_hts.c ****         {
  30:.\Generated_Source\PSoC4/BLE_hts.c ****             0x000Eu, /* Handle of the Temperature Measurement characteristic */ 
  31:.\Generated_Source\PSoC4/BLE_hts.c ****             
  32:.\Generated_Source\PSoC4/BLE_hts.c ****             /* Array of Descriptors handles */
  33:.\Generated_Source\PSoC4/BLE_hts.c ****             {
  34:.\Generated_Source\PSoC4/BLE_hts.c ****                 0x000Fu, /* Handle of the Client Characteristic Configuration descriptor */ 
  35:.\Generated_Source\PSoC4/BLE_hts.c ****                 CYBLE_GATT_INVALID_ATTR_HANDLE_VALUE, 
  36:.\Generated_Source\PSoC4/BLE_hts.c ****             }, 
  37:.\Generated_Source\PSoC4/BLE_hts.c ****         }, 
  38:.\Generated_Source\PSoC4/BLE_hts.c ****         
  39:.\Generated_Source\PSoC4/BLE_hts.c ****         /* Temperature Type characteristic */
  40:.\Generated_Source\PSoC4/BLE_hts.c ****         {
  41:.\Generated_Source\PSoC4/BLE_hts.c ****             0x0011u, /* Handle of the Temperature Type characteristic */ 
  42:.\Generated_Source\PSoC4/BLE_hts.c ****             
  43:.\Generated_Source\PSoC4/BLE_hts.c ****             /* Array of Descriptors handles */
  44:.\Generated_Source\PSoC4/BLE_hts.c ****             {
  45:.\Generated_Source\PSoC4/BLE_hts.c ****                 CYBLE_GATT_INVALID_ATTR_HANDLE_VALUE, 
  46:.\Generated_Source\PSoC4/BLE_hts.c ****                 CYBLE_GATT_INVALID_ATTR_HANDLE_VALUE, 
  47:.\Generated_Source\PSoC4/BLE_hts.c ****             }, 
  48:.\Generated_Source\PSoC4/BLE_hts.c ****         }, 
  49:.\Generated_Source\PSoC4/BLE_hts.c ****         
  50:.\Generated_Source\PSoC4/BLE_hts.c ****         /* Intermediate Temperature characteristic */
  51:.\Generated_Source\PSoC4/BLE_hts.c ****         {
  52:.\Generated_Source\PSoC4/BLE_hts.c ****             CYBLE_GATT_INVALID_ATTR_HANDLE_VALUE, /* Handle of the Intermediate Temperature charact
  53:.\Generated_Source\PSoC4/BLE_hts.c ****             
  54:.\Generated_Source\PSoC4/BLE_hts.c ****             /* Array of Descriptors handles */
  55:.\Generated_Source\PSoC4/BLE_hts.c ****             {
  56:.\Generated_Source\PSoC4/BLE_hts.c ****                 CYBLE_GATT_INVALID_ATTR_HANDLE_VALUE, /* Handle of the Client Characteristic Config
  57:.\Generated_Source\PSoC4/BLE_hts.c ****                 CYBLE_GATT_INVALID_ATTR_HANDLE_VALUE, 
  58:.\Generated_Source\PSoC4/BLE_hts.c ****             }, 
  59:.\Generated_Source\PSoC4/BLE_hts.c ****         }, 
  60:.\Generated_Source\PSoC4/BLE_hts.c ****         
  61:.\Generated_Source\PSoC4/BLE_hts.c ****         /* Measurement Interval characteristic */
  62:.\Generated_Source\PSoC4/BLE_hts.c ****         {
ARM GAS  C:\Users\Henny\AppData\Local\Temp\ccRrnRtI.s 			page 3


  63:.\Generated_Source\PSoC4/BLE_hts.c ****             0x0013u, /* Handle of the Measurement Interval characteristic */ 
  64:.\Generated_Source\PSoC4/BLE_hts.c ****             
  65:.\Generated_Source\PSoC4/BLE_hts.c ****             /* Array of Descriptors handles */
  66:.\Generated_Source\PSoC4/BLE_hts.c ****             {
  67:.\Generated_Source\PSoC4/BLE_hts.c ****                 CYBLE_GATT_INVALID_ATTR_HANDLE_VALUE, /* Handle of the Client Characteristic Config
  68:.\Generated_Source\PSoC4/BLE_hts.c ****                 0x0014u, /* Handle of the Valid Range descriptor */ 
  69:.\Generated_Source\PSoC4/BLE_hts.c ****             }, 
  70:.\Generated_Source\PSoC4/BLE_hts.c ****         }, 
  71:.\Generated_Source\PSoC4/BLE_hts.c ****     },
  72:.\Generated_Source\PSoC4/BLE_hts.c **** };
  73:.\Generated_Source\PSoC4/BLE_hts.c **** static CYBLE_GATT_DB_ATTR_HANDLE_T cyBle_htssReqHandle;
  74:.\Generated_Source\PSoC4/BLE_hts.c ****     
  75:.\Generated_Source\PSoC4/BLE_hts.c **** #endif /* CYBLE_HTS_SERVER */
  76:.\Generated_Source\PSoC4/BLE_hts.c **** 
  77:.\Generated_Source\PSoC4/BLE_hts.c **** #ifdef CYBLE_HTS_CLIENT
  78:.\Generated_Source\PSoC4/BLE_hts.c **** 
  79:.\Generated_Source\PSoC4/BLE_hts.c **** CYBLE_HTSC_T cyBle_htsc;
  80:.\Generated_Source\PSoC4/BLE_hts.c **** static CYBLE_GATT_DB_ATTR_HANDLE_T cyBle_htscReqHandle;
  81:.\Generated_Source\PSoC4/BLE_hts.c **** 
  82:.\Generated_Source\PSoC4/BLE_hts.c **** #endif /* (CYBLE_HTS_CLIENT) */
  83:.\Generated_Source\PSoC4/BLE_hts.c **** 
  84:.\Generated_Source\PSoC4/BLE_hts.c **** 
  85:.\Generated_Source\PSoC4/BLE_hts.c **** /****************************************************************************** 
  86:.\Generated_Source\PSoC4/BLE_hts.c **** * Function Name: CyBle_HtsInit
  87:.\Generated_Source\PSoC4/BLE_hts.c **** ***************************************************************************//**
  88:.\Generated_Source\PSoC4/BLE_hts.c **** * 
  89:.\Generated_Source\PSoC4/BLE_hts.c **** *  This function initializes HTS Service.
  90:.\Generated_Source\PSoC4/BLE_hts.c **** * 
  91:.\Generated_Source\PSoC4/BLE_hts.c **** * \return
  92:.\Generated_Source\PSoC4/BLE_hts.c **** *  None
  93:.\Generated_Source\PSoC4/BLE_hts.c **** * 
  94:.\Generated_Source\PSoC4/BLE_hts.c **** ******************************************************************************/
  95:.\Generated_Source\PSoC4/BLE_hts.c **** void CyBle_HtsInit(void)
  96:.\Generated_Source\PSoC4/BLE_hts.c **** {
  53              		.loc 1 96 0
  54              		.cfi_startproc
  55 0000 80B5     		push	{r7, lr}
  56              		.cfi_def_cfa_offset 8
  57              		.cfi_offset 7, -8
  58              		.cfi_offset 14, -4
  59 0002 00AF     		add	r7, sp, #0
  60              		.cfi_def_cfa_register 7
  97:.\Generated_Source\PSoC4/BLE_hts.c **** 
  98:.\Generated_Source\PSoC4/BLE_hts.c **** #ifdef CYBLE_HTS_SERVER
  99:.\Generated_Source\PSoC4/BLE_hts.c **** 
 100:.\Generated_Source\PSoC4/BLE_hts.c ****     cyBle_htssReqHandle = CYBLE_GATT_INVALID_ATTR_HANDLE_VALUE;
  61              		.loc 1 100 0
  62 0004 024B     		ldr	r3, .L2
  63 0006 0022     		mov	r2, #0
  64 0008 1A80     		strh	r2, [r3]
 101:.\Generated_Source\PSoC4/BLE_hts.c ****     
 102:.\Generated_Source\PSoC4/BLE_hts.c **** #endif /* CYBLE_HTS_SERVER */
 103:.\Generated_Source\PSoC4/BLE_hts.c **** 
 104:.\Generated_Source\PSoC4/BLE_hts.c **** #ifdef CYBLE_HTS_CLIENT
 105:.\Generated_Source\PSoC4/BLE_hts.c **** 
 106:.\Generated_Source\PSoC4/BLE_hts.c ****     (void)memset(&cyBle_htsc, 0, sizeof(cyBle_htsc));
 107:.\Generated_Source\PSoC4/BLE_hts.c ****     cyBle_htscReqHandle = CYBLE_GATT_INVALID_ATTR_HANDLE_VALUE;
ARM GAS  C:\Users\Henny\AppData\Local\Temp\ccRrnRtI.s 			page 4


 108:.\Generated_Source\PSoC4/BLE_hts.c **** 
 109:.\Generated_Source\PSoC4/BLE_hts.c **** #endif /* CYBLE_HTS_CLIENT */
 110:.\Generated_Source\PSoC4/BLE_hts.c **** }
  65              		.loc 1 110 0
  66 000a BD46     		mov	sp, r7
  67              		@ sp needed
  68 000c 80BD     		pop	{r7, pc}
  69              	.L3:
  70 000e C046     		.align	2
  71              	.L2:
  72 0010 04000000 		.word	cyBle_htssReqHandle
  73              		.cfi_endproc
  74              	.LFE2:
  75              		.size	CyBle_HtsInit, .-CyBle_HtsInit
  76              		.section	.text.CyBle_HtsRegisterAttrCallback,"ax",%progbits
  77              		.align	2
  78              		.global	CyBle_HtsRegisterAttrCallback
  79              		.code	16
  80              		.thumb_func
  81              		.type	CyBle_HtsRegisterAttrCallback, %function
  82              	CyBle_HtsRegisterAttrCallback:
  83              	.LFB3:
 111:.\Generated_Source\PSoC4/BLE_hts.c **** 
 112:.\Generated_Source\PSoC4/BLE_hts.c **** 
 113:.\Generated_Source\PSoC4/BLE_hts.c **** /******************************************************************************
 114:.\Generated_Source\PSoC4/BLE_hts.c **** * Function Name: CyBle_HtsRegisterAttrCallback
 115:.\Generated_Source\PSoC4/BLE_hts.c **** ***************************************************************************//**
 116:.\Generated_Source\PSoC4/BLE_hts.c **** * 
 117:.\Generated_Source\PSoC4/BLE_hts.c **** *  Registers a callback function for service specific attribute operations.
 118:.\Generated_Source\PSoC4/BLE_hts.c **** *  Service specific write requests from peer device will not be handled with
 119:.\Generated_Source\PSoC4/BLE_hts.c **** *  unregistered callback function.
 120:.\Generated_Source\PSoC4/BLE_hts.c **** * 
 121:.\Generated_Source\PSoC4/BLE_hts.c **** *  \param callbackFunc: An application layer event callback function to receive 
 122:.\Generated_Source\PSoC4/BLE_hts.c **** *                     events from the BLE Component. The definition of 
 123:.\Generated_Source\PSoC4/BLE_hts.c **** *                     CYBLE_CALLBACK_T for HTS Service is:\n
 124:.\Generated_Source\PSoC4/BLE_hts.c **** *                     typedef void (* CYBLE_CALLBACK_T) (uint32 eventCode, 
 125:.\Generated_Source\PSoC4/BLE_hts.c **** *                                                        void *eventParam)
 126:.\Generated_Source\PSoC4/BLE_hts.c **** *                     * eventCode indicates the event that triggered this 
 127:.\Generated_Source\PSoC4/BLE_hts.c **** *                       callback (e.g. CYBLE_EVT_HTSS_NOTIFICATION_ENABLED).
 128:.\Generated_Source\PSoC4/BLE_hts.c **** *                     * eventParam contains the parameters corresponding to the 
 129:.\Generated_Source\PSoC4/BLE_hts.c **** *                       current event. (e.g. pointer to CYBLE_HTS_CHAR_VALUE_T
 130:.\Generated_Source\PSoC4/BLE_hts.c **** *                       structure that contains details of the characteristic 
 131:.\Generated_Source\PSoC4/BLE_hts.c **** *                       for which notification enabled event was triggered).
 132:.\Generated_Source\PSoC4/BLE_hts.c **** * 
 133:.\Generated_Source\PSoC4/BLE_hts.c **** * \return
 134:.\Generated_Source\PSoC4/BLE_hts.c **** *  None
 135:.\Generated_Source\PSoC4/BLE_hts.c **** *
 136:.\Generated_Source\PSoC4/BLE_hts.c **** * \events
 137:.\Generated_Source\PSoC4/BLE_hts.c **** *  None
 138:.\Generated_Source\PSoC4/BLE_hts.c **** *
 139:.\Generated_Source\PSoC4/BLE_hts.c **** ******************************************************************************/
 140:.\Generated_Source\PSoC4/BLE_hts.c **** void CyBle_HtsRegisterAttrCallback(CYBLE_CALLBACK_T callbackFunc)
 141:.\Generated_Source\PSoC4/BLE_hts.c **** {
  84              		.loc 1 141 0
  85              		.cfi_startproc
  86 0000 80B5     		push	{r7, lr}
  87              		.cfi_def_cfa_offset 8
ARM GAS  C:\Users\Henny\AppData\Local\Temp\ccRrnRtI.s 			page 5


  88              		.cfi_offset 7, -8
  89              		.cfi_offset 14, -4
  90 0002 82B0     		sub	sp, sp, #8
  91              		.cfi_def_cfa_offset 16
  92 0004 00AF     		add	r7, sp, #0
  93              		.cfi_def_cfa_register 7
  94 0006 7860     		str	r0, [r7, #4]
 142:.\Generated_Source\PSoC4/BLE_hts.c ****     CyBle_HtsApplCallback = callbackFunc;
  95              		.loc 1 142 0
  96 0008 024B     		ldr	r3, .L5
  97 000a 7A68     		ldr	r2, [r7, #4]
  98 000c 1A60     		str	r2, [r3]
 143:.\Generated_Source\PSoC4/BLE_hts.c **** }
  99              		.loc 1 143 0
 100 000e BD46     		mov	sp, r7
 101 0010 02B0     		add	sp, sp, #8
 102              		@ sp needed
 103 0012 80BD     		pop	{r7, pc}
 104              	.L6:
 105              		.align	2
 106              	.L5:
 107 0014 00000000 		.word	CyBle_HtsApplCallback
 108              		.cfi_endproc
 109              	.LFE3:
 110              		.size	CyBle_HtsRegisterAttrCallback, .-CyBle_HtsRegisterAttrCallback
 111              		.section	.text.CyBle_HtssSetCharacteristicValue,"ax",%progbits
 112              		.align	2
 113              		.global	CyBle_HtssSetCharacteristicValue
 114              		.code	16
 115              		.thumb_func
 116              		.type	CyBle_HtssSetCharacteristicValue, %function
 117              	CyBle_HtssSetCharacteristicValue:
 118              	.LFB4:
 144:.\Generated_Source\PSoC4/BLE_hts.c **** 
 145:.\Generated_Source\PSoC4/BLE_hts.c **** #ifdef CYBLE_HTS_SERVER
 146:.\Generated_Source\PSoC4/BLE_hts.c **** 
 147:.\Generated_Source\PSoC4/BLE_hts.c **** 
 148:.\Generated_Source\PSoC4/BLE_hts.c **** /******************************************************************************
 149:.\Generated_Source\PSoC4/BLE_hts.c **** * Function Name: CyBle_HtssSetCharacteristicValue
 150:.\Generated_Source\PSoC4/BLE_hts.c **** ***************************************************************************//**
 151:.\Generated_Source\PSoC4/BLE_hts.c **** * 
 152:.\Generated_Source\PSoC4/BLE_hts.c **** *  Sets the characteristic value of the service in the local database.
 153:.\Generated_Source\PSoC4/BLE_hts.c **** * 
 154:.\Generated_Source\PSoC4/BLE_hts.c **** *  \param charIndex: The index of the service characteristic.
 155:.\Generated_Source\PSoC4/BLE_hts.c **** *  \param attrSize: The size (in Bytes) of the characteristic value attribute.
 156:.\Generated_Source\PSoC4/BLE_hts.c **** *  \param attrValue: The pointer to the characteristic value data that should be
 157:.\Generated_Source\PSoC4/BLE_hts.c **** *               stored in the GATT database.
 158:.\Generated_Source\PSoC4/BLE_hts.c **** * 
 159:.\Generated_Source\PSoC4/BLE_hts.c **** * \return
 160:.\Generated_Source\PSoC4/BLE_hts.c **** *  Return value is of type CYBLE_API_RESULT_T.
 161:.\Generated_Source\PSoC4/BLE_hts.c **** *  * CYBLE_ERROR_OK - The request handled successfully
 162:.\Generated_Source\PSoC4/BLE_hts.c **** *  * CYBLE_ERROR_INVALID_PARAMETER - Validation of the input parameter failed
 163:.\Generated_Source\PSoC4/BLE_hts.c **** *
 164:.\Generated_Source\PSoC4/BLE_hts.c **** * \events
 165:.\Generated_Source\PSoC4/BLE_hts.c **** *  None
 166:.\Generated_Source\PSoC4/BLE_hts.c **** *
 167:.\Generated_Source\PSoC4/BLE_hts.c **** ******************************************************************************/
ARM GAS  C:\Users\Henny\AppData\Local\Temp\ccRrnRtI.s 			page 6


 168:.\Generated_Source\PSoC4/BLE_hts.c **** CYBLE_API_RESULT_T CyBle_HtssSetCharacteristicValue(CYBLE_HTS_CHAR_INDEX_T charIndex,
 169:.\Generated_Source\PSoC4/BLE_hts.c ****     uint8 attrSize, uint8 *attrValue)
 170:.\Generated_Source\PSoC4/BLE_hts.c **** {
 119              		.loc 1 170 0
 120              		.cfi_startproc
 121 0000 80B5     		push	{r7, lr}
 122              		.cfi_def_cfa_offset 8
 123              		.cfi_offset 7, -8
 124              		.cfi_offset 14, -4
 125 0002 86B0     		sub	sp, sp, #24
 126              		.cfi_def_cfa_offset 32
 127 0004 00AF     		add	r7, sp, #0
 128              		.cfi_def_cfa_register 7
 129 0006 3A60     		str	r2, [r7]
 130 0008 FB1D     		add	r3, r7, #7
 131 000a 021C     		add	r2, r0, #0
 132 000c 1A70     		strb	r2, [r3]
 133 000e BB1D     		add	r3, r7, #6
 134 0010 0A1C     		add	r2, r1, #0
 135 0012 1A70     		strb	r2, [r3]
 171:.\Generated_Source\PSoC4/BLE_hts.c ****     CYBLE_API_RESULT_T apiResult = CYBLE_ERROR_OK;
 136              		.loc 1 171 0
 137 0014 1623     		mov	r3, #22
 138 0016 FB18     		add	r3, r7, r3
 139 0018 0022     		mov	r2, #0
 140 001a 1A80     		strh	r2, [r3]
 172:.\Generated_Source\PSoC4/BLE_hts.c ****     CYBLE_GATT_HANDLE_VALUE_PAIR_T locHandleValuePair;
 173:.\Generated_Source\PSoC4/BLE_hts.c **** 
 174:.\Generated_Source\PSoC4/BLE_hts.c ****     if(charIndex >= CYBLE_HTS_CHAR_COUNT)
 141              		.loc 1 174 0
 142 001c FB1D     		add	r3, r7, #7
 143 001e 1B78     		ldrb	r3, [r3]
 144 0020 032B     		cmp	r3, #3
 145 0022 04D9     		bls	.L8
 175:.\Generated_Source\PSoC4/BLE_hts.c ****     {
 176:.\Generated_Source\PSoC4/BLE_hts.c ****         apiResult = CYBLE_ERROR_INVALID_PARAMETER;
 146              		.loc 1 176 0
 147 0024 1623     		mov	r3, #22
 148 0026 FB18     		add	r3, r7, r3
 149 0028 0122     		mov	r2, #1
 150 002a 1A80     		strh	r2, [r3]
 151 002c 23E0     		b	.L9
 152              	.L8:
 177:.\Generated_Source\PSoC4/BLE_hts.c ****     }
 178:.\Generated_Source\PSoC4/BLE_hts.c ****     else
 179:.\Generated_Source\PSoC4/BLE_hts.c ****     {
 180:.\Generated_Source\PSoC4/BLE_hts.c ****         /* Store data in database */
 181:.\Generated_Source\PSoC4/BLE_hts.c ****         locHandleValuePair.attrHandle = cyBle_htss.charInfo[charIndex].charHandle;
 153              		.loc 1 181 0
 154 002e FB1D     		add	r3, r7, #7
 155 0030 1A78     		ldrb	r2, [r3]
 156 0032 1449     		ldr	r1, .L11
 157 0034 131C     		mov	r3, r2
 158 0036 5B00     		lsl	r3, r3, #1
 159 0038 9B18     		add	r3, r3, r2
 160 003a 5B00     		lsl	r3, r3, #1
 161 003c CB18     		add	r3, r1, r3
ARM GAS  C:\Users\Henny\AppData\Local\Temp\ccRrnRtI.s 			page 7


 162 003e 5A88     		ldrh	r2, [r3, #2]
 163 0040 0823     		mov	r3, #8
 164 0042 FB18     		add	r3, r7, r3
 165 0044 1A81     		strh	r2, [r3, #8]
 182:.\Generated_Source\PSoC4/BLE_hts.c ****         locHandleValuePair.value.len = attrSize;
 166              		.loc 1 182 0
 167 0046 BB1D     		add	r3, r7, #6
 168 0048 1B78     		ldrb	r3, [r3]
 169 004a 9AB2     		uxth	r2, r3
 170 004c 0823     		mov	r3, #8
 171 004e FB18     		add	r3, r7, r3
 172 0050 9A80     		strh	r2, [r3, #4]
 183:.\Generated_Source\PSoC4/BLE_hts.c ****         locHandleValuePair.value.val = attrValue;
 173              		.loc 1 183 0
 174 0052 0823     		mov	r3, #8
 175 0054 FB18     		add	r3, r7, r3
 176 0056 3A68     		ldr	r2, [r7]
 177 0058 1A60     		str	r2, [r3]
 184:.\Generated_Source\PSoC4/BLE_hts.c ****         if(CYBLE_GATT_ERR_NONE !=
 185:.\Generated_Source\PSoC4/BLE_hts.c ****             CyBle_GattsWriteAttributeValue(&locHandleValuePair, 0u, NULL, CYBLE_GATT_DB_LOCALLY_INI
 178              		.loc 1 185 0
 179 005a 0823     		mov	r3, #8
 180 005c FB18     		add	r3, r7, r3
 181 005e 181C     		mov	r0, r3
 182 0060 0021     		mov	r1, #0
 183 0062 0022     		mov	r2, #0
 184 0064 0023     		mov	r3, #0
 185 0066 FFF7FEFF 		bl	CyBle_GattsWriteAttributeValue
 186 006a 031E     		sub	r3, r0, #0
 184:.\Generated_Source\PSoC4/BLE_hts.c ****         if(CYBLE_GATT_ERR_NONE !=
 187              		.loc 1 184 0
 188 006c 03D0     		beq	.L9
 186:.\Generated_Source\PSoC4/BLE_hts.c ****         {
 187:.\Generated_Source\PSoC4/BLE_hts.c ****             apiResult = CYBLE_ERROR_INVALID_PARAMETER;
 189              		.loc 1 187 0
 190 006e 1623     		mov	r3, #22
 191 0070 FB18     		add	r3, r7, r3
 192 0072 0122     		mov	r2, #1
 193 0074 1A80     		strh	r2, [r3]
 194              	.L9:
 188:.\Generated_Source\PSoC4/BLE_hts.c ****         }
 189:.\Generated_Source\PSoC4/BLE_hts.c ****     }
 190:.\Generated_Source\PSoC4/BLE_hts.c ****     return (apiResult);
 195              		.loc 1 190 0
 196 0076 1623     		mov	r3, #22
 197 0078 FB18     		add	r3, r7, r3
 198 007a 1B88     		ldrh	r3, [r3]
 191:.\Generated_Source\PSoC4/BLE_hts.c **** }
 199              		.loc 1 191 0
 200 007c 181C     		mov	r0, r3
 201 007e BD46     		mov	sp, r7
 202 0080 06B0     		add	sp, sp, #24
 203              		@ sp needed
 204 0082 80BD     		pop	{r7, pc}
 205              	.L12:
 206              		.align	2
 207              	.L11:
ARM GAS  C:\Users\Henny\AppData\Local\Temp\ccRrnRtI.s 			page 8


 208 0084 00000000 		.word	cyBle_htss
 209              		.cfi_endproc
 210              	.LFE4:
 211              		.size	CyBle_HtssSetCharacteristicValue, .-CyBle_HtssSetCharacteristicValue
 212              		.section	.text.CyBle_HtssGetCharacteristicValue,"ax",%progbits
 213              		.align	2
 214              		.global	CyBle_HtssGetCharacteristicValue
 215              		.code	16
 216              		.thumb_func
 217              		.type	CyBle_HtssGetCharacteristicValue, %function
 218              	CyBle_HtssGetCharacteristicValue:
 219              	.LFB5:
 192:.\Generated_Source\PSoC4/BLE_hts.c **** 
 193:.\Generated_Source\PSoC4/BLE_hts.c **** 
 194:.\Generated_Source\PSoC4/BLE_hts.c **** /******************************************************************************
 195:.\Generated_Source\PSoC4/BLE_hts.c **** * Function Name: CyBle_HtssGetCharacteristicValue
 196:.\Generated_Source\PSoC4/BLE_hts.c **** ***************************************************************************//**
 197:.\Generated_Source\PSoC4/BLE_hts.c **** * 
 198:.\Generated_Source\PSoC4/BLE_hts.c **** *  Gets the characteristic value of the service, which is a value identified by
 199:.\Generated_Source\PSoC4/BLE_hts.c **** *  charIndex.
 200:.\Generated_Source\PSoC4/BLE_hts.c **** * 
 201:.\Generated_Source\PSoC4/BLE_hts.c **** *  \param charIndex: The index of the service characteristic.
 202:.\Generated_Source\PSoC4/BLE_hts.c **** *  \param attrSize: The size of the characteristic value attribute.
 203:.\Generated_Source\PSoC4/BLE_hts.c **** *  \param attrValue: The pointer to the location where characteristic value data
 204:.\Generated_Source\PSoC4/BLE_hts.c **** *               should be stored.
 205:.\Generated_Source\PSoC4/BLE_hts.c **** * 
 206:.\Generated_Source\PSoC4/BLE_hts.c **** * \return
 207:.\Generated_Source\PSoC4/BLE_hts.c **** *  Return value is of type CYBLE_API_RESULT_T.
 208:.\Generated_Source\PSoC4/BLE_hts.c **** *  * CYBLE_ERROR_OK - The request handled successfully
 209:.\Generated_Source\PSoC4/BLE_hts.c **** *  * CYBLE_ERROR_INVALID_PARAMETER - Validation of the input parameter failed
 210:.\Generated_Source\PSoC4/BLE_hts.c **** *
 211:.\Generated_Source\PSoC4/BLE_hts.c **** * \events
 212:.\Generated_Source\PSoC4/BLE_hts.c **** *  None
 213:.\Generated_Source\PSoC4/BLE_hts.c **** *
 214:.\Generated_Source\PSoC4/BLE_hts.c **** ******************************************************************************/
 215:.\Generated_Source\PSoC4/BLE_hts.c **** CYBLE_API_RESULT_T CyBle_HtssGetCharacteristicValue(CYBLE_HTS_CHAR_INDEX_T charIndex,
 216:.\Generated_Source\PSoC4/BLE_hts.c ****     uint8 attrSize, uint8 *attrValue)
 217:.\Generated_Source\PSoC4/BLE_hts.c **** {
 220              		.loc 1 217 0
 221              		.cfi_startproc
 222 0000 80B5     		push	{r7, lr}
 223              		.cfi_def_cfa_offset 8
 224              		.cfi_offset 7, -8
 225              		.cfi_offset 14, -4
 226 0002 86B0     		sub	sp, sp, #24
 227              		.cfi_def_cfa_offset 32
 228 0004 00AF     		add	r7, sp, #0
 229              		.cfi_def_cfa_register 7
 230 0006 3A60     		str	r2, [r7]
 231 0008 FB1D     		add	r3, r7, #7
 232 000a 021C     		add	r2, r0, #0
 233 000c 1A70     		strb	r2, [r3]
 234 000e BB1D     		add	r3, r7, #6
 235 0010 0A1C     		add	r2, r1, #0
 236 0012 1A70     		strb	r2, [r3]
 218:.\Generated_Source\PSoC4/BLE_hts.c ****     CYBLE_API_RESULT_T apiResult = CYBLE_ERROR_OK;
 237              		.loc 1 218 0
ARM GAS  C:\Users\Henny\AppData\Local\Temp\ccRrnRtI.s 			page 9


 238 0014 1623     		mov	r3, #22
 239 0016 FB18     		add	r3, r7, r3
 240 0018 0022     		mov	r2, #0
 241 001a 1A80     		strh	r2, [r3]
 219:.\Generated_Source\PSoC4/BLE_hts.c ****     CYBLE_GATT_HANDLE_VALUE_PAIR_T locHandleValuePair;
 220:.\Generated_Source\PSoC4/BLE_hts.c **** 
 221:.\Generated_Source\PSoC4/BLE_hts.c ****     if(charIndex >= CYBLE_HTS_CHAR_COUNT)
 242              		.loc 1 221 0
 243 001c FB1D     		add	r3, r7, #7
 244 001e 1B78     		ldrb	r3, [r3]
 245 0020 032B     		cmp	r3, #3
 246 0022 04D9     		bls	.L14
 222:.\Generated_Source\PSoC4/BLE_hts.c ****     {
 223:.\Generated_Source\PSoC4/BLE_hts.c ****         apiResult = CYBLE_ERROR_INVALID_PARAMETER;
 247              		.loc 1 223 0
 248 0024 1623     		mov	r3, #22
 249 0026 FB18     		add	r3, r7, r3
 250 0028 0122     		mov	r2, #1
 251 002a 1A80     		strh	r2, [r3]
 252 002c 22E0     		b	.L15
 253              	.L14:
 224:.\Generated_Source\PSoC4/BLE_hts.c ****     }
 225:.\Generated_Source\PSoC4/BLE_hts.c ****     else
 226:.\Generated_Source\PSoC4/BLE_hts.c ****     {
 227:.\Generated_Source\PSoC4/BLE_hts.c ****         /* Read characteristic value from database */
 228:.\Generated_Source\PSoC4/BLE_hts.c ****         locHandleValuePair.attrHandle = cyBle_htss.charInfo[charIndex].charHandle;
 254              		.loc 1 228 0
 255 002e FB1D     		add	r3, r7, #7
 256 0030 1A78     		ldrb	r2, [r3]
 257 0032 1449     		ldr	r1, .L17
 258 0034 131C     		mov	r3, r2
 259 0036 5B00     		lsl	r3, r3, #1
 260 0038 9B18     		add	r3, r3, r2
 261 003a 5B00     		lsl	r3, r3, #1
 262 003c CB18     		add	r3, r1, r3
 263 003e 5A88     		ldrh	r2, [r3, #2]
 264 0040 0823     		mov	r3, #8
 265 0042 FB18     		add	r3, r7, r3
 266 0044 1A81     		strh	r2, [r3, #8]
 229:.\Generated_Source\PSoC4/BLE_hts.c ****         locHandleValuePair.value.len = attrSize;
 267              		.loc 1 229 0
 268 0046 BB1D     		add	r3, r7, #6
 269 0048 1B78     		ldrb	r3, [r3]
 270 004a 9AB2     		uxth	r2, r3
 271 004c 0823     		mov	r3, #8
 272 004e FB18     		add	r3, r7, r3
 273 0050 9A80     		strh	r2, [r3, #4]
 230:.\Generated_Source\PSoC4/BLE_hts.c ****         locHandleValuePair.value.val = attrValue;
 274              		.loc 1 230 0
 275 0052 0823     		mov	r3, #8
 276 0054 FB18     		add	r3, r7, r3
 277 0056 3A68     		ldr	r2, [r7]
 278 0058 1A60     		str	r2, [r3]
 231:.\Generated_Source\PSoC4/BLE_hts.c ****         if(CYBLE_GATT_ERR_NONE !=
 232:.\Generated_Source\PSoC4/BLE_hts.c ****             CyBle_GattsReadAttributeValue(&locHandleValuePair, NULL, CYBLE_GATT_DB_LOCALLY_INITIATE
 279              		.loc 1 232 0
 280 005a 0823     		mov	r3, #8
ARM GAS  C:\Users\Henny\AppData\Local\Temp\ccRrnRtI.s 			page 10


 281 005c FB18     		add	r3, r7, r3
 282 005e 181C     		mov	r0, r3
 283 0060 0021     		mov	r1, #0
 284 0062 0022     		mov	r2, #0
 285 0064 FFF7FEFF 		bl	CyBle_GattsReadAttributeValue
 286 0068 031E     		sub	r3, r0, #0
 231:.\Generated_Source\PSoC4/BLE_hts.c ****         if(CYBLE_GATT_ERR_NONE !=
 287              		.loc 1 231 0
 288 006a 03D0     		beq	.L15
 233:.\Generated_Source\PSoC4/BLE_hts.c ****         {
 234:.\Generated_Source\PSoC4/BLE_hts.c ****             apiResult = CYBLE_ERROR_INVALID_PARAMETER;
 289              		.loc 1 234 0
 290 006c 1623     		mov	r3, #22
 291 006e FB18     		add	r3, r7, r3
 292 0070 0122     		mov	r2, #1
 293 0072 1A80     		strh	r2, [r3]
 294              	.L15:
 235:.\Generated_Source\PSoC4/BLE_hts.c ****         }
 236:.\Generated_Source\PSoC4/BLE_hts.c ****     }
 237:.\Generated_Source\PSoC4/BLE_hts.c ****     return (apiResult);
 295              		.loc 1 237 0
 296 0074 1623     		mov	r3, #22
 297 0076 FB18     		add	r3, r7, r3
 298 0078 1B88     		ldrh	r3, [r3]
 238:.\Generated_Source\PSoC4/BLE_hts.c **** }
 299              		.loc 1 238 0
 300 007a 181C     		mov	r0, r3
 301 007c BD46     		mov	sp, r7
 302 007e 06B0     		add	sp, sp, #24
 303              		@ sp needed
 304 0080 80BD     		pop	{r7, pc}
 305              	.L18:
 306 0082 C046     		.align	2
 307              	.L17:
 308 0084 00000000 		.word	cyBle_htss
 309              		.cfi_endproc
 310              	.LFE5:
 311              		.size	CyBle_HtssGetCharacteristicValue, .-CyBle_HtssGetCharacteristicValue
 312              		.section	.text.CyBle_HtssSetCharacteristicDescriptor,"ax",%progbits
 313              		.align	2
 314              		.global	CyBle_HtssSetCharacteristicDescriptor
 315              		.code	16
 316              		.thumb_func
 317              		.type	CyBle_HtssSetCharacteristicDescriptor, %function
 318              	CyBle_HtssSetCharacteristicDescriptor:
 319              	.LFB6:
 239:.\Generated_Source\PSoC4/BLE_hts.c **** 
 240:.\Generated_Source\PSoC4/BLE_hts.c **** 
 241:.\Generated_Source\PSoC4/BLE_hts.c **** /******************************************************************************
 242:.\Generated_Source\PSoC4/BLE_hts.c **** * Function Name: CyBle_HtssSetCharacteristicDescriptor
 243:.\Generated_Source\PSoC4/BLE_hts.c **** ***************************************************************************//**
 244:.\Generated_Source\PSoC4/BLE_hts.c **** * 
 245:.\Generated_Source\PSoC4/BLE_hts.c **** *  Sets the characteristic descriptor of the specified characteristic.
 246:.\Generated_Source\PSoC4/BLE_hts.c **** * 
 247:.\Generated_Source\PSoC4/BLE_hts.c **** *  \param charIndex:  The index of the service characteristic.
 248:.\Generated_Source\PSoC4/BLE_hts.c **** *  \param descrIndex: The index of the service characteristic descriptor.
 249:.\Generated_Source\PSoC4/BLE_hts.c **** *  \param attrSize:   The size of the characteristic descriptor attribute.
ARM GAS  C:\Users\Henny\AppData\Local\Temp\ccRrnRtI.s 			page 11


 250:.\Generated_Source\PSoC4/BLE_hts.c **** *  \param attrValue: The pointer to the descriptor value data that should 
 251:.\Generated_Source\PSoC4/BLE_hts.c **** *              be stored in the GATT database. 
 252:.\Generated_Source\PSoC4/BLE_hts.c **** * 
 253:.\Generated_Source\PSoC4/BLE_hts.c **** * \return
 254:.\Generated_Source\PSoC4/BLE_hts.c **** *  Return value is of type CYBLE_API_RESULT_T.
 255:.\Generated_Source\PSoC4/BLE_hts.c **** *  * CYBLE_ERROR_OK - The request handled successfully
 256:.\Generated_Source\PSoC4/BLE_hts.c **** *  * CYBLE_ERROR_INVALID_PARAMETER - Validation of the input parameter failed
 257:.\Generated_Source\PSoC4/BLE_hts.c **** *
 258:.\Generated_Source\PSoC4/BLE_hts.c **** * \events
 259:.\Generated_Source\PSoC4/BLE_hts.c **** *  None
 260:.\Generated_Source\PSoC4/BLE_hts.c **** *
 261:.\Generated_Source\PSoC4/BLE_hts.c **** ******************************************************************************/
 262:.\Generated_Source\PSoC4/BLE_hts.c **** CYBLE_API_RESULT_T CyBle_HtssSetCharacteristicDescriptor(CYBLE_HTS_CHAR_INDEX_T charIndex,
 263:.\Generated_Source\PSoC4/BLE_hts.c ****     CYBLE_HTS_DESCR_INDEX_T descrIndex, uint8 attrSize, uint8 *attrValue)
 264:.\Generated_Source\PSoC4/BLE_hts.c **** {
 320              		.loc 1 264 0
 321              		.cfi_startproc
 322 0000 90B5     		push	{r4, r7, lr}
 323              		.cfi_def_cfa_offset 12
 324              		.cfi_offset 4, -12
 325              		.cfi_offset 7, -8
 326              		.cfi_offset 14, -4
 327 0002 87B0     		sub	sp, sp, #28
 328              		.cfi_def_cfa_offset 40
 329 0004 00AF     		add	r7, sp, #0
 330              		.cfi_def_cfa_register 7
 331 0006 041C     		mov	r4, r0
 332 0008 081C     		mov	r0, r1
 333 000a 111C     		mov	r1, r2
 334 000c 3B60     		str	r3, [r7]
 335 000e FB1D     		add	r3, r7, #7
 336 0010 221C     		add	r2, r4, #0
 337 0012 1A70     		strb	r2, [r3]
 338 0014 BB1D     		add	r3, r7, #6
 339 0016 021C     		add	r2, r0, #0
 340 0018 1A70     		strb	r2, [r3]
 341 001a 7B1D     		add	r3, r7, #5
 342 001c 0A1C     		add	r2, r1, #0
 343 001e 1A70     		strb	r2, [r3]
 265:.\Generated_Source\PSoC4/BLE_hts.c ****     CYBLE_API_RESULT_T apiResult = CYBLE_ERROR_OK;
 344              		.loc 1 265 0
 345 0020 1623     		mov	r3, #22
 346 0022 FB18     		add	r3, r7, r3
 347 0024 0022     		mov	r2, #0
 348 0026 1A80     		strh	r2, [r3]
 266:.\Generated_Source\PSoC4/BLE_hts.c ****     CYBLE_GATT_HANDLE_VALUE_PAIR_T locHandleValuePair;
 267:.\Generated_Source\PSoC4/BLE_hts.c **** 
 268:.\Generated_Source\PSoC4/BLE_hts.c ****     if((charIndex >= CYBLE_HTS_CHAR_COUNT) || (descrIndex >= CYBLE_HTS_DESCR_COUNT))
 349              		.loc 1 268 0
 350 0028 FB1D     		add	r3, r7, #7
 351 002a 1B78     		ldrb	r3, [r3]
 352 002c 032B     		cmp	r3, #3
 353 002e 03D8     		bhi	.L20
 354              		.loc 1 268 0 is_stmt 0 discriminator 1
 355 0030 BB1D     		add	r3, r7, #6
 356 0032 1B78     		ldrb	r3, [r3]
 357 0034 012B     		cmp	r3, #1
ARM GAS  C:\Users\Henny\AppData\Local\Temp\ccRrnRtI.s 			page 12


 358 0036 04D9     		bls	.L21
 359              	.L20:
 269:.\Generated_Source\PSoC4/BLE_hts.c ****     {
 270:.\Generated_Source\PSoC4/BLE_hts.c ****         apiResult = CYBLE_ERROR_INVALID_PARAMETER;
 360              		.loc 1 270 0 is_stmt 1
 361 0038 1623     		mov	r3, #22
 362 003a FB18     		add	r3, r7, r3
 363 003c 0122     		mov	r2, #1
 364 003e 1A80     		strh	r2, [r3]
 365 0040 30E0     		b	.L22
 366              	.L21:
 271:.\Generated_Source\PSoC4/BLE_hts.c ****     }
 272:.\Generated_Source\PSoC4/BLE_hts.c ****     else
 273:.\Generated_Source\PSoC4/BLE_hts.c ****     {
 274:.\Generated_Source\PSoC4/BLE_hts.c ****         locHandleValuePair.attrHandle = cyBle_htss.charInfo[charIndex].descrHandle[descrIndex];
 367              		.loc 1 274 0
 368 0042 FB1D     		add	r3, r7, #7
 369 0044 1A78     		ldrb	r2, [r3]
 370 0046 BB1D     		add	r3, r7, #6
 371 0048 1878     		ldrb	r0, [r3]
 372 004a 1A49     		ldr	r1, .L26
 373 004c 131C     		mov	r3, r2
 374 004e 5B00     		lsl	r3, r3, #1
 375 0050 9B18     		add	r3, r3, r2
 376 0052 1B18     		add	r3, r3, r0
 377 0054 5B00     		lsl	r3, r3, #1
 378 0056 CB18     		add	r3, r1, r3
 379 0058 9A88     		ldrh	r2, [r3, #4]
 380 005a 0823     		mov	r3, #8
 381 005c FB18     		add	r3, r7, r3
 382 005e 1A81     		strh	r2, [r3, #8]
 275:.\Generated_Source\PSoC4/BLE_hts.c ****         if(locHandleValuePair.attrHandle != CYBLE_GATT_INVALID_ATTR_HANDLE_VALUE)
 383              		.loc 1 275 0
 384 0060 0823     		mov	r3, #8
 385 0062 FB18     		add	r3, r7, r3
 386 0064 1B89     		ldrh	r3, [r3, #8]
 387 0066 002B     		cmp	r3, #0
 388 0068 18D0     		beq	.L23
 276:.\Generated_Source\PSoC4/BLE_hts.c ****         {
 277:.\Generated_Source\PSoC4/BLE_hts.c ****             locHandleValuePair.value.len = attrSize;
 389              		.loc 1 277 0
 390 006a 7B1D     		add	r3, r7, #5
 391 006c 1B78     		ldrb	r3, [r3]
 392 006e 9AB2     		uxth	r2, r3
 393 0070 0823     		mov	r3, #8
 394 0072 FB18     		add	r3, r7, r3
 395 0074 9A80     		strh	r2, [r3, #4]
 278:.\Generated_Source\PSoC4/BLE_hts.c ****             locHandleValuePair.value.val = attrValue;
 396              		.loc 1 278 0
 397 0076 0823     		mov	r3, #8
 398 0078 FB18     		add	r3, r7, r3
 399 007a 3A68     		ldr	r2, [r7]
 400 007c 1A60     		str	r2, [r3]
 279:.\Generated_Source\PSoC4/BLE_hts.c ****             if(CYBLE_GATT_ERR_NONE !=
 280:.\Generated_Source\PSoC4/BLE_hts.c ****                 CyBle_GattsWriteAttributeValue(&locHandleValuePair, 0u, NULL, CYBLE_GATT_DB_LOCALLY
 401              		.loc 1 280 0
 402 007e 0823     		mov	r3, #8
ARM GAS  C:\Users\Henny\AppData\Local\Temp\ccRrnRtI.s 			page 13


 403 0080 FB18     		add	r3, r7, r3
 404 0082 181C     		mov	r0, r3
 405 0084 0021     		mov	r1, #0
 406 0086 0022     		mov	r2, #0
 407 0088 0023     		mov	r3, #0
 408 008a FFF7FEFF 		bl	CyBle_GattsWriteAttributeValue
 409 008e 031E     		sub	r3, r0, #0
 279:.\Generated_Source\PSoC4/BLE_hts.c ****             if(CYBLE_GATT_ERR_NONE !=
 410              		.loc 1 279 0
 411 0090 08D0     		beq	.L22
 281:.\Generated_Source\PSoC4/BLE_hts.c ****             {
 282:.\Generated_Source\PSoC4/BLE_hts.c ****                 apiResult = CYBLE_ERROR_INVALID_PARAMETER;
 412              		.loc 1 282 0
 413 0092 1623     		mov	r3, #22
 414 0094 FB18     		add	r3, r7, r3
 415 0096 0122     		mov	r2, #1
 416 0098 1A80     		strh	r2, [r3]
 417 009a 03E0     		b	.L22
 418              	.L23:
 283:.\Generated_Source\PSoC4/BLE_hts.c ****             }
 284:.\Generated_Source\PSoC4/BLE_hts.c ****         }
 285:.\Generated_Source\PSoC4/BLE_hts.c ****         else
 286:.\Generated_Source\PSoC4/BLE_hts.c ****         {
 287:.\Generated_Source\PSoC4/BLE_hts.c ****             apiResult = CYBLE_ERROR_INVALID_PARAMETER;
 419              		.loc 1 287 0
 420 009c 1623     		mov	r3, #22
 421 009e FB18     		add	r3, r7, r3
 422 00a0 0122     		mov	r2, #1
 423 00a2 1A80     		strh	r2, [r3]
 424              	.L22:
 288:.\Generated_Source\PSoC4/BLE_hts.c ****         }
 289:.\Generated_Source\PSoC4/BLE_hts.c ****     }
 290:.\Generated_Source\PSoC4/BLE_hts.c ****     return (apiResult);
 425              		.loc 1 290 0
 426 00a4 1623     		mov	r3, #22
 427 00a6 FB18     		add	r3, r7, r3
 428 00a8 1B88     		ldrh	r3, [r3]
 291:.\Generated_Source\PSoC4/BLE_hts.c **** }
 429              		.loc 1 291 0
 430 00aa 181C     		mov	r0, r3
 431 00ac BD46     		mov	sp, r7
 432 00ae 07B0     		add	sp, sp, #28
 433              		@ sp needed
 434 00b0 90BD     		pop	{r4, r7, pc}
 435              	.L27:
 436 00b2 C046     		.align	2
 437              	.L26:
 438 00b4 00000000 		.word	cyBle_htss
 439              		.cfi_endproc
 440              	.LFE6:
 441              		.size	CyBle_HtssSetCharacteristicDescriptor, .-CyBle_HtssSetCharacteristicDescriptor
 442              		.section	.text.CyBle_HtssGetCharacteristicDescriptor,"ax",%progbits
 443              		.align	2
 444              		.global	CyBle_HtssGetCharacteristicDescriptor
 445              		.code	16
 446              		.thumb_func
 447              		.type	CyBle_HtssGetCharacteristicDescriptor, %function
ARM GAS  C:\Users\Henny\AppData\Local\Temp\ccRrnRtI.s 			page 14


 448              	CyBle_HtssGetCharacteristicDescriptor:
 449              	.LFB7:
 292:.\Generated_Source\PSoC4/BLE_hts.c **** 
 293:.\Generated_Source\PSoC4/BLE_hts.c **** 
 294:.\Generated_Source\PSoC4/BLE_hts.c **** /******************************************************************************
 295:.\Generated_Source\PSoC4/BLE_hts.c **** * Function Name: CyBle_HtssGetCharacteristicDescriptor
 296:.\Generated_Source\PSoC4/BLE_hts.c **** ***************************************************************************//**
 297:.\Generated_Source\PSoC4/BLE_hts.c **** * 
 298:.\Generated_Source\PSoC4/BLE_hts.c **** *  Gets the characteristic descriptor of the specified characteristic.
 299:.\Generated_Source\PSoC4/BLE_hts.c **** * 
 300:.\Generated_Source\PSoC4/BLE_hts.c **** *  \param charIndex: The index of the service characteristic.
 301:.\Generated_Source\PSoC4/BLE_hts.c **** *  \param descrIndex: The index of the service characteristic descriptor.
 302:.\Generated_Source\PSoC4/BLE_hts.c **** *  \param attrSize: The size of the characteristic descriptor attribute.
 303:.\Generated_Source\PSoC4/BLE_hts.c **** *  \param attrValue: The pointer to the location where characteristic descriptor
 304:.\Generated_Source\PSoC4/BLE_hts.c **** *               value data should be stored.
 305:.\Generated_Source\PSoC4/BLE_hts.c **** * 
 306:.\Generated_Source\PSoC4/BLE_hts.c **** * \return
 307:.\Generated_Source\PSoC4/BLE_hts.c **** *  Return value is of type CYBLE_API_RESULT_T.
 308:.\Generated_Source\PSoC4/BLE_hts.c **** *  * CYBLE_ERROR_OK - The request handled successfully
 309:.\Generated_Source\PSoC4/BLE_hts.c **** *  * CYBLE_ERROR_INVALID_PARAMETER - Validation of the input parameter failed
 310:.\Generated_Source\PSoC4/BLE_hts.c **** *
 311:.\Generated_Source\PSoC4/BLE_hts.c **** * \events
 312:.\Generated_Source\PSoC4/BLE_hts.c **** *  None
 313:.\Generated_Source\PSoC4/BLE_hts.c **** *
 314:.\Generated_Source\PSoC4/BLE_hts.c **** ******************************************************************************/
 315:.\Generated_Source\PSoC4/BLE_hts.c **** CYBLE_API_RESULT_T CyBle_HtssGetCharacteristicDescriptor(CYBLE_HTS_CHAR_INDEX_T charIndex,
 316:.\Generated_Source\PSoC4/BLE_hts.c ****     CYBLE_HTS_DESCR_INDEX_T descrIndex, uint8 attrSize, uint8 *attrValue)
 317:.\Generated_Source\PSoC4/BLE_hts.c **** {
 450              		.loc 1 317 0
 451              		.cfi_startproc
 452 0000 90B5     		push	{r4, r7, lr}
 453              		.cfi_def_cfa_offset 12
 454              		.cfi_offset 4, -12
 455              		.cfi_offset 7, -8
 456              		.cfi_offset 14, -4
 457 0002 87B0     		sub	sp, sp, #28
 458              		.cfi_def_cfa_offset 40
 459 0004 00AF     		add	r7, sp, #0
 460              		.cfi_def_cfa_register 7
 461 0006 041C     		mov	r4, r0
 462 0008 081C     		mov	r0, r1
 463 000a 111C     		mov	r1, r2
 464 000c 3B60     		str	r3, [r7]
 465 000e FB1D     		add	r3, r7, #7
 466 0010 221C     		add	r2, r4, #0
 467 0012 1A70     		strb	r2, [r3]
 468 0014 BB1D     		add	r3, r7, #6
 469 0016 021C     		add	r2, r0, #0
 470 0018 1A70     		strb	r2, [r3]
 471 001a 7B1D     		add	r3, r7, #5
 472 001c 0A1C     		add	r2, r1, #0
 473 001e 1A70     		strb	r2, [r3]
 318:.\Generated_Source\PSoC4/BLE_hts.c ****     CYBLE_API_RESULT_T apiResult = CYBLE_ERROR_OK;
 474              		.loc 1 318 0
 475 0020 1623     		mov	r3, #22
 476 0022 FB18     		add	r3, r7, r3
 477 0024 0022     		mov	r2, #0
ARM GAS  C:\Users\Henny\AppData\Local\Temp\ccRrnRtI.s 			page 15


 478 0026 1A80     		strh	r2, [r3]
 319:.\Generated_Source\PSoC4/BLE_hts.c ****     CYBLE_GATT_HANDLE_VALUE_PAIR_T locHandleValuePair;
 320:.\Generated_Source\PSoC4/BLE_hts.c **** 
 321:.\Generated_Source\PSoC4/BLE_hts.c ****     if((charIndex >= CYBLE_HTS_CHAR_COUNT) || (descrIndex >= CYBLE_HTS_DESCR_COUNT))
 479              		.loc 1 321 0
 480 0028 FB1D     		add	r3, r7, #7
 481 002a 1B78     		ldrb	r3, [r3]
 482 002c 032B     		cmp	r3, #3
 483 002e 03D8     		bhi	.L29
 484              		.loc 1 321 0 is_stmt 0 discriminator 1
 485 0030 BB1D     		add	r3, r7, #6
 486 0032 1B78     		ldrb	r3, [r3]
 487 0034 012B     		cmp	r3, #1
 488 0036 04D9     		bls	.L30
 489              	.L29:
 322:.\Generated_Source\PSoC4/BLE_hts.c ****     {
 323:.\Generated_Source\PSoC4/BLE_hts.c ****         apiResult = CYBLE_ERROR_INVALID_PARAMETER;
 490              		.loc 1 323 0 is_stmt 1
 491 0038 1623     		mov	r3, #22
 492 003a FB18     		add	r3, r7, r3
 493 003c 0122     		mov	r2, #1
 494 003e 1A80     		strh	r2, [r3]
 495 0040 2FE0     		b	.L31
 496              	.L30:
 324:.\Generated_Source\PSoC4/BLE_hts.c ****     }
 325:.\Generated_Source\PSoC4/BLE_hts.c ****     else
 326:.\Generated_Source\PSoC4/BLE_hts.c ****     {
 327:.\Generated_Source\PSoC4/BLE_hts.c ****         locHandleValuePair.attrHandle = cyBle_htss.charInfo[charIndex].descrHandle[descrIndex];
 497              		.loc 1 327 0
 498 0042 FB1D     		add	r3, r7, #7
 499 0044 1A78     		ldrb	r2, [r3]
 500 0046 BB1D     		add	r3, r7, #6
 501 0048 1878     		ldrb	r0, [r3]
 502 004a 1949     		ldr	r1, .L35
 503 004c 131C     		mov	r3, r2
 504 004e 5B00     		lsl	r3, r3, #1
 505 0050 9B18     		add	r3, r3, r2
 506 0052 1B18     		add	r3, r3, r0
 507 0054 5B00     		lsl	r3, r3, #1
 508 0056 CB18     		add	r3, r1, r3
 509 0058 9A88     		ldrh	r2, [r3, #4]
 510 005a 0823     		mov	r3, #8
 511 005c FB18     		add	r3, r7, r3
 512 005e 1A81     		strh	r2, [r3, #8]
 328:.\Generated_Source\PSoC4/BLE_hts.c ****         if(locHandleValuePair.attrHandle != CYBLE_GATT_INVALID_ATTR_HANDLE_VALUE)
 513              		.loc 1 328 0
 514 0060 0823     		mov	r3, #8
 515 0062 FB18     		add	r3, r7, r3
 516 0064 1B89     		ldrh	r3, [r3, #8]
 517 0066 002B     		cmp	r3, #0
 518 0068 17D0     		beq	.L32
 329:.\Generated_Source\PSoC4/BLE_hts.c ****         {
 330:.\Generated_Source\PSoC4/BLE_hts.c ****             locHandleValuePair.value.len = attrSize;
 519              		.loc 1 330 0
 520 006a 7B1D     		add	r3, r7, #5
 521 006c 1B78     		ldrb	r3, [r3]
 522 006e 9AB2     		uxth	r2, r3
ARM GAS  C:\Users\Henny\AppData\Local\Temp\ccRrnRtI.s 			page 16


 523 0070 0823     		mov	r3, #8
 524 0072 FB18     		add	r3, r7, r3
 525 0074 9A80     		strh	r2, [r3, #4]
 331:.\Generated_Source\PSoC4/BLE_hts.c ****             locHandleValuePair.value.val = attrValue;
 526              		.loc 1 331 0
 527 0076 0823     		mov	r3, #8
 528 0078 FB18     		add	r3, r7, r3
 529 007a 3A68     		ldr	r2, [r7]
 530 007c 1A60     		str	r2, [r3]
 332:.\Generated_Source\PSoC4/BLE_hts.c ****             if(CYBLE_GATT_ERR_NONE !=
 333:.\Generated_Source\PSoC4/BLE_hts.c ****                 CyBle_GattsReadAttributeValue(&locHandleValuePair, NULL, CYBLE_GATT_DB_LOCALLY_INIT
 531              		.loc 1 333 0
 532 007e 0823     		mov	r3, #8
 533 0080 FB18     		add	r3, r7, r3
 534 0082 181C     		mov	r0, r3
 535 0084 0021     		mov	r1, #0
 536 0086 0022     		mov	r2, #0
 537 0088 FFF7FEFF 		bl	CyBle_GattsReadAttributeValue
 538 008c 031E     		sub	r3, r0, #0
 332:.\Generated_Source\PSoC4/BLE_hts.c ****             if(CYBLE_GATT_ERR_NONE !=
 539              		.loc 1 332 0
 540 008e 08D0     		beq	.L31
 334:.\Generated_Source\PSoC4/BLE_hts.c ****             {
 335:.\Generated_Source\PSoC4/BLE_hts.c ****                 apiResult = CYBLE_ERROR_INVALID_PARAMETER;
 541              		.loc 1 335 0
 542 0090 1623     		mov	r3, #22
 543 0092 FB18     		add	r3, r7, r3
 544 0094 0122     		mov	r2, #1
 545 0096 1A80     		strh	r2, [r3]
 546 0098 03E0     		b	.L31
 547              	.L32:
 336:.\Generated_Source\PSoC4/BLE_hts.c ****             }
 337:.\Generated_Source\PSoC4/BLE_hts.c ****         }
 338:.\Generated_Source\PSoC4/BLE_hts.c ****         else
 339:.\Generated_Source\PSoC4/BLE_hts.c ****         {
 340:.\Generated_Source\PSoC4/BLE_hts.c ****             apiResult = CYBLE_ERROR_INVALID_PARAMETER;
 548              		.loc 1 340 0
 549 009a 1623     		mov	r3, #22
 550 009c FB18     		add	r3, r7, r3
 551 009e 0122     		mov	r2, #1
 552 00a0 1A80     		strh	r2, [r3]
 553              	.L31:
 341:.\Generated_Source\PSoC4/BLE_hts.c ****         }
 342:.\Generated_Source\PSoC4/BLE_hts.c ****     }
 343:.\Generated_Source\PSoC4/BLE_hts.c ****     return (apiResult);
 554              		.loc 1 343 0
 555 00a2 1623     		mov	r3, #22
 556 00a4 FB18     		add	r3, r7, r3
 557 00a6 1B88     		ldrh	r3, [r3]
 344:.\Generated_Source\PSoC4/BLE_hts.c **** }
 558              		.loc 1 344 0
 559 00a8 181C     		mov	r0, r3
 560 00aa BD46     		mov	sp, r7
 561 00ac 07B0     		add	sp, sp, #28
 562              		@ sp needed
 563 00ae 90BD     		pop	{r4, r7, pc}
 564              	.L36:
ARM GAS  C:\Users\Henny\AppData\Local\Temp\ccRrnRtI.s 			page 17


 565              		.align	2
 566              	.L35:
 567 00b0 00000000 		.word	cyBle_htss
 568              		.cfi_endproc
 569              	.LFE7:
 570              		.size	CyBle_HtssGetCharacteristicDescriptor, .-CyBle_HtssGetCharacteristicDescriptor
 571              		.section	.text.CyBle_HtssWriteEventHandler,"ax",%progbits
 572              		.align	2
 573              		.global	CyBle_HtssWriteEventHandler
 574              		.code	16
 575              		.thumb_func
 576              		.type	CyBle_HtssWriteEventHandler, %function
 577              	CyBle_HtssWriteEventHandler:
 578              	.LFB8:
 345:.\Generated_Source\PSoC4/BLE_hts.c **** 
 346:.\Generated_Source\PSoC4/BLE_hts.c **** 
 347:.\Generated_Source\PSoC4/BLE_hts.c **** /******************************************************************************
 348:.\Generated_Source\PSoC4/BLE_hts.c **** * Function Name: CyBle_HtssWriteEventHandler
 349:.\Generated_Source\PSoC4/BLE_hts.c **** ***************************************************************************//**
 350:.\Generated_Source\PSoC4/BLE_hts.c **** * 
 351:.\Generated_Source\PSoC4/BLE_hts.c **** *  Handles Write Request Event for HTS service.
 352:.\Generated_Source\PSoC4/BLE_hts.c **** * 
 353:.\Generated_Source\PSoC4/BLE_hts.c **** *  \param void *eventParam: The pointer to the data structure specified by the event.
 354:.\Generated_Source\PSoC4/BLE_hts.c **** * 
 355:.\Generated_Source\PSoC4/BLE_hts.c **** * \return
 356:.\Generated_Source\PSoC4/BLE_hts.c **** *  Return value is of type CYBLE_GATT_ERR_CODE_T.
 357:.\Generated_Source\PSoC4/BLE_hts.c **** *   * CYBLE_GATT_ERR_NONE - Write is successful
 358:.\Generated_Source\PSoC4/BLE_hts.c **** * 
 359:.\Generated_Source\PSoC4/BLE_hts.c **** ******************************************************************************/
 360:.\Generated_Source\PSoC4/BLE_hts.c **** CYBLE_GATT_ERR_CODE_T CyBle_HtssWriteEventHandler(CYBLE_GATTS_WRITE_REQ_PARAM_T *eventParam)
 361:.\Generated_Source\PSoC4/BLE_hts.c **** {
 579              		.loc 1 361 0
 580              		.cfi_startproc
 581 0000 90B5     		push	{r4, r7, lr}
 582              		.cfi_def_cfa_offset 12
 583              		.cfi_offset 4, -12
 584              		.cfi_offset 7, -8
 585              		.cfi_offset 14, -4
 586 0002 89B0     		sub	sp, sp, #36
 587              		.cfi_def_cfa_offset 48
 588 0004 00AF     		add	r7, sp, #0
 589              		.cfi_def_cfa_register 7
 590 0006 7860     		str	r0, [r7, #4]
 362:.\Generated_Source\PSoC4/BLE_hts.c ****     CYBLE_HTS_CHAR_INDEX_T locCharIndex;
 363:.\Generated_Source\PSoC4/BLE_hts.c ****     CYBLE_HTS_CHAR_VALUE_T locCharValue;
 364:.\Generated_Source\PSoC4/BLE_hts.c ****     CYBLE_GATT_ERR_CODE_T gattErr = CYBLE_GATT_ERR_NONE;
 591              		.loc 1 364 0
 592 0008 1E23     		mov	r3, #30
 593 000a FB18     		add	r3, r7, r3
 594 000c 0022     		mov	r2, #0
 595 000e 1A70     		strb	r2, [r3]
 365:.\Generated_Source\PSoC4/BLE_hts.c ****     uint8 locReqHandle = 0u;
 596              		.loc 1 365 0
 597 0010 1D23     		mov	r3, #29
 598 0012 FB18     		add	r3, r7, r3
 599 0014 0022     		mov	r2, #0
 600 0016 1A70     		strb	r2, [r3]
ARM GAS  C:\Users\Henny\AppData\Local\Temp\ccRrnRtI.s 			page 18


 366:.\Generated_Source\PSoC4/BLE_hts.c **** 
 367:.\Generated_Source\PSoC4/BLE_hts.c ****     if(NULL != CyBle_HtsApplCallback)
 601              		.loc 1 367 0
 602 0018 B04B     		ldr	r3, .L53
 603 001a 1B68     		ldr	r3, [r3]
 604 001c 002B     		cmp	r3, #0
 605 001e 00D1     		bne	.LCB512
 606 0020 54E1     		b	.L38	@long jump
 607              	.LCB512:
 368:.\Generated_Source\PSoC4/BLE_hts.c ****     {
 369:.\Generated_Source\PSoC4/BLE_hts.c ****         for(locCharIndex = CYBLE_HTS_TEMP_MEASURE; (locCharIndex < CYBLE_HTS_CHAR_COUNT) && (locReq
 608              		.loc 1 369 0
 609 0022 1F23     		mov	r3, #31
 610 0024 FB18     		add	r3, r7, r3
 611 0026 0022     		mov	r2, #0
 612 0028 1A70     		strb	r2, [r3]
 613 002a 44E1     		b	.L39
 614              	.L51:
 370:.\Generated_Source\PSoC4/BLE_hts.c ****             locCharIndex++)
 371:.\Generated_Source\PSoC4/BLE_hts.c ****         {
 372:.\Generated_Source\PSoC4/BLE_hts.c ****             
 373:.\Generated_Source\PSoC4/BLE_hts.c ****             if((eventParam->handleValPair.attrHandle == cyBle_htss.charInfo[locCharIndex].descrHand
 615              		.loc 1 373 0
 616 002c 7B68     		ldr	r3, [r7, #4]
 617 002e 9989     		ldrh	r1, [r3, #12]
 618 0030 1F23     		mov	r3, #31
 619 0032 FB18     		add	r3, r7, r3
 620 0034 1A78     		ldrb	r2, [r3]
 621 0036 AA48     		ldr	r0, .L53+4
 622 0038 131C     		mov	r3, r2
 623 003a 5B00     		lsl	r3, r3, #1
 624 003c 9B18     		add	r3, r3, r2
 625 003e 5B00     		lsl	r3, r3, #1
 626 0040 C318     		add	r3, r0, r3
 627 0042 9B88     		ldrh	r3, [r3, #4]
 628 0044 9942     		cmp	r1, r3
 629 0046 0ED0     		beq	.L40
 374:.\Generated_Source\PSoC4/BLE_hts.c ****                (eventParam->handleValPair.attrHandle == cyBle_htss.charInfo[locCharIndex].charHandl
 630              		.loc 1 374 0 discriminator 1
 631 0048 7B68     		ldr	r3, [r7, #4]
 632 004a 9989     		ldrh	r1, [r3, #12]
 633 004c 1F23     		mov	r3, #31
 634 004e FB18     		add	r3, r7, r3
 635 0050 1A78     		ldrb	r2, [r3]
 636 0052 A348     		ldr	r0, .L53+4
 637 0054 131C     		mov	r3, r2
 638 0056 5B00     		lsl	r3, r3, #1
 639 0058 9B18     		add	r3, r3, r2
 640 005a 5B00     		lsl	r3, r3, #1
 641 005c C318     		add	r3, r0, r3
 642 005e 5B88     		ldrh	r3, [r3, #2]
 373:.\Generated_Source\PSoC4/BLE_hts.c ****                (eventParam->handleValPair.attrHandle == cyBle_htss.charInfo[locCharIndex].charHandl
 643              		.loc 1 373 0 discriminator 1
 644 0060 9942     		cmp	r1, r3
 645 0062 00D0     		beq	.LCB548
 646 0064 20E1     		b	.L41	@long jump
 647              	.LCB548:
ARM GAS  C:\Users\Henny\AppData\Local\Temp\ccRrnRtI.s 			page 19


 648              	.L40:
 375:.\Generated_Source\PSoC4/BLE_hts.c ****             {
 376:.\Generated_Source\PSoC4/BLE_hts.c ****                 locCharValue.connHandle = eventParam->connHandle;
 649              		.loc 1 376 0
 650 0066 0C23     		mov	r3, #12
 651 0068 FB18     		add	r3, r7, r3
 652 006a 7A68     		ldr	r2, [r7, #4]
 653 006c 1288     		ldrh	r2, [r2]
 654 006e 1A80     		strh	r2, [r3]
 377:.\Generated_Source\PSoC4/BLE_hts.c ****                 locCharValue.charIndex = locCharIndex;
 655              		.loc 1 377 0
 656 0070 0C23     		mov	r3, #12
 657 0072 FB18     		add	r3, r7, r3
 658 0074 1F22     		mov	r2, #31
 659 0076 BA18     		add	r2, r7, r2
 660 0078 1278     		ldrb	r2, [r2]
 661 007a 9A70     		strb	r2, [r3, #2]
 378:.\Generated_Source\PSoC4/BLE_hts.c ****                 locCharValue.value = &eventParam->handleValPair.value;
 662              		.loc 1 378 0
 663 007c 7B68     		ldr	r3, [r7, #4]
 664 007e 1A1D     		add	r2, r3, #4
 665 0080 0C23     		mov	r3, #12
 666 0082 FB18     		add	r3, r7, r3
 667 0084 5A60     		str	r2, [r3, #4]
 379:.\Generated_Source\PSoC4/BLE_hts.c ****                 /* Characteristic value write request */
 380:.\Generated_Source\PSoC4/BLE_hts.c ****                 if(eventParam->handleValPair.attrHandle == cyBle_htss.charInfo[locCharIndex].charHa
 668              		.loc 1 380 0
 669 0086 7B68     		ldr	r3, [r7, #4]
 670 0088 9989     		ldrh	r1, [r3, #12]
 671 008a 1F23     		mov	r3, #31
 672 008c FB18     		add	r3, r7, r3
 673 008e 1A78     		ldrb	r2, [r3]
 674 0090 9348     		ldr	r0, .L53+4
 675 0092 131C     		mov	r3, r2
 676 0094 5B00     		lsl	r3, r3, #1
 677 0096 9B18     		add	r3, r3, r2
 678 0098 5B00     		lsl	r3, r3, #1
 679 009a C318     		add	r3, r0, r3
 680 009c 5B88     		ldrh	r3, [r3, #2]
 681 009e 9942     		cmp	r1, r3
 682 00a0 00D0     		beq	.LCB579
 683 00a2 77E0     		b	.L42	@long jump
 684              	.LCB579:
 381:.\Generated_Source\PSoC4/BLE_hts.c ****                 {
 382:.\Generated_Source\PSoC4/BLE_hts.c ****                     /* Validate Measure Interval value */
 383:.\Generated_Source\PSoC4/BLE_hts.c ****                     if(locCharIndex == CYBLE_HTS_MEASURE_INTERVAL)
 685              		.loc 1 383 0
 686 00a4 1F23     		mov	r3, #31
 687 00a6 FB18     		add	r3, r7, r3
 688 00a8 1B78     		ldrb	r3, [r3]
 689 00aa 032B     		cmp	r3, #3
 690 00ac 4ED1     		bne	.L43
 691              	.LBB2:
 384:.\Generated_Source\PSoC4/BLE_hts.c ****                     {
 385:.\Generated_Source\PSoC4/BLE_hts.c ****                         uint8 locAttrValue[CYBLE_HTS_VRD_LEN];
 386:.\Generated_Source\PSoC4/BLE_hts.c ****                         uint16 requestValue;
 387:.\Generated_Source\PSoC4/BLE_hts.c ****                         
ARM GAS  C:\Users\Henny\AppData\Local\Temp\ccRrnRtI.s 			page 20


 388:.\Generated_Source\PSoC4/BLE_hts.c ****                         requestValue = CyBle_Get16ByPtr(eventParam->handleValPair.value.val);
 692              		.loc 1 388 0
 693 00ae 7B68     		ldr	r3, [r7, #4]
 694 00b0 5B68     		ldr	r3, [r3, #4]
 695 00b2 1A22     		mov	r2, #26
 696 00b4 BC18     		add	r4, r7, r2
 697 00b6 181C     		mov	r0, r3
 698 00b8 FFF7FEFF 		bl	CyBle_Get16ByPtr
 699 00bc 031C     		mov	r3, r0
 700 00be 2380     		strh	r3, [r4]
 389:.\Generated_Source\PSoC4/BLE_hts.c ****                         
 390:.\Generated_Source\PSoC4/BLE_hts.c ****                         if(requestValue != 0u) /* 0 is valid interval value for no periodic measure
 701              		.loc 1 390 0
 702 00c0 1A23     		mov	r3, #26
 703 00c2 FB18     		add	r3, r7, r3
 704 00c4 1B88     		ldrh	r3, [r3]
 705 00c6 002B     		cmp	r3, #0
 706 00c8 40D0     		beq	.L43
 391:.\Generated_Source\PSoC4/BLE_hts.c ****                         {
 392:.\Generated_Source\PSoC4/BLE_hts.c ****                             /* Check Valid range for Measure Interval characteristic value */
 393:.\Generated_Source\PSoC4/BLE_hts.c ****                             if(CYBLE_ERROR_OK == CyBle_HtssGetCharacteristicDescriptor(locCharIndex
 707              		.loc 1 393 0
 708 00ca 1F23     		mov	r3, #31
 709 00cc FB18     		add	r3, r7, r3
 710 00ce 1A78     		ldrb	r2, [r3]
 711 00d0 0823     		mov	r3, #8
 712 00d2 FB18     		add	r3, r7, r3
 713 00d4 101C     		mov	r0, r2
 714 00d6 0121     		mov	r1, #1
 715 00d8 0422     		mov	r2, #4
 716 00da FFF7FEFF 		bl	CyBle_HtssGetCharacteristicDescriptor
 717 00de 031E     		sub	r3, r0, #0
 718 00e0 34D1     		bne	.L43
 719              	.LBB3:
 394:.\Generated_Source\PSoC4/BLE_hts.c ****                                                     CYBLE_HTS_VRD_LEN, locAttrValue))
 395:.\Generated_Source\PSoC4/BLE_hts.c ****                             {
 396:.\Generated_Source\PSoC4/BLE_hts.c ****                                 uint16 lowerValue;
 397:.\Generated_Source\PSoC4/BLE_hts.c ****                                 uint16 upperValue;
 398:.\Generated_Source\PSoC4/BLE_hts.c ****                                 
 399:.\Generated_Source\PSoC4/BLE_hts.c ****                                 lowerValue = CyBle_Get16ByPtr(locAttrValue);
 720              		.loc 1 399 0
 721 00e2 1823     		mov	r3, #24
 722 00e4 FC18     		add	r4, r7, r3
 723 00e6 0823     		mov	r3, #8
 724 00e8 FB18     		add	r3, r7, r3
 725 00ea 181C     		mov	r0, r3
 726 00ec FFF7FEFF 		bl	CyBle_Get16ByPtr
 727 00f0 031C     		mov	r3, r0
 728 00f2 2380     		strh	r3, [r4]
 400:.\Generated_Source\PSoC4/BLE_hts.c ****                                 upperValue = CyBle_Get16ByPtr(locAttrValue + sizeof(lowerValue));
 729              		.loc 1 400 0
 730 00f4 1623     		mov	r3, #22
 731 00f6 FC18     		add	r4, r7, r3
 732 00f8 0823     		mov	r3, #8
 733 00fa FB18     		add	r3, r7, r3
 734 00fc 0233     		add	r3, r3, #2
 735 00fe 181C     		mov	r0, r3
ARM GAS  C:\Users\Henny\AppData\Local\Temp\ccRrnRtI.s 			page 21


 736 0100 FFF7FEFF 		bl	CyBle_Get16ByPtr
 737 0104 031C     		mov	r3, r0
 738 0106 2380     		strh	r3, [r4]
 401:.\Generated_Source\PSoC4/BLE_hts.c ****                                 requestValue = CyBle_Get16ByPtr(eventParam->handleValPair.value.val
 739              		.loc 1 401 0
 740 0108 7B68     		ldr	r3, [r7, #4]
 741 010a 5B68     		ldr	r3, [r3, #4]
 742 010c 1A22     		mov	r2, #26
 743 010e BC18     		add	r4, r7, r2
 744 0110 181C     		mov	r0, r3
 745 0112 FFF7FEFF 		bl	CyBle_Get16ByPtr
 746 0116 031C     		mov	r3, r0
 747 0118 2380     		strh	r3, [r4]
 402:.\Generated_Source\PSoC4/BLE_hts.c ****                                 if((requestValue != 0u) && ((requestValue < lowerValue) || (request
 748              		.loc 1 402 0
 749 011a 1A23     		mov	r3, #26
 750 011c FB18     		add	r3, r7, r3
 751 011e 1B88     		ldrh	r3, [r3]
 752 0120 002B     		cmp	r3, #0
 753 0122 13D0     		beq	.L43
 754              		.loc 1 402 0 is_stmt 0 discriminator 1
 755 0124 1A23     		mov	r3, #26
 756 0126 FA18     		add	r2, r7, r3
 757 0128 1823     		mov	r3, #24
 758 012a FB18     		add	r3, r7, r3
 759 012c 1288     		ldrh	r2, [r2]
 760 012e 1B88     		ldrh	r3, [r3]
 761 0130 9A42     		cmp	r2, r3
 762 0132 07D3     		bcc	.L45
 763              		.loc 1 402 0 discriminator 2
 764 0134 1A23     		mov	r3, #26
 765 0136 FA18     		add	r2, r7, r3
 766 0138 1623     		mov	r3, #22
 767 013a FB18     		add	r3, r7, r3
 768 013c 1288     		ldrh	r2, [r2]
 769 013e 1B88     		ldrh	r3, [r3]
 770 0140 9A42     		cmp	r2, r3
 771 0142 03D9     		bls	.L43
 772              	.L45:
 403:.\Generated_Source\PSoC4/BLE_hts.c ****                                 {
 404:.\Generated_Source\PSoC4/BLE_hts.c ****                                     gattErr = CYBLE_GATT_ERR_HTS_OUT_OF_RANGE;
 773              		.loc 1 404 0 is_stmt 1
 774 0144 1E23     		mov	r3, #30
 775 0146 FB18     		add	r3, r7, r3
 776 0148 8022     		mov	r2, #128
 777 014a 1A70     		strb	r2, [r3]
 778              	.L43:
 779              	.LBE3:
 780              	.LBE2:
 405:.\Generated_Source\PSoC4/BLE_hts.c ****                                 }
 406:.\Generated_Source\PSoC4/BLE_hts.c ****                             }
 407:.\Generated_Source\PSoC4/BLE_hts.c ****                         }
 408:.\Generated_Source\PSoC4/BLE_hts.c ****                     }
 409:.\Generated_Source\PSoC4/BLE_hts.c ****                     if(CYBLE_GATT_ERR_NONE == gattErr)
 781              		.loc 1 409 0
 782 014c 1E23     		mov	r3, #30
 783 014e FB18     		add	r3, r7, r3
ARM GAS  C:\Users\Henny\AppData\Local\Temp\ccRrnRtI.s 			page 22


 784 0150 1B78     		ldrb	r3, [r3]
 785 0152 002B     		cmp	r3, #0
 786 0154 00D0     		beq	.LCB671
 787 0156 9BE0     		b	.L47	@long jump
 788              	.LCB671:
 410:.\Generated_Source\PSoC4/BLE_hts.c ****                     {   /* Store value to database */
 411:.\Generated_Source\PSoC4/BLE_hts.c ****                         gattErr = CyBle_GattsWriteAttributeValue(&eventParam->handleValPair, 0u, 
 789              		.loc 1 411 0
 790 0158 7B68     		ldr	r3, [r7, #4]
 791 015a 1A1D     		add	r2, r3, #4
 792 015c 7B68     		ldr	r3, [r7, #4]
 793 015e 1E21     		mov	r1, #30
 794 0160 7C18     		add	r4, r7, r1
 795 0162 101C     		mov	r0, r2
 796 0164 0021     		mov	r1, #0
 797 0166 1A1C     		mov	r2, r3
 798 0168 4023     		mov	r3, #64
 799 016a FFF7FEFF 		bl	CyBle_GattsWriteAttributeValue
 800 016e 031C     		mov	r3, r0
 801 0170 2370     		strb	r3, [r4]
 412:.\Generated_Source\PSoC4/BLE_hts.c ****                                     &eventParam->connHandle, CYBLE_GATT_DB_PEER_INITIATED);
 413:.\Generated_Source\PSoC4/BLE_hts.c ****                         if(CYBLE_GATT_ERR_NONE == gattErr)
 802              		.loc 1 413 0
 803 0172 1E23     		mov	r3, #30
 804 0174 FB18     		add	r3, r7, r3
 805 0176 1B78     		ldrb	r3, [r3]
 806 0178 002B     		cmp	r3, #0
 807 017a 00D0     		beq	.LCB688
 808 017c 88E0     		b	.L47	@long jump
 809              	.LCB688:
 414:.\Generated_Source\PSoC4/BLE_hts.c ****                         {
 415:.\Generated_Source\PSoC4/BLE_hts.c ****                             CyBle_HtsApplCallback((uint32)CYBLE_EVT_HTSS_CHAR_WRITE, &locCharValue)
 810              		.loc 1 415 0
 811 017e 574B     		ldr	r3, .L53
 812 0180 1B68     		ldr	r3, [r3]
 813 0182 A222     		mov	r2, #162
 814 0184 FF32     		add	r2, r2, #255
 815 0186 111C     		mov	r1, r2
 816 0188 0C22     		mov	r2, #12
 817 018a BA18     		add	r2, r7, r2
 818 018c 081C     		mov	r0, r1
 819 018e 111C     		mov	r1, r2
 820 0190 9847     		blx	r3
 821 0192 7DE0     		b	.L47
 822              	.L42:
 416:.\Generated_Source\PSoC4/BLE_hts.c ****                         }
 417:.\Generated_Source\PSoC4/BLE_hts.c ****                     }    
 418:.\Generated_Source\PSoC4/BLE_hts.c ****                 }
 419:.\Generated_Source\PSoC4/BLE_hts.c ****                 else /* Client Characteristic Configuration descriptor write request */
 420:.\Generated_Source\PSoC4/BLE_hts.c ****                 {
 421:.\Generated_Source\PSoC4/BLE_hts.c ****                     /* Store value to database */
 422:.\Generated_Source\PSoC4/BLE_hts.c ****                     gattErr = CyBle_GattsWriteAttributeValue(&eventParam->handleValPair, 0u, 
 823              		.loc 1 422 0
 824 0194 7B68     		ldr	r3, [r7, #4]
 825 0196 1A1D     		add	r2, r3, #4
 826 0198 7B68     		ldr	r3, [r7, #4]
 827 019a 1E21     		mov	r1, #30
ARM GAS  C:\Users\Henny\AppData\Local\Temp\ccRrnRtI.s 			page 23


 828 019c 7C18     		add	r4, r7, r1
 829 019e 101C     		mov	r0, r2
 830 01a0 0021     		mov	r1, #0
 831 01a2 1A1C     		mov	r2, r3
 832 01a4 4023     		mov	r3, #64
 833 01a6 FFF7FEFF 		bl	CyBle_GattsWriteAttributeValue
 834 01aa 031C     		mov	r3, r0
 835 01ac 2370     		strb	r3, [r4]
 423:.\Generated_Source\PSoC4/BLE_hts.c ****                                     &eventParam->connHandle, CYBLE_GATT_DB_PEER_INITIATED);
 424:.\Generated_Source\PSoC4/BLE_hts.c ****                     if(CYBLE_GATT_ERR_NONE == gattErr)
 836              		.loc 1 424 0
 837 01ae 1E23     		mov	r3, #30
 838 01b0 FB18     		add	r3, r7, r3
 839 01b2 1B78     		ldrb	r3, [r3]
 840 01b4 002B     		cmp	r3, #0
 841 01b6 6BD1     		bne	.L47
 425:.\Generated_Source\PSoC4/BLE_hts.c ****                     {
 426:.\Generated_Source\PSoC4/BLE_hts.c ****                         /* Check characteristic properties for Notification */
 427:.\Generated_Source\PSoC4/BLE_hts.c ****                         if(CYBLE_IS_NOTIFICATION_SUPPORTED(cyBle_htss.charInfo[locCharIndex].charHa
 842              		.loc 1 427 0
 843 01b8 1F23     		mov	r3, #31
 844 01ba FB18     		add	r3, r7, r3
 845 01bc 1A78     		ldrb	r2, [r3]
 846 01be 4849     		ldr	r1, .L53+4
 847 01c0 131C     		mov	r3, r2
 848 01c2 5B00     		lsl	r3, r3, #1
 849 01c4 9B18     		add	r3, r3, r2
 850 01c6 5B00     		lsl	r3, r3, #1
 851 01c8 CB18     		add	r3, r1, r3
 852 01ca 5B88     		ldrh	r3, [r3, #2]
 853 01cc 5A1E     		sub	r2, r3, #1
 854 01ce 4549     		ldr	r1, .L53+8
 855 01d0 131C     		mov	r3, r2
 856 01d2 9B00     		lsl	r3, r3, #2
 857 01d4 9B18     		add	r3, r3, r2
 858 01d6 9B00     		lsl	r3, r3, #2
 859 01d8 CB18     		add	r3, r1, r3
 860 01da 5A68     		ldr	r2, [r3, #4]
 861 01dc 8023     		mov	r3, #128
 862 01de 5B01     		lsl	r3, r3, #5
 863 01e0 1340     		and	r3, r2
 864 01e2 1FD0     		beq	.L48
 428:.\Generated_Source\PSoC4/BLE_hts.c ****                         {
 429:.\Generated_Source\PSoC4/BLE_hts.c ****                             if(CYBLE_IS_NOTIFICATION_ENABLED_IN_PTR(eventParam->handleValPair.value
 865              		.loc 1 429 0
 866 01e4 7B68     		ldr	r3, [r7, #4]
 867 01e6 5B68     		ldr	r3, [r3, #4]
 868 01e8 181C     		mov	r0, r3
 869 01ea FFF7FEFF 		bl	CyBle_Get16ByPtr
 870 01ee 031C     		mov	r3, r0
 871 01f0 1A1C     		mov	r2, r3
 872 01f2 0123     		mov	r3, #1
 873 01f4 1340     		and	r3, r2
 874 01f6 9BB2     		uxth	r3, r3
 875 01f8 002B     		cmp	r3, #0
 876 01fa 09D0     		beq	.L49
 430:.\Generated_Source\PSoC4/BLE_hts.c ****                             {
ARM GAS  C:\Users\Henny\AppData\Local\Temp\ccRrnRtI.s 			page 24


 431:.\Generated_Source\PSoC4/BLE_hts.c ****                                 CyBle_HtsApplCallback((uint32)CYBLE_EVT_HTSS_NOTIFICATION_ENABLED, 
 877              		.loc 1 431 0
 878 01fc 374B     		ldr	r3, .L53
 879 01fe 1B68     		ldr	r3, [r3]
 880 0200 CE22     		mov	r2, #206
 881 0202 5100     		lsl	r1, r2, #1
 882 0204 0C22     		mov	r2, #12
 883 0206 BA18     		add	r2, r7, r2
 884 0208 081C     		mov	r0, r1
 885 020a 111C     		mov	r1, r2
 886 020c 9847     		blx	r3
 887 020e 09E0     		b	.L48
 888              	.L49:
 432:.\Generated_Source\PSoC4/BLE_hts.c ****                             }
 433:.\Generated_Source\PSoC4/BLE_hts.c ****                             else
 434:.\Generated_Source\PSoC4/BLE_hts.c ****                             {
 435:.\Generated_Source\PSoC4/BLE_hts.c ****                                 CyBle_HtsApplCallback((uint32)CYBLE_EVT_HTSS_NOTIFICATION_DISABLED,
 889              		.loc 1 435 0
 890 0210 324B     		ldr	r3, .L53
 891 0212 1B68     		ldr	r3, [r3]
 892 0214 9E22     		mov	r2, #158
 893 0216 FF32     		add	r2, r2, #255
 894 0218 111C     		mov	r1, r2
 895 021a 0C22     		mov	r2, #12
 896 021c BA18     		add	r2, r7, r2
 897 021e 081C     		mov	r0, r1
 898 0220 111C     		mov	r1, r2
 899 0222 9847     		blx	r3
 900              	.L48:
 436:.\Generated_Source\PSoC4/BLE_hts.c ****                             }
 437:.\Generated_Source\PSoC4/BLE_hts.c ****                         }
 438:.\Generated_Source\PSoC4/BLE_hts.c ****                         /* Check characteristic properties for Indication */
 439:.\Generated_Source\PSoC4/BLE_hts.c ****                         if(CYBLE_IS_INDICATION_SUPPORTED(cyBle_htss.charInfo[locCharIndex].charHand
 901              		.loc 1 439 0
 902 0224 1F23     		mov	r3, #31
 903 0226 FB18     		add	r3, r7, r3
 904 0228 1A78     		ldrb	r2, [r3]
 905 022a 2D49     		ldr	r1, .L53+4
 906 022c 131C     		mov	r3, r2
 907 022e 5B00     		lsl	r3, r3, #1
 908 0230 9B18     		add	r3, r3, r2
 909 0232 5B00     		lsl	r3, r3, #1
 910 0234 CB18     		add	r3, r1, r3
 911 0236 5B88     		ldrh	r3, [r3, #2]
 912 0238 5A1E     		sub	r2, r3, #1
 913 023a 2A49     		ldr	r1, .L53+8
 914 023c 131C     		mov	r3, r2
 915 023e 9B00     		lsl	r3, r3, #2
 916 0240 9B18     		add	r3, r3, r2
 917 0242 9B00     		lsl	r3, r3, #2
 918 0244 CB18     		add	r3, r1, r3
 919 0246 5A68     		ldr	r2, [r3, #4]
 920 0248 8023     		mov	r3, #128
 921 024a 9B01     		lsl	r3, r3, #6
 922 024c 1340     		and	r3, r2
 923 024e 1FD0     		beq	.L47
 440:.\Generated_Source\PSoC4/BLE_hts.c ****                         {
ARM GAS  C:\Users\Henny\AppData\Local\Temp\ccRrnRtI.s 			page 25


 441:.\Generated_Source\PSoC4/BLE_hts.c ****                             if(CYBLE_IS_INDICATION_ENABLED_IN_PTR(eventParam->handleValPair.value.v
 924              		.loc 1 441 0
 925 0250 7B68     		ldr	r3, [r7, #4]
 926 0252 5B68     		ldr	r3, [r3, #4]
 927 0254 181C     		mov	r0, r3
 928 0256 FFF7FEFF 		bl	CyBle_Get16ByPtr
 929 025a 031C     		mov	r3, r0
 930 025c 1A1C     		mov	r2, r3
 931 025e 0223     		mov	r3, #2
 932 0260 1340     		and	r3, r2
 933 0262 9BB2     		uxth	r3, r3
 934 0264 002B     		cmp	r3, #0
 935 0266 09D0     		beq	.L50
 442:.\Generated_Source\PSoC4/BLE_hts.c ****                             {
 443:.\Generated_Source\PSoC4/BLE_hts.c ****                                 CyBle_HtsApplCallback((uint32)CYBLE_EVT_HTSS_INDICATION_ENABLED, &l
 936              		.loc 1 443 0
 937 0268 1C4B     		ldr	r3, .L53
 938 026a 1B68     		ldr	r3, [r3]
 939 026c CF22     		mov	r2, #207
 940 026e 5100     		lsl	r1, r2, #1
 941 0270 0C22     		mov	r2, #12
 942 0272 BA18     		add	r2, r7, r2
 943 0274 081C     		mov	r0, r1
 944 0276 111C     		mov	r1, r2
 945 0278 9847     		blx	r3
 946 027a 09E0     		b	.L47
 947              	.L50:
 444:.\Generated_Source\PSoC4/BLE_hts.c ****                             }
 445:.\Generated_Source\PSoC4/BLE_hts.c ****                             else
 446:.\Generated_Source\PSoC4/BLE_hts.c ****                             {
 447:.\Generated_Source\PSoC4/BLE_hts.c ****                                 CyBle_HtsApplCallback((uint32)CYBLE_EVT_HTSS_INDICATION_DISABLED, &
 948              		.loc 1 447 0
 949 027c 174B     		ldr	r3, .L53
 950 027e 1B68     		ldr	r3, [r3]
 951 0280 A022     		mov	r2, #160
 952 0282 FF32     		add	r2, r2, #255
 953 0284 111C     		mov	r1, r2
 954 0286 0C22     		mov	r2, #12
 955 0288 BA18     		add	r2, r7, r2
 956 028a 081C     		mov	r0, r1
 957 028c 111C     		mov	r1, r2
 958 028e 9847     		blx	r3
 959              	.L47:
 448:.\Generated_Source\PSoC4/BLE_hts.c ****                             }
 449:.\Generated_Source\PSoC4/BLE_hts.c ****                         }
 450:.\Generated_Source\PSoC4/BLE_hts.c ****                     #if((CYBLE_GAP_ROLE_PERIPHERAL || CYBLE_GAP_ROLE_CENTRAL) && \
 451:.\Generated_Source\PSoC4/BLE_hts.c ****                         (CYBLE_BONDING_REQUIREMENT == CYBLE_BONDING_YES))
 452:.\Generated_Source\PSoC4/BLE_hts.c ****                         /* Set flag to store bonding data to flash */
 453:.\Generated_Source\PSoC4/BLE_hts.c ****                         if(cyBle_peerBonding == CYBLE_GAP_BONDING)
 454:.\Generated_Source\PSoC4/BLE_hts.c ****                         {
 455:.\Generated_Source\PSoC4/BLE_hts.c ****                             cyBle_pendingFlashWrite |= CYBLE_PENDING_CCCD_FLASH_WRITE_BIT;
 456:.\Generated_Source\PSoC4/BLE_hts.c ****                         }
 457:.\Generated_Source\PSoC4/BLE_hts.c ****                     #endif /* (CYBLE_BONDING_REQUIREMENT == CYBLE_BONDING_YES) */
 458:.\Generated_Source\PSoC4/BLE_hts.c ****                         
 459:.\Generated_Source\PSoC4/BLE_hts.c ****                     }
 460:.\Generated_Source\PSoC4/BLE_hts.c ****                 }
 461:.\Generated_Source\PSoC4/BLE_hts.c ****                 cyBle_eventHandlerFlag &= (uint8)~CYBLE_CALLBACK;
ARM GAS  C:\Users\Henny\AppData\Local\Temp\ccRrnRtI.s 			page 26


 960              		.loc 1 461 0
 961 0290 154B     		ldr	r3, .L53+12
 962 0292 1B78     		ldrb	r3, [r3]
 963 0294 DBB2     		uxtb	r3, r3
 964 0296 0122     		mov	r2, #1
 965 0298 9343     		bic	r3, r2
 966 029a DAB2     		uxtb	r2, r3
 967 029c 124B     		ldr	r3, .L53+12
 968 029e 1A70     		strb	r2, [r3]
 462:.\Generated_Source\PSoC4/BLE_hts.c ****                 locReqHandle = 1u;
 969              		.loc 1 462 0
 970 02a0 1D23     		mov	r3, #29
 971 02a2 FB18     		add	r3, r7, r3
 972 02a4 0122     		mov	r2, #1
 973 02a6 1A70     		strb	r2, [r3]
 974              	.L41:
 370:.\Generated_Source\PSoC4/BLE_hts.c ****         {
 975              		.loc 1 370 0
 976 02a8 1F23     		mov	r3, #31
 977 02aa FB18     		add	r3, r7, r3
 978 02ac 1A78     		ldrb	r2, [r3]
 979 02ae 1F23     		mov	r3, #31
 980 02b0 FB18     		add	r3, r7, r3
 981 02b2 0132     		add	r2, r2, #1
 982 02b4 1A70     		strb	r2, [r3]
 983              	.L39:
 369:.\Generated_Source\PSoC4/BLE_hts.c ****             locCharIndex++)
 984              		.loc 1 369 0 discriminator 1
 985 02b6 1F23     		mov	r3, #31
 986 02b8 FB18     		add	r3, r7, r3
 987 02ba 1B78     		ldrb	r3, [r3]
 988 02bc 032B     		cmp	r3, #3
 989 02be 05D8     		bhi	.L38
 369:.\Generated_Source\PSoC4/BLE_hts.c ****             locCharIndex++)
 990              		.loc 1 369 0 is_stmt 0 discriminator 2
 991 02c0 1D23     		mov	r3, #29
 992 02c2 FB18     		add	r3, r7, r3
 993 02c4 1B78     		ldrb	r3, [r3]
 994 02c6 002B     		cmp	r3, #0
 995 02c8 00D1     		bne	.LCB870
 996 02ca AFE6     		b	.L51	@long jump
 997              	.LCB870:
 998              	.L38:
 463:.\Generated_Source\PSoC4/BLE_hts.c ****             }
 464:.\Generated_Source\PSoC4/BLE_hts.c ****         }
 465:.\Generated_Source\PSoC4/BLE_hts.c ****     }
 466:.\Generated_Source\PSoC4/BLE_hts.c ****     return (gattErr);
 999              		.loc 1 466 0 is_stmt 1
 1000 02cc 1E23     		mov	r3, #30
 1001 02ce FB18     		add	r3, r7, r3
 1002 02d0 1B78     		ldrb	r3, [r3]
 467:.\Generated_Source\PSoC4/BLE_hts.c **** }
 1003              		.loc 1 467 0
 1004 02d2 181C     		mov	r0, r3
 1005 02d4 BD46     		mov	sp, r7
 1006 02d6 09B0     		add	sp, sp, #36
 1007              		@ sp needed
ARM GAS  C:\Users\Henny\AppData\Local\Temp\ccRrnRtI.s 			page 27


 1008 02d8 90BD     		pop	{r4, r7, pc}
 1009              	.L54:
 1010 02da C046     		.align	2
 1011              	.L53:
 1012 02dc 00000000 		.word	CyBle_HtsApplCallback
 1013 02e0 00000000 		.word	cyBle_htss
 1014 02e4 00000000 		.word	cyBle_gattDB
 1015 02e8 00000000 		.word	cyBle_eventHandlerFlag
 1016              		.cfi_endproc
 1017              	.LFE8:
 1018              		.size	CyBle_HtssWriteEventHandler, .-CyBle_HtssWriteEventHandler
 1019              		.section	.text.CyBle_HtssSendNotification,"ax",%progbits
 1020              		.align	2
 1021              		.global	CyBle_HtssSendNotification
 1022              		.code	16
 1023              		.thumb_func
 1024              		.type	CyBle_HtssSendNotification, %function
 1025              	CyBle_HtssSendNotification:
 1026              	.LFB9:
 468:.\Generated_Source\PSoC4/BLE_hts.c **** 
 469:.\Generated_Source\PSoC4/BLE_hts.c **** 
 470:.\Generated_Source\PSoC4/BLE_hts.c **** /******************************************************************************
 471:.\Generated_Source\PSoC4/BLE_hts.c **** * Function Name: CyBle_HtssSendNotification
 472:.\Generated_Source\PSoC4/BLE_hts.c **** ***************************************************************************//**
 473:.\Generated_Source\PSoC4/BLE_hts.c **** * 
 474:.\Generated_Source\PSoC4/BLE_hts.c **** *  Sends notification with a characteristic value of the Health Thermometer 
 475:.\Generated_Source\PSoC4/BLE_hts.c **** *  Service, which is a value specified by charIndex, to the Client device.
 476:.\Generated_Source\PSoC4/BLE_hts.c **** * 
 477:.\Generated_Source\PSoC4/BLE_hts.c **** *  \param connHandle: The connection handle.
 478:.\Generated_Source\PSoC4/BLE_hts.c **** *  \param charIndex: The index of the service characteristic.
 479:.\Generated_Source\PSoC4/BLE_hts.c **** *  \param attrSize: The size of the characteristic value attribute.
 480:.\Generated_Source\PSoC4/BLE_hts.c **** *  \param attrValue: The pointer to the characteristic value data that should be 
 481:.\Generated_Source\PSoC4/BLE_hts.c **** *               sent to the client's device.
 482:.\Generated_Source\PSoC4/BLE_hts.c **** * 
 483:.\Generated_Source\PSoC4/BLE_hts.c **** * \return
 484:.\Generated_Source\PSoC4/BLE_hts.c **** *  Return value is of type CYBLE_API_RESULT_T.
 485:.\Generated_Source\PSoC4/BLE_hts.c **** *   * CYBLE_ERROR_OK - The request handled successfully
 486:.\Generated_Source\PSoC4/BLE_hts.c **** *   * CYBLE_ERROR_INVALID_PARAMETER - Validation of the input parameter failed
 487:.\Generated_Source\PSoC4/BLE_hts.c **** *   * CYBLE_ERROR_INVALID_OPERATION - This operation is not permitted
 488:.\Generated_Source\PSoC4/BLE_hts.c **** *   * CYBLE_ERROR_INVALID_STATE - Connection with the client is not established
 489:.\Generated_Source\PSoC4/BLE_hts.c **** *   * CYBLE_ERROR_MEMORY_ALLOCATION_FAILED - Memory allocation failed. 
 490:.\Generated_Source\PSoC4/BLE_hts.c **** *   * CYBLE_ERROR_NTF_DISABLED - Notification is not enabled by the client.
 491:.\Generated_Source\PSoC4/BLE_hts.c **** *
 492:.\Generated_Source\PSoC4/BLE_hts.c **** * \events
 493:.\Generated_Source\PSoC4/BLE_hts.c **** *  None
 494:.\Generated_Source\PSoC4/BLE_hts.c **** *
 495:.\Generated_Source\PSoC4/BLE_hts.c **** ******************************************************************************/
 496:.\Generated_Source\PSoC4/BLE_hts.c **** CYBLE_API_RESULT_T CyBle_HtssSendNotification(CYBLE_CONN_HANDLE_T connHandle,
 497:.\Generated_Source\PSoC4/BLE_hts.c ****     CYBLE_HTS_CHAR_INDEX_T charIndex, uint8 attrSize, uint8 *attrValue)
 498:.\Generated_Source\PSoC4/BLE_hts.c **** {
 1027              		.loc 1 498 0
 1028              		.cfi_startproc
 1029 0000 90B5     		push	{r4, r7, lr}
 1030              		.cfi_def_cfa_offset 12
 1031              		.cfi_offset 4, -12
 1032              		.cfi_offset 7, -8
 1033              		.cfi_offset 14, -4
ARM GAS  C:\Users\Henny\AppData\Local\Temp\ccRrnRtI.s 			page 28


 1034 0002 89B0     		sub	sp, sp, #36
 1035              		.cfi_def_cfa_offset 48
 1036 0004 00AF     		add	r7, sp, #0
 1037              		.cfi_def_cfa_register 7
 1038 0006 0C24     		mov	r4, #12
 1039 0008 3C19     		add	r4, r7, r4
 1040 000a 2080     		strh	r0, [r4]
 1041 000c 081C     		mov	r0, r1
 1042 000e 111C     		mov	r1, r2
 1043 0010 7B60     		str	r3, [r7, #4]
 1044 0012 0B23     		mov	r3, #11
 1045 0014 FB18     		add	r3, r7, r3
 1046 0016 021C     		add	r2, r0, #0
 1047 0018 1A70     		strb	r2, [r3]
 1048 001a 0A23     		mov	r3, #10
 1049 001c FB18     		add	r3, r7, r3
 1050 001e 0A1C     		add	r2, r1, #0
 1051 0020 1A70     		strb	r2, [r3]
 499:.\Generated_Source\PSoC4/BLE_hts.c **** 
 500:.\Generated_Source\PSoC4/BLE_hts.c ****     CYBLE_API_RESULT_T apiResult;
 501:.\Generated_Source\PSoC4/BLE_hts.c ****     
 502:.\Generated_Source\PSoC4/BLE_hts.c ****     /* Send Notification if it is enabled and connected */
 503:.\Generated_Source\PSoC4/BLE_hts.c ****     if(CYBLE_STATE_CONNECTED != CyBle_GetState())
 1052              		.loc 1 503 0
 1053 0022 2C4B     		ldr	r3, .L60
 1054 0024 1B78     		ldrb	r3, [r3]
 1055 0026 022B     		cmp	r3, #2
 1056 0028 05D0     		beq	.L56
 504:.\Generated_Source\PSoC4/BLE_hts.c ****     {
 505:.\Generated_Source\PSoC4/BLE_hts.c ****         apiResult = CYBLE_ERROR_INVALID_STATE;
 1057              		.loc 1 505 0
 1058 002a 1E23     		mov	r3, #30
 1059 002c FB18     		add	r3, r7, r3
 1060 002e 0422     		mov	r2, #4
 1061 0030 FF32     		add	r2, r2, #255
 1062 0032 1A80     		strh	r2, [r3]
 1063 0034 47E0     		b	.L57
 1064              	.L56:
 506:.\Generated_Source\PSoC4/BLE_hts.c ****     }
 507:.\Generated_Source\PSoC4/BLE_hts.c ****     else if(!CYBLE_IS_NOTIFICATION_ENABLED(cyBle_htss.charInfo[charIndex].descrHandle[CYBLE_HTS_CCC
 1065              		.loc 1 507 0
 1066 0036 0B23     		mov	r3, #11
 1067 0038 FB18     		add	r3, r7, r3
 1068 003a 1A78     		ldrb	r2, [r3]
 1069 003c 2649     		ldr	r1, .L60+4
 1070 003e 131C     		mov	r3, r2
 1071 0040 5B00     		lsl	r3, r3, #1
 1072 0042 9B18     		add	r3, r3, r2
 1073 0044 5B00     		lsl	r3, r3, #1
 1074 0046 CB18     		add	r3, r1, r3
 1075 0048 9B88     		ldrh	r3, [r3, #4]
 1076 004a 5A1E     		sub	r2, r3, #1
 1077 004c 2349     		ldr	r1, .L60+8
 1078 004e 131C     		mov	r3, r2
 1079 0050 9B00     		lsl	r3, r3, #2
 1080 0052 9B18     		add	r3, r3, r2
 1081 0054 9B00     		lsl	r3, r3, #2
ARM GAS  C:\Users\Henny\AppData\Local\Temp\ccRrnRtI.s 			page 29


 1082 0056 CB18     		add	r3, r1, r3
 1083 0058 0833     		add	r3, r3, #8
 1084 005a 9B68     		ldr	r3, [r3, #8]
 1085 005c 5B68     		ldr	r3, [r3, #4]
 1086 005e 181C     		mov	r0, r3
 1087 0060 FFF7FEFF 		bl	CyBle_Get16ByPtr
 1088 0064 031C     		mov	r3, r0
 1089 0066 1A1C     		mov	r2, r3
 1090 0068 0123     		mov	r3, #1
 1091 006a 1340     		and	r3, r2
 1092 006c 9BB2     		uxth	r3, r3
 1093 006e 002B     		cmp	r3, #0
 1094 0070 05D1     		bne	.L58
 508:.\Generated_Source\PSoC4/BLE_hts.c ****     {
 509:.\Generated_Source\PSoC4/BLE_hts.c ****         apiResult = CYBLE_ERROR_NTF_DISABLED;
 1095              		.loc 1 509 0
 1096 0072 1E23     		mov	r3, #30
 1097 0074 FB18     		add	r3, r7, r3
 1098 0076 8022     		mov	r2, #128
 1099 0078 5200     		lsl	r2, r2, #1
 1100 007a 1A80     		strh	r2, [r3]
 1101 007c 23E0     		b	.L57
 1102              	.L58:
 1103              	.LBB4:
 510:.\Generated_Source\PSoC4/BLE_hts.c ****     }
 511:.\Generated_Source\PSoC4/BLE_hts.c ****     else
 512:.\Generated_Source\PSoC4/BLE_hts.c ****     {
 513:.\Generated_Source\PSoC4/BLE_hts.c ****         CYBLE_GATTS_HANDLE_VALUE_NTF_T ntfReqParam;
 514:.\Generated_Source\PSoC4/BLE_hts.c ****         
 515:.\Generated_Source\PSoC4/BLE_hts.c ****         /* Fill all fields of write request structure ... */
 516:.\Generated_Source\PSoC4/BLE_hts.c ****         ntfReqParam.attrHandle = cyBle_htss.charInfo[charIndex].charHandle;
 1104              		.loc 1 516 0
 1105 007e 0B23     		mov	r3, #11
 1106 0080 FB18     		add	r3, r7, r3
 1107 0082 1A78     		ldrb	r2, [r3]
 1108 0084 1449     		ldr	r1, .L60+4
 1109 0086 131C     		mov	r3, r2
 1110 0088 5B00     		lsl	r3, r3, #1
 1111 008a 9B18     		add	r3, r3, r2
 1112 008c 5B00     		lsl	r3, r3, #1
 1113 008e CB18     		add	r3, r1, r3
 1114 0090 5A88     		ldrh	r2, [r3, #2]
 1115 0092 1023     		mov	r3, #16
 1116 0094 FB18     		add	r3, r7, r3
 1117 0096 1A81     		strh	r2, [r3, #8]
 517:.\Generated_Source\PSoC4/BLE_hts.c ****         ntfReqParam.value.val = attrValue;
 1118              		.loc 1 517 0
 1119 0098 1023     		mov	r3, #16
 1120 009a FB18     		add	r3, r7, r3
 1121 009c 7A68     		ldr	r2, [r7, #4]
 1122 009e 1A60     		str	r2, [r3]
 518:.\Generated_Source\PSoC4/BLE_hts.c ****         ntfReqParam.value.len = attrSize;
 1123              		.loc 1 518 0
 1124 00a0 0A23     		mov	r3, #10
 1125 00a2 FB18     		add	r3, r7, r3
 1126 00a4 1B78     		ldrb	r3, [r3]
 1127 00a6 9AB2     		uxth	r2, r3
ARM GAS  C:\Users\Henny\AppData\Local\Temp\ccRrnRtI.s 			page 30


 1128 00a8 1023     		mov	r3, #16
 1129 00aa FB18     		add	r3, r7, r3
 1130 00ac 9A80     		strh	r2, [r3, #4]
 519:.\Generated_Source\PSoC4/BLE_hts.c ****         
 520:.\Generated_Source\PSoC4/BLE_hts.c ****         /* Send notification to client using previously filled structure */
 521:.\Generated_Source\PSoC4/BLE_hts.c ****         apiResult = CyBle_GattsNotification(connHandle, &ntfReqParam);
 1131              		.loc 1 521 0
 1132 00ae 1E23     		mov	r3, #30
 1133 00b0 FC18     		add	r4, r7, r3
 1134 00b2 0C23     		mov	r3, #12
 1135 00b4 FB18     		add	r3, r7, r3
 1136 00b6 1022     		mov	r2, #16
 1137 00b8 BA18     		add	r2, r7, r2
 1138 00ba 1868     		ldr	r0, [r3]
 1139 00bc 111C     		mov	r1, r2
 1140 00be FFF7FEFF 		bl	CyBle_GattsNotification
 1141 00c2 031C     		mov	r3, r0
 1142 00c4 2380     		strh	r3, [r4]
 1143              	.L57:
 1144              	.LBE4:
 522:.\Generated_Source\PSoC4/BLE_hts.c ****     }
 523:.\Generated_Source\PSoC4/BLE_hts.c **** 
 524:.\Generated_Source\PSoC4/BLE_hts.c ****     return (apiResult);
 1145              		.loc 1 524 0
 1146 00c6 1E23     		mov	r3, #30
 1147 00c8 FB18     		add	r3, r7, r3
 1148 00ca 1B88     		ldrh	r3, [r3]
 525:.\Generated_Source\PSoC4/BLE_hts.c **** }
 1149              		.loc 1 525 0
 1150 00cc 181C     		mov	r0, r3
 1151 00ce BD46     		mov	sp, r7
 1152 00d0 09B0     		add	sp, sp, #36
 1153              		@ sp needed
 1154 00d2 90BD     		pop	{r4, r7, pc}
 1155              	.L61:
 1156              		.align	2
 1157              	.L60:
 1158 00d4 00000000 		.word	cyBle_state
 1159 00d8 00000000 		.word	cyBle_htss
 1160 00dc 00000000 		.word	cyBle_gattDB
 1161              		.cfi_endproc
 1162              	.LFE9:
 1163              		.size	CyBle_HtssSendNotification, .-CyBle_HtssSendNotification
 1164              		.section	.text.CyBle_HtssSendIndication,"ax",%progbits
 1165              		.align	2
 1166              		.global	CyBle_HtssSendIndication
 1167              		.code	16
 1168              		.thumb_func
 1169              		.type	CyBle_HtssSendIndication, %function
 1170              	CyBle_HtssSendIndication:
 1171              	.LFB10:
 526:.\Generated_Source\PSoC4/BLE_hts.c **** 
 527:.\Generated_Source\PSoC4/BLE_hts.c **** 
 528:.\Generated_Source\PSoC4/BLE_hts.c **** /******************************************************************************
 529:.\Generated_Source\PSoC4/BLE_hts.c **** * Function Name: CyBle_HtssSendIndication
 530:.\Generated_Source\PSoC4/BLE_hts.c **** ***************************************************************************//**
 531:.\Generated_Source\PSoC4/BLE_hts.c **** * 
ARM GAS  C:\Users\Henny\AppData\Local\Temp\ccRrnRtI.s 			page 31


 532:.\Generated_Source\PSoC4/BLE_hts.c **** *  Sends indication with a characteristic value of the Health Thermometer 
 533:.\Generated_Source\PSoC4/BLE_hts.c **** *  Service, which is a value specified by charIndex, to the Client device.
 534:.\Generated_Source\PSoC4/BLE_hts.c **** * 
 535:.\Generated_Source\PSoC4/BLE_hts.c **** *  \param connHandle: The connection handle.
 536:.\Generated_Source\PSoC4/BLE_hts.c **** *  \param charIndex:  The index of the service characteristic.
 537:.\Generated_Source\PSoC4/BLE_hts.c **** *  \param attrSize: The size of the characteristic value attribute.
 538:.\Generated_Source\PSoC4/BLE_hts.c **** *  \param attrValue: The pointer to the characteristic value data that should be
 539:.\Generated_Source\PSoC4/BLE_hts.c **** *               sent to the Client device.
 540:.\Generated_Source\PSoC4/BLE_hts.c **** * 
 541:.\Generated_Source\PSoC4/BLE_hts.c **** * \return
 542:.\Generated_Source\PSoC4/BLE_hts.c **** *  Return value is of type CYBLE_API_RESULT_T.
 543:.\Generated_Source\PSoC4/BLE_hts.c **** *   * CYBLE_ERROR_OK - The request handled successfully
 544:.\Generated_Source\PSoC4/BLE_hts.c **** *   * CYBLE_ERROR_INVALID_PARAMETER - Validation of the input parameter failed
 545:.\Generated_Source\PSoC4/BLE_hts.c **** *   * CYBLE_ERROR_INVALID_OPERATION - This operation is not permitted
 546:.\Generated_Source\PSoC4/BLE_hts.c **** *   * CYBLE_ERROR_INVALID_STATE - Connection with the client is not established
 547:.\Generated_Source\PSoC4/BLE_hts.c **** *   * CYBLE_ERROR_MEMORY_ALLOCATION_FAILED - Memory allocation failed
 548:.\Generated_Source\PSoC4/BLE_hts.c **** *   * CYBLE_ERROR_IND_DISABLED - Indication is not enabled by the client
 549:.\Generated_Source\PSoC4/BLE_hts.c **** *
 550:.\Generated_Source\PSoC4/BLE_hts.c **** * \events
 551:.\Generated_Source\PSoC4/BLE_hts.c **** *  In case of successful execution (return value = CYBLE_ERROR_OK)
 552:.\Generated_Source\PSoC4/BLE_hts.c **** *  the next events can appear: \n
 553:.\Generated_Source\PSoC4/BLE_hts.c **** *   If the HTS service-specific callback is registered 
 554:.\Generated_Source\PSoC4/BLE_hts.c **** *      (with CyBle_HtsRegisterAttrCallback):
 555:.\Generated_Source\PSoC4/BLE_hts.c **** *  * CYBLE_EVT_HTSS_INDICATION_CONFIRMED - in case if the indication is
 556:.\Generated_Source\PSoC4/BLE_hts.c **** *                                successfully delivered to the peer device.
 557:.\Generated_Source\PSoC4/BLE_hts.c **** *  .
 558:.\Generated_Source\PSoC4/BLE_hts.c **** *   Otherwise (if the HTS service-specific callback is not registered):
 559:.\Generated_Source\PSoC4/BLE_hts.c **** *  * CYBLE_EVT_GATTS_HANDLE_VALUE_CNF - in case if the indication is
 560:.\Generated_Source\PSoC4/BLE_hts.c **** *                                successfully delivered to the peer device.
 561:.\Generated_Source\PSoC4/BLE_hts.c **** *
 562:.\Generated_Source\PSoC4/BLE_hts.c **** ******************************************************************************/
 563:.\Generated_Source\PSoC4/BLE_hts.c **** CYBLE_API_RESULT_T CyBle_HtssSendIndication(CYBLE_CONN_HANDLE_T connHandle,
 564:.\Generated_Source\PSoC4/BLE_hts.c ****     CYBLE_HTS_CHAR_INDEX_T charIndex, uint8 attrSize, uint8 *attrValue)
 565:.\Generated_Source\PSoC4/BLE_hts.c **** {
 1172              		.loc 1 565 0
 1173              		.cfi_startproc
 1174 0000 90B5     		push	{r4, r7, lr}
 1175              		.cfi_def_cfa_offset 12
 1176              		.cfi_offset 4, -12
 1177              		.cfi_offset 7, -8
 1178              		.cfi_offset 14, -4
 1179 0002 89B0     		sub	sp, sp, #36
 1180              		.cfi_def_cfa_offset 48
 1181 0004 00AF     		add	r7, sp, #0
 1182              		.cfi_def_cfa_register 7
 1183 0006 0C24     		mov	r4, #12
 1184 0008 3C19     		add	r4, r7, r4
 1185 000a 2080     		strh	r0, [r4]
 1186 000c 081C     		mov	r0, r1
 1187 000e 111C     		mov	r1, r2
 1188 0010 7B60     		str	r3, [r7, #4]
 1189 0012 0B23     		mov	r3, #11
 1190 0014 FB18     		add	r3, r7, r3
 1191 0016 021C     		add	r2, r0, #0
 1192 0018 1A70     		strb	r2, [r3]
 1193 001a 0A23     		mov	r3, #10
 1194 001c FB18     		add	r3, r7, r3
ARM GAS  C:\Users\Henny\AppData\Local\Temp\ccRrnRtI.s 			page 32


 1195 001e 0A1C     		add	r2, r1, #0
 1196 0020 1A70     		strb	r2, [r3]
 566:.\Generated_Source\PSoC4/BLE_hts.c ****     CYBLE_API_RESULT_T apiResult;
 567:.\Generated_Source\PSoC4/BLE_hts.c ****     
 568:.\Generated_Source\PSoC4/BLE_hts.c ****     /* Send Notification if it is enabled and connected */
 569:.\Generated_Source\PSoC4/BLE_hts.c ****     if(CYBLE_STATE_CONNECTED != CyBle_GetState())
 1197              		.loc 1 569 0
 1198 0022 314B     		ldr	r3, .L68
 1199 0024 1B78     		ldrb	r3, [r3]
 1200 0026 022B     		cmp	r3, #2
 1201 0028 05D0     		beq	.L63
 570:.\Generated_Source\PSoC4/BLE_hts.c ****     {
 571:.\Generated_Source\PSoC4/BLE_hts.c ****         apiResult = CYBLE_ERROR_INVALID_STATE;
 1202              		.loc 1 571 0
 1203 002a 1E23     		mov	r3, #30
 1204 002c FB18     		add	r3, r7, r3
 1205 002e 0422     		mov	r2, #4
 1206 0030 FF32     		add	r2, r2, #255
 1207 0032 1A80     		strh	r2, [r3]
 1208 0034 51E0     		b	.L64
 1209              	.L63:
 572:.\Generated_Source\PSoC4/BLE_hts.c ****     }
 573:.\Generated_Source\PSoC4/BLE_hts.c ****     else if(!CYBLE_IS_INDICATION_ENABLED(cyBle_htss.charInfo[charIndex].descrHandle[CYBLE_HTS_CCCD]
 1210              		.loc 1 573 0
 1211 0036 0B23     		mov	r3, #11
 1212 0038 FB18     		add	r3, r7, r3
 1213 003a 1A78     		ldrb	r2, [r3]
 1214 003c 2B49     		ldr	r1, .L68+4
 1215 003e 131C     		mov	r3, r2
 1216 0040 5B00     		lsl	r3, r3, #1
 1217 0042 9B18     		add	r3, r3, r2
 1218 0044 5B00     		lsl	r3, r3, #1
 1219 0046 CB18     		add	r3, r1, r3
 1220 0048 9B88     		ldrh	r3, [r3, #4]
 1221 004a 5A1E     		sub	r2, r3, #1
 1222 004c 2849     		ldr	r1, .L68+8
 1223 004e 131C     		mov	r3, r2
 1224 0050 9B00     		lsl	r3, r3, #2
 1225 0052 9B18     		add	r3, r3, r2
 1226 0054 9B00     		lsl	r3, r3, #2
 1227 0056 CB18     		add	r3, r1, r3
 1228 0058 0833     		add	r3, r3, #8
 1229 005a 9B68     		ldr	r3, [r3, #8]
 1230 005c 5B68     		ldr	r3, [r3, #4]
 1231 005e 181C     		mov	r0, r3
 1232 0060 FFF7FEFF 		bl	CyBle_Get16ByPtr
 1233 0064 031C     		mov	r3, r0
 1234 0066 1A1C     		mov	r2, r3
 1235 0068 0223     		mov	r3, #2
 1236 006a 1340     		and	r3, r2
 1237 006c 9BB2     		uxth	r3, r3
 1238 006e 002B     		cmp	r3, #0
 1239 0070 05D1     		bne	.L65
 574:.\Generated_Source\PSoC4/BLE_hts.c ****     {
 575:.\Generated_Source\PSoC4/BLE_hts.c ****         apiResult = CYBLE_ERROR_IND_DISABLED;
 1240              		.loc 1 575 0
 1241 0072 1E23     		mov	r3, #30
ARM GAS  C:\Users\Henny\AppData\Local\Temp\ccRrnRtI.s 			page 33


 1242 0074 FB18     		add	r3, r7, r3
 1243 0076 0222     		mov	r2, #2
 1244 0078 FF32     		add	r2, r2, #255
 1245 007a 1A80     		strh	r2, [r3]
 1246 007c 2DE0     		b	.L64
 1247              	.L65:
 1248              	.LBB5:
 576:.\Generated_Source\PSoC4/BLE_hts.c ****     }
 577:.\Generated_Source\PSoC4/BLE_hts.c ****     else
 578:.\Generated_Source\PSoC4/BLE_hts.c ****     {
 579:.\Generated_Source\PSoC4/BLE_hts.c ****         CYBLE_GATTS_HANDLE_VALUE_NTF_T ntfReqParam;
 580:.\Generated_Source\PSoC4/BLE_hts.c ****         
 581:.\Generated_Source\PSoC4/BLE_hts.c ****         /* Fill all fields of write request structure ... */
 582:.\Generated_Source\PSoC4/BLE_hts.c ****         ntfReqParam.attrHandle = cyBle_htss.charInfo[charIndex].charHandle;
 1249              		.loc 1 582 0
 1250 007e 0B23     		mov	r3, #11
 1251 0080 FB18     		add	r3, r7, r3
 1252 0082 1A78     		ldrb	r2, [r3]
 1253 0084 1949     		ldr	r1, .L68+4
 1254 0086 131C     		mov	r3, r2
 1255 0088 5B00     		lsl	r3, r3, #1
 1256 008a 9B18     		add	r3, r3, r2
 1257 008c 5B00     		lsl	r3, r3, #1
 1258 008e CB18     		add	r3, r1, r3
 1259 0090 5A88     		ldrh	r2, [r3, #2]
 1260 0092 1023     		mov	r3, #16
 1261 0094 FB18     		add	r3, r7, r3
 1262 0096 1A81     		strh	r2, [r3, #8]
 583:.\Generated_Source\PSoC4/BLE_hts.c ****         ntfReqParam.value.val = attrValue;
 1263              		.loc 1 583 0
 1264 0098 1023     		mov	r3, #16
 1265 009a FB18     		add	r3, r7, r3
 1266 009c 7A68     		ldr	r2, [r7, #4]
 1267 009e 1A60     		str	r2, [r3]
 584:.\Generated_Source\PSoC4/BLE_hts.c ****         ntfReqParam.value.len = attrSize;
 1268              		.loc 1 584 0
 1269 00a0 0A23     		mov	r3, #10
 1270 00a2 FB18     		add	r3, r7, r3
 1271 00a4 1B78     		ldrb	r3, [r3]
 1272 00a6 9AB2     		uxth	r2, r3
 1273 00a8 1023     		mov	r3, #16
 1274 00aa FB18     		add	r3, r7, r3
 1275 00ac 9A80     		strh	r2, [r3, #4]
 585:.\Generated_Source\PSoC4/BLE_hts.c ****         
 586:.\Generated_Source\PSoC4/BLE_hts.c ****         /* Send indication to client using previously filled structure */
 587:.\Generated_Source\PSoC4/BLE_hts.c ****         apiResult = CyBle_GattsIndication(connHandle, &ntfReqParam);
 1276              		.loc 1 587 0
 1277 00ae 1E23     		mov	r3, #30
 1278 00b0 FC18     		add	r4, r7, r3
 1279 00b2 0C23     		mov	r3, #12
 1280 00b4 FB18     		add	r3, r7, r3
 1281 00b6 1022     		mov	r2, #16
 1282 00b8 BA18     		add	r2, r7, r2
 1283 00ba 1868     		ldr	r0, [r3]
 1284 00bc 111C     		mov	r1, r2
 1285 00be FFF7FEFF 		bl	CyBle_GattsIndication
 1286 00c2 031C     		mov	r3, r0
ARM GAS  C:\Users\Henny\AppData\Local\Temp\ccRrnRtI.s 			page 34


 1287 00c4 2380     		strh	r3, [r4]
 588:.\Generated_Source\PSoC4/BLE_hts.c ****         /* Save handle to support service specific value confirmation response from client */
 589:.\Generated_Source\PSoC4/BLE_hts.c ****         if(apiResult == CYBLE_ERROR_OK)
 1288              		.loc 1 589 0
 1289 00c6 1E23     		mov	r3, #30
 1290 00c8 FB18     		add	r3, r7, r3
 1291 00ca 1B88     		ldrh	r3, [r3]
 1292 00cc 002B     		cmp	r3, #0
 1293 00ce 04D1     		bne	.L64
 590:.\Generated_Source\PSoC4/BLE_hts.c ****         {
 591:.\Generated_Source\PSoC4/BLE_hts.c ****             cyBle_htssReqHandle = ntfReqParam.attrHandle;
 1294              		.loc 1 591 0
 1295 00d0 1023     		mov	r3, #16
 1296 00d2 FB18     		add	r3, r7, r3
 1297 00d4 1A89     		ldrh	r2, [r3, #8]
 1298 00d6 074B     		ldr	r3, .L68+12
 1299 00d8 1A80     		strh	r2, [r3]
 1300              	.L64:
 1301              	.LBE5:
 592:.\Generated_Source\PSoC4/BLE_hts.c ****         }
 593:.\Generated_Source\PSoC4/BLE_hts.c ****     }
 594:.\Generated_Source\PSoC4/BLE_hts.c ****     return (apiResult);
 1302              		.loc 1 594 0
 1303 00da 1E23     		mov	r3, #30
 1304 00dc FB18     		add	r3, r7, r3
 1305 00de 1B88     		ldrh	r3, [r3]
 595:.\Generated_Source\PSoC4/BLE_hts.c **** }
 1306              		.loc 1 595 0
 1307 00e0 181C     		mov	r0, r3
 1308 00e2 BD46     		mov	sp, r7
 1309 00e4 09B0     		add	sp, sp, #36
 1310              		@ sp needed
 1311 00e6 90BD     		pop	{r4, r7, pc}
 1312              	.L69:
 1313              		.align	2
 1314              	.L68:
 1315 00e8 00000000 		.word	cyBle_state
 1316 00ec 00000000 		.word	cyBle_htss
 1317 00f0 00000000 		.word	cyBle_gattDB
 1318 00f4 04000000 		.word	cyBle_htssReqHandle
 1319              		.cfi_endproc
 1320              	.LFE10:
 1321              		.size	CyBle_HtssSendIndication, .-CyBle_HtssSendIndication
 1322              		.section	.text.CyBle_HtssConfirmationEventHandler,"ax",%progbits
 1323              		.align	2
 1324              		.global	CyBle_HtssConfirmationEventHandler
 1325              		.code	16
 1326              		.thumb_func
 1327              		.type	CyBle_HtssConfirmationEventHandler, %function
 1328              	CyBle_HtssConfirmationEventHandler:
 1329              	.LFB11:
 596:.\Generated_Source\PSoC4/BLE_hts.c **** 
 597:.\Generated_Source\PSoC4/BLE_hts.c **** 
 598:.\Generated_Source\PSoC4/BLE_hts.c **** /******************************************************************************
 599:.\Generated_Source\PSoC4/BLE_hts.c **** * Function Name: CyBle_HtssConfirmationEventHandler
 600:.\Generated_Source\PSoC4/BLE_hts.c **** ***************************************************************************//**
 601:.\Generated_Source\PSoC4/BLE_hts.c **** * 
ARM GAS  C:\Users\Henny\AppData\Local\Temp\ccRrnRtI.s 			page 35


 602:.\Generated_Source\PSoC4/BLE_hts.c **** *  Handles a Value Confirmation request event from the BLE stack.
 603:.\Generated_Source\PSoC4/BLE_hts.c **** * 
 604:.\Generated_Source\PSoC4/BLE_hts.c **** *  *eventParam - The pointer to a structure of type CYBLE_CONN_HANDLE_T.
 605:.\Generated_Source\PSoC4/BLE_hts.c **** * 
 606:.\Generated_Source\PSoC4/BLE_hts.c **** * \return
 607:.\Generated_Source\PSoC4/BLE_hts.c **** *  None
 608:.\Generated_Source\PSoC4/BLE_hts.c **** * 
 609:.\Generated_Source\PSoC4/BLE_hts.c **** ******************************************************************************/
 610:.\Generated_Source\PSoC4/BLE_hts.c **** void CyBle_HtssConfirmationEventHandler(const CYBLE_CONN_HANDLE_T *eventParam)
 611:.\Generated_Source\PSoC4/BLE_hts.c **** {
 1330              		.loc 1 611 0
 1331              		.cfi_startproc
 1332 0000 80B5     		push	{r7, lr}
 1333              		.cfi_def_cfa_offset 8
 1334              		.cfi_offset 7, -8
 1335              		.cfi_offset 14, -4
 1336 0002 86B0     		sub	sp, sp, #24
 1337              		.cfi_def_cfa_offset 32
 1338 0004 00AF     		add	r7, sp, #0
 1339              		.cfi_def_cfa_register 7
 1340 0006 7860     		str	r0, [r7, #4]
 612:.\Generated_Source\PSoC4/BLE_hts.c ****     CYBLE_HTS_CHAR_INDEX_T locCharIndex;
 613:.\Generated_Source\PSoC4/BLE_hts.c ****     CYBLE_HTS_CHAR_VALUE_T locCharValue;
 614:.\Generated_Source\PSoC4/BLE_hts.c ****     uint8 locReqHandle = 0u;
 1341              		.loc 1 614 0
 1342 0008 1623     		mov	r3, #22
 1343 000a FB18     		add	r3, r7, r3
 1344 000c 0022     		mov	r2, #0
 1345 000e 1A70     		strb	r2, [r3]
 615:.\Generated_Source\PSoC4/BLE_hts.c **** 
 616:.\Generated_Source\PSoC4/BLE_hts.c ****     if((NULL != CyBle_HtsApplCallback) && (CYBLE_GATT_INVALID_ATTR_HANDLE_VALUE != cyBle_htssReqHan
 1346              		.loc 1 616 0
 1347 0010 2D4B     		ldr	r3, .L75
 1348 0012 1B68     		ldr	r3, [r3]
 1349 0014 002B     		cmp	r3, #0
 1350 0016 54D0     		beq	.L70
 1351              		.loc 1 616 0 is_stmt 0 discriminator 1
 1352 0018 2C4B     		ldr	r3, .L75+4
 1353 001a 1B88     		ldrh	r3, [r3]
 1354 001c 002B     		cmp	r3, #0
 1355 001e 50D0     		beq	.L70
 617:.\Generated_Source\PSoC4/BLE_hts.c ****     {
 618:.\Generated_Source\PSoC4/BLE_hts.c ****         for(locCharIndex = CYBLE_HTS_TEMP_MEASURE; (locCharIndex < CYBLE_HTS_CHAR_COUNT) && (locReq
 1356              		.loc 1 618 0 is_stmt 1
 1357 0020 1723     		mov	r3, #23
 1358 0022 FB18     		add	r3, r7, r3
 1359 0024 0022     		mov	r2, #0
 1360 0026 1A70     		strb	r2, [r3]
 1361 0028 41E0     		b	.L72
 1362              	.L74:
 619:.\Generated_Source\PSoC4/BLE_hts.c ****             locCharIndex++)
 620:.\Generated_Source\PSoC4/BLE_hts.c ****         {
 621:.\Generated_Source\PSoC4/BLE_hts.c ****             if(cyBle_htssReqHandle == cyBle_htss.charInfo[locCharIndex].charHandle)
 1363              		.loc 1 621 0
 1364 002a 1723     		mov	r3, #23
 1365 002c FB18     		add	r3, r7, r3
 1366 002e 1A78     		ldrb	r2, [r3]
ARM GAS  C:\Users\Henny\AppData\Local\Temp\ccRrnRtI.s 			page 36


 1367 0030 2749     		ldr	r1, .L75+8
 1368 0032 131C     		mov	r3, r2
 1369 0034 5B00     		lsl	r3, r3, #1
 1370 0036 9B18     		add	r3, r3, r2
 1371 0038 5B00     		lsl	r3, r3, #1
 1372 003a CB18     		add	r3, r1, r3
 1373 003c 5A88     		ldrh	r2, [r3, #2]
 1374 003e 234B     		ldr	r3, .L75+4
 1375 0040 1B88     		ldrh	r3, [r3]
 1376 0042 9A42     		cmp	r2, r3
 1377 0044 2CD1     		bne	.L73
 622:.\Generated_Source\PSoC4/BLE_hts.c ****             {
 623:.\Generated_Source\PSoC4/BLE_hts.c ****                 locCharValue.connHandle = *eventParam;
 1378              		.loc 1 623 0
 1379 0046 0C23     		mov	r3, #12
 1380 0048 FA18     		add	r2, r7, r3
 1381 004a 7B68     		ldr	r3, [r7, #4]
 1382 004c 111C     		mov	r1, r2
 1383 004e 1A1C     		mov	r2, r3
 1384 0050 0223     		mov	r3, #2
 1385 0052 081C     		mov	r0, r1
 1386 0054 111C     		mov	r1, r2
 1387 0056 1A1C     		mov	r2, r3
 1388 0058 FFF7FEFF 		bl	memcpy
 624:.\Generated_Source\PSoC4/BLE_hts.c ****                 locCharValue.charIndex = locCharIndex;
 1389              		.loc 1 624 0
 1390 005c 0C23     		mov	r3, #12
 1391 005e FB18     		add	r3, r7, r3
 1392 0060 1722     		mov	r2, #23
 1393 0062 BA18     		add	r2, r7, r2
 1394 0064 1278     		ldrb	r2, [r2]
 1395 0066 9A70     		strb	r2, [r3, #2]
 625:.\Generated_Source\PSoC4/BLE_hts.c ****                 locCharValue.value = NULL;
 1396              		.loc 1 625 0
 1397 0068 0C23     		mov	r3, #12
 1398 006a FB18     		add	r3, r7, r3
 1399 006c 0022     		mov	r2, #0
 1400 006e 5A60     		str	r2, [r3, #4]
 626:.\Generated_Source\PSoC4/BLE_hts.c ****                 cyBle_eventHandlerFlag &= (uint8)~CYBLE_CALLBACK;
 1401              		.loc 1 626 0
 1402 0070 184B     		ldr	r3, .L75+12
 1403 0072 1B78     		ldrb	r3, [r3]
 1404 0074 DBB2     		uxtb	r3, r3
 1405 0076 0122     		mov	r2, #1
 1406 0078 9343     		bic	r3, r2
 1407 007a DAB2     		uxtb	r2, r3
 1408 007c 154B     		ldr	r3, .L75+12
 1409 007e 1A70     		strb	r2, [r3]
 627:.\Generated_Source\PSoC4/BLE_hts.c ****                 cyBle_htssReqHandle = CYBLE_GATT_INVALID_ATTR_HANDLE_VALUE;
 1410              		.loc 1 627 0
 1411 0080 124B     		ldr	r3, .L75+4
 1412 0082 0022     		mov	r2, #0
 1413 0084 1A80     		strh	r2, [r3]
 628:.\Generated_Source\PSoC4/BLE_hts.c ****                 CyBle_HtsApplCallback((uint32)CYBLE_EVT_HTSS_INDICATION_CONFIRMED, &locCharValue);
 1414              		.loc 1 628 0
 1415 0086 104B     		ldr	r3, .L75
 1416 0088 1B68     		ldr	r3, [r3]
ARM GAS  C:\Users\Henny\AppData\Local\Temp\ccRrnRtI.s 			page 37


 1417 008a D022     		mov	r2, #208
 1418 008c 5100     		lsl	r1, r2, #1
 1419 008e 0C22     		mov	r2, #12
 1420 0090 BA18     		add	r2, r7, r2
 1421 0092 081C     		mov	r0, r1
 1422 0094 111C     		mov	r1, r2
 1423 0096 9847     		blx	r3
 629:.\Generated_Source\PSoC4/BLE_hts.c ****                 locReqHandle = 1u;
 1424              		.loc 1 629 0
 1425 0098 1623     		mov	r3, #22
 1426 009a FB18     		add	r3, r7, r3
 1427 009c 0122     		mov	r2, #1
 1428 009e 1A70     		strb	r2, [r3]
 1429              	.L73:
 619:.\Generated_Source\PSoC4/BLE_hts.c ****         {
 1430              		.loc 1 619 0
 1431 00a0 1723     		mov	r3, #23
 1432 00a2 FB18     		add	r3, r7, r3
 1433 00a4 1A78     		ldrb	r2, [r3]
 1434 00a6 1723     		mov	r3, #23
 1435 00a8 FB18     		add	r3, r7, r3
 1436 00aa 0132     		add	r2, r2, #1
 1437 00ac 1A70     		strb	r2, [r3]
 1438              	.L72:
 618:.\Generated_Source\PSoC4/BLE_hts.c ****             locCharIndex++)
 1439              		.loc 1 618 0 discriminator 1
 1440 00ae 1723     		mov	r3, #23
 1441 00b0 FB18     		add	r3, r7, r3
 1442 00b2 1B78     		ldrb	r3, [r3]
 1443 00b4 032B     		cmp	r3, #3
 1444 00b6 04D8     		bhi	.L70
 618:.\Generated_Source\PSoC4/BLE_hts.c ****             locCharIndex++)
 1445              		.loc 1 618 0 is_stmt 0 discriminator 2
 1446 00b8 1623     		mov	r3, #22
 1447 00ba FB18     		add	r3, r7, r3
 1448 00bc 1B78     		ldrb	r3, [r3]
 1449 00be 002B     		cmp	r3, #0
 1450 00c0 B3D0     		beq	.L74
 1451              	.L70:
 630:.\Generated_Source\PSoC4/BLE_hts.c ****             }
 631:.\Generated_Source\PSoC4/BLE_hts.c ****         }
 632:.\Generated_Source\PSoC4/BLE_hts.c ****     }
 633:.\Generated_Source\PSoC4/BLE_hts.c **** }
 1452              		.loc 1 633 0 is_stmt 1
 1453 00c2 BD46     		mov	sp, r7
 1454 00c4 06B0     		add	sp, sp, #24
 1455              		@ sp needed
 1456 00c6 80BD     		pop	{r7, pc}
 1457              	.L76:
 1458              		.align	2
 1459              	.L75:
 1460 00c8 00000000 		.word	CyBle_HtsApplCallback
 1461 00cc 04000000 		.word	cyBle_htssReqHandle
 1462 00d0 00000000 		.word	cyBle_htss
 1463 00d4 00000000 		.word	cyBle_eventHandlerFlag
 1464              		.cfi_endproc
 1465              	.LFE11:
ARM GAS  C:\Users\Henny\AppData\Local\Temp\ccRrnRtI.s 			page 38


 1466              		.size	CyBle_HtssConfirmationEventHandler, .-CyBle_HtssConfirmationEventHandler
 1467              		.text
 1468              	.Letext0:
 1469              		.file 2 ".\\Generated_Source\\PSoC4\\cytypes.h"
 1470              		.file 3 ".\\Generated_Source\\PSoC4\\BLE_Stack.h"
 1471              		.file 4 ".\\Generated_Source\\PSoC4\\BLE_StackGatt.h"
 1472              		.file 5 ".\\Generated_Source\\PSoC4\\BLE_StackGattServer.h"
 1473              		.file 6 ".\\Generated_Source\\PSoC4\\BLE_StackGattDb.h"
 1474              		.file 7 ".\\Generated_Source\\PSoC4\\BLE.h"
 1475              		.file 8 ".\\Generated_Source\\PSoC4\\BLE_dis.h"
 1476              		.file 9 ".\\Generated_Source\\PSoC4\\BLE_hts.h"
 1477              		.file 10 ".\\Generated_Source\\PSoC4\\BLE_eventHandler.h"
 1478              		.file 11 ".\\Generated_Source\\PSoC4\\BLE_gatt.h"
 1479              		.section	.debug_info,"",%progbits
 1480              	.Ldebug_info0:
 1481 0000 CC120000 		.4byte	0x12cc
 1482 0004 0400     		.2byte	0x4
 1483 0006 00000000 		.4byte	.Ldebug_abbrev0
 1484 000a 04       		.byte	0x4
 1485 000b 01       		.uleb128 0x1
 1486 000c ED290000 		.4byte	.LASF486
 1487 0010 01       		.byte	0x1
 1488 0011 5D150000 		.4byte	.LASF487
 1489 0015 3F320000 		.4byte	.LASF488
 1490 0019 00000000 		.4byte	.Ldebug_ranges0+0
 1491 001d 00000000 		.4byte	0
 1492 0021 00000000 		.4byte	.Ldebug_line0
 1493 0025 02       		.uleb128 0x2
 1494 0026 01       		.byte	0x1
 1495 0027 06       		.byte	0x6
 1496 0028 CB0B0000 		.4byte	.LASF0
 1497 002c 02       		.uleb128 0x2
 1498 002d 01       		.byte	0x1
 1499 002e 08       		.byte	0x8
 1500 002f D40C0000 		.4byte	.LASF1
 1501 0033 02       		.uleb128 0x2
 1502 0034 02       		.byte	0x2
 1503 0035 05       		.byte	0x5
 1504 0036 CF2E0000 		.4byte	.LASF2
 1505 003a 02       		.uleb128 0x2
 1506 003b 02       		.byte	0x2
 1507 003c 07       		.byte	0x7
 1508 003d A2350000 		.4byte	.LASF3
 1509 0041 02       		.uleb128 0x2
 1510 0042 04       		.byte	0x4
 1511 0043 05       		.byte	0x5
 1512 0044 1A090000 		.4byte	.LASF4
 1513 0048 02       		.uleb128 0x2
 1514 0049 04       		.byte	0x4
 1515 004a 07       		.byte	0x7
 1516 004b F5170000 		.4byte	.LASF5
 1517 004f 02       		.uleb128 0x2
 1518 0050 08       		.byte	0x8
 1519 0051 05       		.byte	0x5
 1520 0052 B31B0000 		.4byte	.LASF6
 1521 0056 02       		.uleb128 0x2
 1522 0057 08       		.byte	0x8
ARM GAS  C:\Users\Henny\AppData\Local\Temp\ccRrnRtI.s 			page 39


 1523 0058 07       		.byte	0x7
 1524 0059 C8270000 		.4byte	.LASF7
 1525 005d 03       		.uleb128 0x3
 1526 005e 04       		.byte	0x4
 1527 005f 05       		.byte	0x5
 1528 0060 696E7400 		.ascii	"int\000"
 1529 0064 02       		.uleb128 0x2
 1530 0065 04       		.byte	0x4
 1531 0066 07       		.byte	0x7
 1532 0067 A8200000 		.4byte	.LASF8
 1533 006b 04       		.uleb128 0x4
 1534 006c 822E0000 		.4byte	.LASF9
 1535 0070 02       		.byte	0x2
 1536 0071 3801     		.2byte	0x138
 1537 0073 2C000000 		.4byte	0x2c
 1538 0077 04       		.uleb128 0x4
 1539 0078 45380000 		.4byte	.LASF10
 1540 007c 02       		.byte	0x2
 1541 007d 3901     		.2byte	0x139
 1542 007f 3A000000 		.4byte	0x3a
 1543 0083 04       		.uleb128 0x4
 1544 0084 D0020000 		.4byte	.LASF11
 1545 0088 02       		.byte	0x2
 1546 0089 3A01     		.2byte	0x13a
 1547 008b 48000000 		.4byte	0x48
 1548 008f 02       		.uleb128 0x2
 1549 0090 04       		.byte	0x4
 1550 0091 04       		.byte	0x4
 1551 0092 CF1E0000 		.4byte	.LASF12
 1552 0096 02       		.uleb128 0x2
 1553 0097 08       		.byte	0x8
 1554 0098 04       		.byte	0x4
 1555 0099 D21C0000 		.4byte	.LASF13
 1556 009d 02       		.uleb128 0x2
 1557 009e 01       		.byte	0x1
 1558 009f 08       		.byte	0x8
 1559 00a0 C00E0000 		.4byte	.LASF14
 1560 00a4 05       		.uleb128 0x5
 1561 00a5 6B000000 		.4byte	0x6b
 1562 00a9 02       		.uleb128 0x2
 1563 00aa 04       		.byte	0x4
 1564 00ab 07       		.byte	0x7
 1565 00ac 77000000 		.4byte	.LASF15
 1566 00b0 06       		.uleb128 0x6
 1567 00b1 04       		.byte	0x4
 1568 00b2 07       		.uleb128 0x7
 1569 00b3 01       		.byte	0x1
 1570 00b4 03       		.byte	0x3
 1571 00b5 A4       		.byte	0xa4
 1572 00b6 37020000 		.4byte	0x237
 1573 00ba 08       		.uleb128 0x8
 1574 00bb 430F0000 		.4byte	.LASF16
 1575 00bf 00       		.sleb128 0
 1576 00c0 08       		.uleb128 0x8
 1577 00c1 DD090000 		.4byte	.LASF17
 1578 00c5 01       		.sleb128 1
 1579 00c6 08       		.uleb128 0x8
ARM GAS  C:\Users\Henny\AppData\Local\Temp\ccRrnRtI.s 			page 40


 1580 00c7 FD270000 		.4byte	.LASF18
 1581 00cb 02       		.sleb128 2
 1582 00cc 08       		.uleb128 0x8
 1583 00cd 410C0000 		.4byte	.LASF19
 1584 00d1 03       		.sleb128 3
 1585 00d2 08       		.uleb128 0x8
 1586 00d3 BD360000 		.4byte	.LASF20
 1587 00d7 04       		.sleb128 4
 1588 00d8 08       		.uleb128 0x8
 1589 00d9 3F340000 		.4byte	.LASF21
 1590 00dd 05       		.sleb128 5
 1591 00de 08       		.uleb128 0x8
 1592 00df D0300000 		.4byte	.LASF22
 1593 00e3 20       		.sleb128 32
 1594 00e4 08       		.uleb128 0x8
 1595 00e5 E7060000 		.4byte	.LASF23
 1596 00e9 21       		.sleb128 33
 1597 00ea 08       		.uleb128 0x8
 1598 00eb 0B1B0000 		.4byte	.LASF24
 1599 00ef 22       		.sleb128 34
 1600 00f0 08       		.uleb128 0x8
 1601 00f1 6F230000 		.4byte	.LASF25
 1602 00f5 23       		.sleb128 35
 1603 00f6 08       		.uleb128 0x8
 1604 00f7 9F160000 		.4byte	.LASF26
 1605 00fb 24       		.sleb128 36
 1606 00fc 08       		.uleb128 0x8
 1607 00fd 02170000 		.4byte	.LASF27
 1608 0101 25       		.sleb128 37
 1609 0102 08       		.uleb128 0x8
 1610 0103 B82D0000 		.4byte	.LASF28
 1611 0107 26       		.sleb128 38
 1612 0108 08       		.uleb128 0x8
 1613 0109 44020000 		.4byte	.LASF29
 1614 010d 27       		.sleb128 39
 1615 010e 08       		.uleb128 0x8
 1616 010f BE370000 		.4byte	.LASF30
 1617 0113 28       		.sleb128 40
 1618 0114 08       		.uleb128 0x8
 1619 0115 04260000 		.4byte	.LASF31
 1620 0119 29       		.sleb128 41
 1621 011a 08       		.uleb128 0x8
 1622 011b 0C1A0000 		.4byte	.LASF32
 1623 011f 2A       		.sleb128 42
 1624 0120 08       		.uleb128 0x8
 1625 0121 D4220000 		.4byte	.LASF33
 1626 0125 2B       		.sleb128 43
 1627 0126 08       		.uleb128 0x8
 1628 0127 7F340000 		.4byte	.LASF34
 1629 012b 2C       		.sleb128 44
 1630 012c 08       		.uleb128 0x8
 1631 012d B12F0000 		.4byte	.LASF35
 1632 0131 C000     		.sleb128 64
 1633 0133 08       		.uleb128 0x8
 1634 0134 A7020000 		.4byte	.LASF36
 1635 0138 C100     		.sleb128 65
 1636 013a 08       		.uleb128 0x8
ARM GAS  C:\Users\Henny\AppData\Local\Temp\ccRrnRtI.s 			page 41


 1637 013b D2360000 		.4byte	.LASF37
 1638 013f C200     		.sleb128 66
 1639 0141 08       		.uleb128 0x8
 1640 0142 7B260000 		.4byte	.LASF38
 1641 0146 C300     		.sleb128 67
 1642 0148 08       		.uleb128 0x8
 1643 0149 E20C0000 		.4byte	.LASF39
 1644 014d C400     		.sleb128 68
 1645 014f 08       		.uleb128 0x8
 1646 0150 760C0000 		.4byte	.LASF40
 1647 0154 C500     		.sleb128 69
 1648 0156 08       		.uleb128 0x8
 1649 0157 8E2B0000 		.4byte	.LASF41
 1650 015b C600     		.sleb128 70
 1651 015d 08       		.uleb128 0x8
 1652 015e 702B0000 		.4byte	.LASF42
 1653 0162 C700     		.sleb128 71
 1654 0164 08       		.uleb128 0x8
 1655 0165 4F0E0000 		.4byte	.LASF43
 1656 0169 C800     		.sleb128 72
 1657 016b 08       		.uleb128 0x8
 1658 016c E5230000 		.4byte	.LASF44
 1659 0170 C900     		.sleb128 73
 1660 0172 08       		.uleb128 0x8
 1661 0173 B80F0000 		.4byte	.LASF45
 1662 0177 CA00     		.sleb128 74
 1663 0179 08       		.uleb128 0x8
 1664 017a 240F0000 		.4byte	.LASF46
 1665 017e CB00     		.sleb128 75
 1666 0180 08       		.uleb128 0x8
 1667 0181 17230000 		.4byte	.LASF47
 1668 0185 CC00     		.sleb128 76
 1669 0187 08       		.uleb128 0x8
 1670 0188 0D2D0000 		.4byte	.LASF48
 1671 018c CD00     		.sleb128 77
 1672 018e 08       		.uleb128 0x8
 1673 018f D8080000 		.4byte	.LASF49
 1674 0193 CE00     		.sleb128 78
 1675 0195 08       		.uleb128 0x8
 1676 0196 B5200000 		.4byte	.LASF50
 1677 019a CF00     		.sleb128 79
 1678 019c 08       		.uleb128 0x8
 1679 019d B1300000 		.4byte	.LASF51
 1680 01a1 D000     		.sleb128 80
 1681 01a3 08       		.uleb128 0x8
 1682 01a4 1C100000 		.4byte	.LASF52
 1683 01a8 D100     		.sleb128 81
 1684 01aa 08       		.uleb128 0x8
 1685 01ab C6060000 		.4byte	.LASF53
 1686 01af D200     		.sleb128 82
 1687 01b1 08       		.uleb128 0x8
 1688 01b2 BF330000 		.4byte	.LASF54
 1689 01b6 D300     		.sleb128 83
 1690 01b8 08       		.uleb128 0x8
 1691 01b9 00380000 		.4byte	.LASF55
 1692 01bd D400     		.sleb128 84
 1693 01bf 08       		.uleb128 0x8
ARM GAS  C:\Users\Henny\AppData\Local\Temp\ccRrnRtI.s 			page 42


 1694 01c0 80050000 		.4byte	.LASF56
 1695 01c4 D500     		.sleb128 85
 1696 01c6 08       		.uleb128 0x8
 1697 01c7 15110000 		.4byte	.LASF57
 1698 01cb D600     		.sleb128 86
 1699 01cd 08       		.uleb128 0x8
 1700 01ce 7B1F0000 		.4byte	.LASF58
 1701 01d2 D700     		.sleb128 87
 1702 01d4 08       		.uleb128 0x8
 1703 01d5 D4340000 		.4byte	.LASF59
 1704 01d9 F000     		.sleb128 112
 1705 01db 08       		.uleb128 0x8
 1706 01dc 37150000 		.4byte	.LASF60
 1707 01e0 F100     		.sleb128 113
 1708 01e2 08       		.uleb128 0x8
 1709 01e3 4A0B0000 		.4byte	.LASF61
 1710 01e7 F200     		.sleb128 114
 1711 01e9 08       		.uleb128 0x8
 1712 01ea 93300000 		.4byte	.LASF62
 1713 01ee F300     		.sleb128 115
 1714 01f0 08       		.uleb128 0x8
 1715 01f1 58240000 		.4byte	.LASF63
 1716 01f5 F400     		.sleb128 116
 1717 01f7 08       		.uleb128 0x8
 1718 01f8 AC1A0000 		.4byte	.LASF64
 1719 01fc F500     		.sleb128 117
 1720 01fe 08       		.uleb128 0x8
 1721 01ff 2E0E0000 		.4byte	.LASF65
 1722 0203 F600     		.sleb128 118
 1723 0205 08       		.uleb128 0x8
 1724 0206 83280000 		.4byte	.LASF66
 1725 020a F700     		.sleb128 119
 1726 020c 08       		.uleb128 0x8
 1727 020d A4050000 		.4byte	.LASF67
 1728 0211 F800     		.sleb128 120
 1729 0213 08       		.uleb128 0x8
 1730 0214 C10D0000 		.4byte	.LASF68
 1731 0218 F900     		.sleb128 121
 1732 021a 08       		.uleb128 0x8
 1733 021b 16370000 		.4byte	.LASF69
 1734 021f FA00     		.sleb128 122
 1735 0221 08       		.uleb128 0x8
 1736 0222 1E1D0000 		.4byte	.LASF70
 1737 0226 FA01     		.sleb128 250
 1738 0228 08       		.uleb128 0x8
 1739 0229 07330000 		.4byte	.LASF71
 1740 022d FB01     		.sleb128 251
 1741 022f 08       		.uleb128 0x8
 1742 0230 C6220000 		.4byte	.LASF72
 1743 0234 FF01     		.sleb128 255
 1744 0236 00       		.byte	0
 1745 0237 09       		.uleb128 0x9
 1746 0238 02       		.byte	0x2
 1747 0239 03       		.byte	0x3
 1748 023a 0C02     		.2byte	0x20c
 1749 023c EE020000 		.4byte	0x2ee
 1750 0240 08       		.uleb128 0x8
ARM GAS  C:\Users\Henny\AppData\Local\Temp\ccRrnRtI.s 			page 43


 1751 0241 5A0C0000 		.4byte	.LASF73
 1752 0245 00       		.sleb128 0
 1753 0246 08       		.uleb128 0x8
 1754 0247 5D120000 		.4byte	.LASF74
 1755 024b 01       		.sleb128 1
 1756 024c 08       		.uleb128 0x8
 1757 024d 9F360000 		.4byte	.LASF75
 1758 0251 02       		.sleb128 2
 1759 0252 08       		.uleb128 0x8
 1760 0253 CF130000 		.4byte	.LASF76
 1761 0257 03       		.sleb128 3
 1762 0258 08       		.uleb128 0x8
 1763 0259 63170000 		.4byte	.LASF77
 1764 025d 04       		.sleb128 4
 1765 025e 08       		.uleb128 0x8
 1766 025f 861C0000 		.4byte	.LASF78
 1767 0263 05       		.sleb128 5
 1768 0264 08       		.uleb128 0x8
 1769 0265 A6320000 		.4byte	.LASF79
 1770 0269 06       		.sleb128 6
 1771 026a 08       		.uleb128 0x8
 1772 026b 9B0F0000 		.4byte	.LASF80
 1773 026f 07       		.sleb128 7
 1774 0270 08       		.uleb128 0x8
 1775 0271 561E0000 		.4byte	.LASF81
 1776 0275 08       		.sleb128 8
 1777 0276 08       		.uleb128 0x8
 1778 0277 56310000 		.4byte	.LASF82
 1779 027b 09       		.sleb128 9
 1780 027c 08       		.uleb128 0x8
 1781 027d 70380000 		.4byte	.LASF83
 1782 0281 0A       		.sleb128 10
 1783 0282 08       		.uleb128 0x8
 1784 0283 5D070000 		.4byte	.LASF84
 1785 0287 0B       		.sleb128 11
 1786 0288 08       		.uleb128 0x8
 1787 0289 28340000 		.4byte	.LASF85
 1788 028d 0C       		.sleb128 12
 1789 028e 08       		.uleb128 0x8
 1790 028f 36220000 		.4byte	.LASF86
 1791 0293 0D       		.sleb128 13
 1792 0294 08       		.uleb128 0x8
 1793 0295 BF180000 		.4byte	.LASF87
 1794 0299 0E       		.sleb128 14
 1795 029a 08       		.uleb128 0x8
 1796 029b 611C0000 		.4byte	.LASF88
 1797 029f 0F       		.sleb128 15
 1798 02a0 08       		.uleb128 0x8
 1799 02a1 10050000 		.4byte	.LASF89
 1800 02a5 10       		.sleb128 16
 1801 02a6 08       		.uleb128 0x8
 1802 02a7 251E0000 		.4byte	.LASF90
 1803 02ab 11       		.sleb128 17
 1804 02ac 08       		.uleb128 0x8
 1805 02ad F0090000 		.4byte	.LASF91
 1806 02b1 12       		.sleb128 18
 1807 02b2 08       		.uleb128 0x8
ARM GAS  C:\Users\Henny\AppData\Local\Temp\ccRrnRtI.s 			page 44


 1808 02b3 A30B0000 		.4byte	.LASF92
 1809 02b7 13       		.sleb128 19
 1810 02b8 08       		.uleb128 0x8
 1811 02b9 D91C0000 		.4byte	.LASF93
 1812 02bd 27       		.sleb128 39
 1813 02be 08       		.uleb128 0x8
 1814 02bf 301F0000 		.4byte	.LASF94
 1815 02c3 28       		.sleb128 40
 1816 02c4 08       		.uleb128 0x8
 1817 02c5 3E050000 		.4byte	.LASF95
 1818 02c9 29       		.sleb128 41
 1819 02ca 08       		.uleb128 0x8
 1820 02cb 04150000 		.4byte	.LASF96
 1821 02cf FF01     		.sleb128 255
 1822 02d1 08       		.uleb128 0x8
 1823 02d2 AE230000 		.4byte	.LASF97
 1824 02d6 8002     		.sleb128 256
 1825 02d8 08       		.uleb128 0x8
 1826 02d9 95230000 		.4byte	.LASF98
 1827 02dd 8102     		.sleb128 257
 1828 02df 08       		.uleb128 0x8
 1829 02e0 A80A0000 		.4byte	.LASF99
 1830 02e4 8202     		.sleb128 258
 1831 02e6 08       		.uleb128 0x8
 1832 02e7 4D280000 		.4byte	.LASF100
 1833 02eb 8302     		.sleb128 259
 1834 02ed 00       		.byte	0
 1835 02ee 04       		.uleb128 0x4
 1836 02ef 26330000 		.4byte	.LASF101
 1837 02f3 03       		.byte	0x3
 1838 02f4 6902     		.2byte	0x269
 1839 02f6 37020000 		.4byte	0x237
 1840 02fa 0A       		.uleb128 0xa
 1841 02fb 04       		.byte	0x4
 1842 02fc 6B000000 		.4byte	0x6b
 1843 0300 07       		.uleb128 0x7
 1844 0301 01       		.byte	0x1
 1845 0302 04       		.byte	0x4
 1846 0303 AA       		.byte	0xaa
 1847 0304 F3030000 		.4byte	0x3f3
 1848 0308 08       		.uleb128 0x8
 1849 0309 A2280000 		.4byte	.LASF102
 1850 030d 00       		.sleb128 0
 1851 030e 08       		.uleb128 0x8
 1852 030f DF270000 		.4byte	.LASF103
 1853 0313 01       		.sleb128 1
 1854 0314 08       		.uleb128 0x8
 1855 0315 94040000 		.4byte	.LASF104
 1856 0319 02       		.sleb128 2
 1857 031a 08       		.uleb128 0x8
 1858 031b 5B350000 		.4byte	.LASF105
 1859 031f 03       		.sleb128 3
 1860 0320 08       		.uleb128 0x8
 1861 0321 8D0A0000 		.4byte	.LASF106
 1862 0325 04       		.sleb128 4
 1863 0326 08       		.uleb128 0x8
 1864 0327 E1200000 		.4byte	.LASF107
ARM GAS  C:\Users\Henny\AppData\Local\Temp\ccRrnRtI.s 			page 45


 1865 032b 05       		.sleb128 5
 1866 032c 08       		.uleb128 0x8
 1867 032d 752F0000 		.4byte	.LASF108
 1868 0331 06       		.sleb128 6
 1869 0332 08       		.uleb128 0x8
 1870 0333 18240000 		.4byte	.LASF109
 1871 0337 07       		.sleb128 7
 1872 0338 08       		.uleb128 0x8
 1873 0339 0A200000 		.4byte	.LASF110
 1874 033d 08       		.sleb128 8
 1875 033e 08       		.uleb128 0x8
 1876 033f 391C0000 		.4byte	.LASF111
 1877 0343 09       		.sleb128 9
 1878 0344 08       		.uleb128 0x8
 1879 0345 80220000 		.4byte	.LASF112
 1880 0349 0A       		.sleb128 10
 1881 034a 08       		.uleb128 0x8
 1882 034b 95100000 		.4byte	.LASF113
 1883 034f 0B       		.sleb128 11
 1884 0350 08       		.uleb128 0x8
 1885 0351 3C1D0000 		.4byte	.LASF114
 1886 0355 0C       		.sleb128 12
 1887 0356 08       		.uleb128 0x8
 1888 0357 660B0000 		.4byte	.LASF115
 1889 035b 0D       		.sleb128 13
 1890 035c 08       		.uleb128 0x8
 1891 035d 5A0F0000 		.4byte	.LASF116
 1892 0361 0E       		.sleb128 14
 1893 0362 08       		.uleb128 0x8
 1894 0363 B5350000 		.4byte	.LASF117
 1895 0367 0F       		.sleb128 15
 1896 0368 08       		.uleb128 0x8
 1897 0369 EA040000 		.4byte	.LASF118
 1898 036d 10       		.sleb128 16
 1899 036e 08       		.uleb128 0x8
 1900 036f B6040000 		.4byte	.LASF119
 1901 0373 11       		.sleb128 17
 1902 0374 08       		.uleb128 0x8
 1903 0375 3B100000 		.4byte	.LASF120
 1904 0379 8001     		.sleb128 128
 1905 037b 08       		.uleb128 0x8
 1906 037c 4E160000 		.4byte	.LASF121
 1907 0380 8001     		.sleb128 128
 1908 0382 08       		.uleb128 0x8
 1909 0383 212F0000 		.4byte	.LASF122
 1910 0387 8001     		.sleb128 128
 1911 0389 08       		.uleb128 0x8
 1912 038a 8A290000 		.4byte	.LASF123
 1913 038e 8001     		.sleb128 128
 1914 0390 08       		.uleb128 0x8
 1915 0391 DC210000 		.4byte	.LASF124
 1916 0395 8001     		.sleb128 128
 1917 0397 08       		.uleb128 0x8
 1918 0398 AC170000 		.4byte	.LASF125
 1919 039c 8001     		.sleb128 128
 1920 039e 08       		.uleb128 0x8
 1921 039f 32280000 		.4byte	.LASF126
ARM GAS  C:\Users\Henny\AppData\Local\Temp\ccRrnRtI.s 			page 46


 1922 03a3 8001     		.sleb128 128
 1923 03a5 08       		.uleb128 0x8
 1924 03a6 B6140000 		.4byte	.LASF127
 1925 03aa 8101     		.sleb128 129
 1926 03ac 08       		.uleb128 0x8
 1927 03ad 1C2C0000 		.4byte	.LASF128
 1928 03b1 8101     		.sleb128 129
 1929 03b3 08       		.uleb128 0x8
 1930 03b4 47000000 		.4byte	.LASF129
 1931 03b8 8101     		.sleb128 129
 1932 03ba 08       		.uleb128 0x8
 1933 03bb EE310000 		.4byte	.LASF130
 1934 03bf A001     		.sleb128 160
 1935 03c1 08       		.uleb128 0x8
 1936 03c2 0F190000 		.4byte	.LASF131
 1937 03c6 A001     		.sleb128 160
 1938 03c8 08       		.uleb128 0x8
 1939 03c9 28080000 		.4byte	.LASF132
 1940 03cd A101     		.sleb128 161
 1941 03cf 08       		.uleb128 0x8
 1942 03d0 30310000 		.4byte	.LASF133
 1943 03d4 A201     		.sleb128 162
 1944 03d6 08       		.uleb128 0x8
 1945 03d7 76110000 		.4byte	.LASF134
 1946 03db A301     		.sleb128 163
 1947 03dd 08       		.uleb128 0x8
 1948 03de 39170000 		.4byte	.LASF135
 1949 03e2 FD01     		.sleb128 253
 1950 03e4 08       		.uleb128 0x8
 1951 03e5 8A1D0000 		.4byte	.LASF136
 1952 03e9 FE01     		.sleb128 254
 1953 03eb 08       		.uleb128 0x8
 1954 03ec D1240000 		.4byte	.LASF137
 1955 03f0 FF01     		.sleb128 255
 1956 03f2 00       		.byte	0
 1957 03f3 04       		.uleb128 0x4
 1958 03f4 51290000 		.4byte	.LASF138
 1959 03f8 04       		.byte	0x4
 1960 03f9 5901     		.2byte	0x159
 1961 03fb 00030000 		.4byte	0x300
 1962 03ff 04       		.uleb128 0x4
 1963 0400 67280000 		.4byte	.LASF139
 1964 0404 04       		.byte	0x4
 1965 0405 8801     		.2byte	0x188
 1966 0407 77000000 		.4byte	0x77
 1967 040b 0B       		.uleb128 0xb
 1968 040c 02       		.byte	0x2
 1969 040d 04       		.byte	0x4
 1970 040e 9201     		.2byte	0x192
 1971 0410 2F040000 		.4byte	0x42f
 1972 0414 0C       		.uleb128 0xc
 1973 0415 FA070000 		.4byte	.LASF140
 1974 0419 04       		.byte	0x4
 1975 041a 9901     		.2byte	0x199
 1976 041c 6B000000 		.4byte	0x6b
 1977 0420 00       		.byte	0
 1978 0421 0C       		.uleb128 0xc
ARM GAS  C:\Users\Henny\AppData\Local\Temp\ccRrnRtI.s 			page 47


 1979 0422 99360000 		.4byte	.LASF141
 1980 0426 04       		.byte	0x4
 1981 0427 9F01     		.2byte	0x19f
 1982 0429 6B000000 		.4byte	0x6b
 1983 042d 01       		.byte	0x1
 1984 042e 00       		.byte	0
 1985 042f 04       		.uleb128 0x4
 1986 0430 26070000 		.4byte	.LASF142
 1987 0434 04       		.byte	0x4
 1988 0435 A101     		.2byte	0x1a1
 1989 0437 0B040000 		.4byte	0x40b
 1990 043b 0B       		.uleb128 0xb
 1991 043c 08       		.byte	0x8
 1992 043d 04       		.byte	0x4
 1993 043e BD01     		.2byte	0x1bd
 1994 0440 6C040000 		.4byte	0x46c
 1995 0444 0D       		.uleb128 0xd
 1996 0445 76616C00 		.ascii	"val\000"
 1997 0449 04       		.byte	0x4
 1998 044a C001     		.2byte	0x1c0
 1999 044c FA020000 		.4byte	0x2fa
 2000 0450 00       		.byte	0
 2001 0451 0D       		.uleb128 0xd
 2002 0452 6C656E00 		.ascii	"len\000"
 2003 0456 04       		.byte	0x4
 2004 0457 C301     		.2byte	0x1c3
 2005 0459 77000000 		.4byte	0x77
 2006 045d 04       		.byte	0x4
 2007 045e 0C       		.uleb128 0xc
 2008 045f 38360000 		.4byte	.LASF143
 2009 0463 04       		.byte	0x4
 2010 0464 CA01     		.2byte	0x1ca
 2011 0466 77000000 		.4byte	0x77
 2012 046a 06       		.byte	0x6
 2013 046b 00       		.byte	0
 2014 046c 04       		.uleb128 0x4
 2015 046d C7050000 		.4byte	.LASF144
 2016 0471 04       		.byte	0x4
 2017 0472 CC01     		.2byte	0x1cc
 2018 0474 3B040000 		.4byte	0x43b
 2019 0478 0B       		.uleb128 0xb
 2020 0479 0C       		.byte	0xc
 2021 047a 04       		.byte	0x4
 2022 047b CF01     		.2byte	0x1cf
 2023 047d 9C040000 		.4byte	0x49c
 2024 0481 0C       		.uleb128 0xc
 2025 0482 B6280000 		.4byte	.LASF145
 2026 0486 04       		.byte	0x4
 2027 0487 D201     		.2byte	0x1d2
 2028 0489 6C040000 		.4byte	0x46c
 2029 048d 00       		.byte	0
 2030 048e 0C       		.uleb128 0xc
 2031 048f 3F200000 		.4byte	.LASF146
 2032 0493 04       		.byte	0x4
 2033 0494 D501     		.2byte	0x1d5
 2034 0496 FF030000 		.4byte	0x3ff
 2035 049a 08       		.byte	0x8
ARM GAS  C:\Users\Henny\AppData\Local\Temp\ccRrnRtI.s 			page 48


 2036 049b 00       		.byte	0
 2037 049c 04       		.uleb128 0x4
 2038 049d E40A0000 		.4byte	.LASF147
 2039 04a1 04       		.byte	0x4
 2040 04a2 D701     		.2byte	0x1d7
 2041 04a4 78040000 		.4byte	0x478
 2042 04a8 0E       		.uleb128 0xe
 2043 04a9 AD000000 		.4byte	.LASF148
 2044 04ad 05       		.byte	0x5
 2045 04ae 34       		.byte	0x34
 2046 04af 9C040000 		.4byte	0x49c
 2047 04b3 0F       		.uleb128 0xf
 2048 04b4 10       		.byte	0x10
 2049 04b5 05       		.byte	0x5
 2050 04b6 8A       		.byte	0x8a
 2051 04b7 D4040000 		.4byte	0x4d4
 2052 04bb 10       		.uleb128 0x10
 2053 04bc B52A0000 		.4byte	.LASF149
 2054 04c0 05       		.byte	0x5
 2055 04c1 8D       		.byte	0x8d
 2056 04c2 2F040000 		.4byte	0x42f
 2057 04c6 00       		.byte	0
 2058 04c7 10       		.uleb128 0x10
 2059 04c8 D92E0000 		.4byte	.LASF150
 2060 04cc 05       		.byte	0x5
 2061 04cd 90       		.byte	0x90
 2062 04ce 9C040000 		.4byte	0x49c
 2063 04d2 04       		.byte	0x4
 2064 04d3 00       		.byte	0
 2065 04d4 0E       		.uleb128 0xe
 2066 04d5 8A200000 		.4byte	.LASF151
 2067 04d9 05       		.byte	0x5
 2068 04da 92       		.byte	0x92
 2069 04db B3040000 		.4byte	0x4b3
 2070 04df 0F       		.uleb128 0xf
 2071 04e0 08       		.byte	0x8
 2072 04e1 06       		.byte	0x6
 2073 04e2 C1       		.byte	0xc1
 2074 04e3 00050000 		.4byte	0x500
 2075 04e7 10       		.uleb128 0x10
 2076 04e8 CE2A0000 		.4byte	.LASF152
 2077 04ec 06       		.byte	0x6
 2078 04ed C4       		.byte	0xc4
 2079 04ee 77000000 		.4byte	0x77
 2080 04f2 00       		.byte	0
 2081 04f3 10       		.uleb128 0x10
 2082 04f4 452E0000 		.4byte	.LASF153
 2083 04f8 06       		.byte	0x6
 2084 04f9 C9       		.byte	0xc9
 2085 04fa B0000000 		.4byte	0xb0
 2086 04fe 04       		.byte	0x4
 2087 04ff 00       		.byte	0
 2088 0500 0E       		.uleb128 0xe
 2089 0501 76240000 		.4byte	.LASF154
 2090 0505 06       		.byte	0x6
 2091 0506 CB       		.byte	0xcb
 2092 0507 DF040000 		.4byte	0x4df
ARM GAS  C:\Users\Henny\AppData\Local\Temp\ccRrnRtI.s 			page 49


 2093 050b 0F       		.uleb128 0xf
 2094 050c 08       		.byte	0x8
 2095 050d 06       		.byte	0x6
 2096 050e CE       		.byte	0xce
 2097 050f 2C050000 		.4byte	0x52c
 2098 0513 10       		.uleb128 0x10
 2099 0514 D20E0000 		.4byte	.LASF155
 2100 0518 06       		.byte	0x6
 2101 0519 D1       		.byte	0xd1
 2102 051a 77000000 		.4byte	0x77
 2103 051e 00       		.byte	0
 2104 051f 10       		.uleb128 0x10
 2105 0520 012F0000 		.4byte	.LASF156
 2106 0524 06       		.byte	0x6
 2107 0525 D6       		.byte	0xd6
 2108 0526 2C050000 		.4byte	0x52c
 2109 052a 04       		.byte	0x4
 2110 052b 00       		.byte	0
 2111 052c 0A       		.uleb128 0xa
 2112 052d 04       		.byte	0x4
 2113 052e 00050000 		.4byte	0x500
 2114 0532 0E       		.uleb128 0xe
 2115 0533 992D0000 		.4byte	.LASF157
 2116 0537 06       		.byte	0x6
 2117 0538 D8       		.byte	0xd8
 2118 0539 0B050000 		.4byte	0x50b
 2119 053d 11       		.uleb128 0x11
 2120 053e 08       		.byte	0x8
 2121 053f 06       		.byte	0x6
 2122 0540 DB       		.byte	0xdb
 2123 0541 5C050000 		.4byte	0x55c
 2124 0545 12       		.uleb128 0x12
 2125 0546 122F0000 		.4byte	.LASF158
 2126 054a 06       		.byte	0x6
 2127 054b E2       		.byte	0xe2
 2128 054c 32050000 		.4byte	0x532
 2129 0550 12       		.uleb128 0x12
 2130 0551 02190000 		.4byte	.LASF159
 2131 0555 06       		.byte	0x6
 2132 0556 E5       		.byte	0xe5
 2133 0557 77000000 		.4byte	0x77
 2134 055b 00       		.byte	0
 2135 055c 0E       		.uleb128 0xe
 2136 055d 642D0000 		.4byte	.LASF160
 2137 0561 06       		.byte	0x6
 2138 0562 E7       		.byte	0xe7
 2139 0563 3D050000 		.4byte	0x53d
 2140 0567 0F       		.uleb128 0xf
 2141 0568 14       		.byte	0x14
 2142 0569 06       		.byte	0x6
 2143 056a EA       		.byte	0xea
 2144 056b AE050000 		.4byte	0x5ae
 2145 056f 10       		.uleb128 0x10
 2146 0570 E40D0000 		.4byte	.LASF161
 2147 0574 06       		.byte	0x6
 2148 0575 ED       		.byte	0xed
 2149 0576 77000000 		.4byte	0x77
ARM GAS  C:\Users\Henny\AppData\Local\Temp\ccRrnRtI.s 			page 50


 2150 057a 00       		.byte	0
 2151 057b 10       		.uleb128 0x10
 2152 057c 030B0000 		.4byte	.LASF162
 2153 0580 06       		.byte	0x6
 2154 0581 F3       		.byte	0xf3
 2155 0582 77000000 		.4byte	0x77
 2156 0586 02       		.byte	0x2
 2157 0587 10       		.uleb128 0x10
 2158 0588 FD050000 		.4byte	.LASF163
 2159 058c 06       		.byte	0x6
 2160 058d FD       		.byte	0xfd
 2161 058e 83000000 		.4byte	0x83
 2162 0592 04       		.byte	0x4
 2163 0593 0C       		.uleb128 0xc
 2164 0594 D4200000 		.4byte	.LASF164
 2165 0598 06       		.byte	0x6
 2166 0599 0001     		.2byte	0x100
 2167 059b 77000000 		.4byte	0x77
 2168 059f 08       		.byte	0x8
 2169 05a0 0C       		.uleb128 0xc
 2170 05a1 10290000 		.4byte	.LASF165
 2171 05a5 06       		.byte	0x6
 2172 05a6 0901     		.2byte	0x109
 2173 05a8 5C050000 		.4byte	0x55c
 2174 05ac 0C       		.byte	0xc
 2175 05ad 00       		.byte	0
 2176 05ae 04       		.uleb128 0x4
 2177 05af D4110000 		.4byte	.LASF166
 2178 05b3 06       		.byte	0x6
 2179 05b4 0A01     		.2byte	0x10a
 2180 05b6 67050000 		.4byte	0x567
 2181 05ba 04       		.uleb128 0x4
 2182 05bb 83060000 		.4byte	.LASF167
 2183 05bf 07       		.byte	0x7
 2184 05c0 4101     		.2byte	0x141
 2185 05c2 C6050000 		.4byte	0x5c6
 2186 05c6 0A       		.uleb128 0xa
 2187 05c7 04       		.byte	0x4
 2188 05c8 CC050000 		.4byte	0x5cc
 2189 05cc 13       		.uleb128 0x13
 2190 05cd DC050000 		.4byte	0x5dc
 2191 05d1 14       		.uleb128 0x14
 2192 05d2 83000000 		.4byte	0x83
 2193 05d6 14       		.uleb128 0x14
 2194 05d7 B0000000 		.4byte	0xb0
 2195 05db 00       		.byte	0
 2196 05dc 0A       		.uleb128 0xa
 2197 05dd 04       		.byte	0x4
 2198 05de 6C040000 		.4byte	0x46c
 2199 05e2 07       		.uleb128 0x7
 2200 05e3 01       		.byte	0x1
 2201 05e4 08       		.byte	0x8
 2202 05e5 23       		.byte	0x23
 2203 05e6 27060000 		.4byte	0x627
 2204 05ea 08       		.uleb128 0x8
 2205 05eb 57270000 		.4byte	.LASF168
 2206 05ef 00       		.sleb128 0
ARM GAS  C:\Users\Henny\AppData\Local\Temp\ccRrnRtI.s 			page 51


 2207 05f0 08       		.uleb128 0x8
 2208 05f1 98110000 		.4byte	.LASF169
 2209 05f5 01       		.sleb128 1
 2210 05f6 08       		.uleb128 0x8
 2211 05f7 D9190000 		.4byte	.LASF170
 2212 05fb 02       		.sleb128 2
 2213 05fc 08       		.uleb128 0x8
 2214 05fd 130A0000 		.4byte	.LASF171
 2215 0601 03       		.sleb128 3
 2216 0602 08       		.uleb128 0x8
 2217 0603 AF060000 		.4byte	.LASF172
 2218 0607 04       		.sleb128 4
 2219 0608 08       		.uleb128 0x8
 2220 0609 FE100000 		.4byte	.LASF173
 2221 060d 05       		.sleb128 5
 2222 060e 08       		.uleb128 0x8
 2223 060f 2F120000 		.4byte	.LASF174
 2224 0613 06       		.sleb128 6
 2225 0614 08       		.uleb128 0x8
 2226 0615 77210000 		.4byte	.LASF175
 2227 0619 07       		.sleb128 7
 2228 061a 08       		.uleb128 0x8
 2229 061b E31B0000 		.4byte	.LASF176
 2230 061f 08       		.sleb128 8
 2231 0620 08       		.uleb128 0x8
 2232 0621 62000000 		.4byte	.LASF177
 2233 0625 09       		.sleb128 9
 2234 0626 00       		.byte	0
 2235 0627 07       		.uleb128 0x7
 2236 0628 01       		.byte	0x1
 2237 0629 09       		.byte	0x9
 2238 062a 22       		.byte	0x22
 2239 062b 4E060000 		.4byte	0x64e
 2240 062f 08       		.uleb128 0x8
 2241 0630 9A2F0000 		.4byte	.LASF178
 2242 0634 00       		.sleb128 0
 2243 0635 08       		.uleb128 0x8
 2244 0636 FC280000 		.4byte	.LASF179
 2245 063a 01       		.sleb128 1
 2246 063b 08       		.uleb128 0x8
 2247 063c 81090000 		.4byte	.LASF180
 2248 0640 02       		.sleb128 2
 2249 0641 08       		.uleb128 0x8
 2250 0642 F1190000 		.4byte	.LASF181
 2251 0646 03       		.sleb128 3
 2252 0647 08       		.uleb128 0x8
 2253 0648 66260000 		.4byte	.LASF182
 2254 064c 04       		.sleb128 4
 2255 064d 00       		.byte	0
 2256 064e 0E       		.uleb128 0xe
 2257 064f 711A0000 		.4byte	.LASF183
 2258 0653 09       		.byte	0x9
 2259 0654 29       		.byte	0x29
 2260 0655 27060000 		.4byte	0x627
 2261 0659 07       		.uleb128 0x7
 2262 065a 01       		.byte	0x1
 2263 065b 09       		.byte	0x9
ARM GAS  C:\Users\Henny\AppData\Local\Temp\ccRrnRtI.s 			page 52


 2264 065c 2D       		.byte	0x2d
 2265 065d 74060000 		.4byte	0x674
 2266 0661 08       		.uleb128 0x8
 2267 0662 DB040000 		.4byte	.LASF184
 2268 0666 00       		.sleb128 0
 2269 0667 08       		.uleb128 0x8
 2270 0668 C2020000 		.4byte	.LASF185
 2271 066c 01       		.sleb128 1
 2272 066d 08       		.uleb128 0x8
 2273 066e 240D0000 		.4byte	.LASF186
 2274 0672 02       		.sleb128 2
 2275 0673 00       		.byte	0
 2276 0674 0E       		.uleb128 0xe
 2277 0675 AE250000 		.4byte	.LASF187
 2278 0679 09       		.byte	0x9
 2279 067a 31       		.byte	0x31
 2280 067b 59060000 		.4byte	0x659
 2281 067f 0F       		.uleb128 0xf
 2282 0680 06       		.byte	0x6
 2283 0681 09       		.byte	0x9
 2284 0682 34       		.byte	0x34
 2285 0683 A0060000 		.4byte	0x6a0
 2286 0687 10       		.uleb128 0x10
 2287 0688 532E0000 		.4byte	.LASF188
 2288 068c 09       		.byte	0x9
 2289 068d 36       		.byte	0x36
 2290 068e FF030000 		.4byte	0x3ff
 2291 0692 00       		.byte	0
 2292 0693 10       		.uleb128 0x10
 2293 0694 EE070000 		.4byte	.LASF189
 2294 0698 09       		.byte	0x9
 2295 0699 37       		.byte	0x37
 2296 069a A0060000 		.4byte	0x6a0
 2297 069e 02       		.byte	0x2
 2298 069f 00       		.byte	0
 2299 06a0 15       		.uleb128 0x15
 2300 06a1 FF030000 		.4byte	0x3ff
 2301 06a5 B0060000 		.4byte	0x6b0
 2302 06a9 16       		.uleb128 0x16
 2303 06aa A9000000 		.4byte	0xa9
 2304 06ae 01       		.byte	0x1
 2305 06af 00       		.byte	0
 2306 06b0 0E       		.uleb128 0xe
 2307 06b1 17140000 		.4byte	.LASF190
 2308 06b5 09       		.byte	0x9
 2309 06b6 38       		.byte	0x38
 2310 06b7 7F060000 		.4byte	0x67f
 2311 06bb 0F       		.uleb128 0xf
 2312 06bc 1A       		.byte	0x1a
 2313 06bd 09       		.byte	0x9
 2314 06be 3B       		.byte	0x3b
 2315 06bf DC060000 		.4byte	0x6dc
 2316 06c3 10       		.uleb128 0x10
 2317 06c4 5B0A0000 		.4byte	.LASF191
 2318 06c8 09       		.byte	0x9
 2319 06c9 3E       		.byte	0x3e
 2320 06ca FF030000 		.4byte	0x3ff
ARM GAS  C:\Users\Henny\AppData\Local\Temp\ccRrnRtI.s 			page 53


 2321 06ce 00       		.byte	0
 2322 06cf 10       		.uleb128 0x10
 2323 06d0 9D320000 		.4byte	.LASF192
 2324 06d4 09       		.byte	0x9
 2325 06d5 41       		.byte	0x41
 2326 06d6 DC060000 		.4byte	0x6dc
 2327 06da 02       		.byte	0x2
 2328 06db 00       		.byte	0
 2329 06dc 15       		.uleb128 0x15
 2330 06dd B0060000 		.4byte	0x6b0
 2331 06e1 EC060000 		.4byte	0x6ec
 2332 06e5 16       		.uleb128 0x16
 2333 06e6 A9000000 		.4byte	0xa9
 2334 06ea 03       		.byte	0x3
 2335 06eb 00       		.byte	0
 2336 06ec 0E       		.uleb128 0xe
 2337 06ed 20350000 		.4byte	.LASF193
 2338 06f1 09       		.byte	0x9
 2339 06f2 42       		.byte	0x42
 2340 06f3 BB060000 		.4byte	0x6bb
 2341 06f7 0F       		.uleb128 0xf
 2342 06f8 08       		.byte	0x8
 2343 06f9 09       		.byte	0x9
 2344 06fa 5A       		.byte	0x5a
 2345 06fb 24070000 		.4byte	0x724
 2346 06ff 10       		.uleb128 0x10
 2347 0700 B52A0000 		.4byte	.LASF149
 2348 0704 09       		.byte	0x9
 2349 0705 5C       		.byte	0x5c
 2350 0706 2F040000 		.4byte	0x42f
 2351 070a 00       		.byte	0
 2352 070b 10       		.uleb128 0x10
 2353 070c 29010000 		.4byte	.LASF194
 2354 0710 09       		.byte	0x9
 2355 0711 5D       		.byte	0x5d
 2356 0712 4E060000 		.4byte	0x64e
 2357 0716 02       		.byte	0x2
 2358 0717 10       		.uleb128 0x10
 2359 0718 B6280000 		.4byte	.LASF145
 2360 071c 09       		.byte	0x9
 2361 071d 5E       		.byte	0x5e
 2362 071e DC050000 		.4byte	0x5dc
 2363 0722 04       		.byte	0x4
 2364 0723 00       		.byte	0
 2365 0724 0E       		.uleb128 0xe
 2366 0725 23090000 		.4byte	.LASF195
 2367 0729 09       		.byte	0x9
 2368 072a 5F       		.byte	0x5f
 2369 072b F7060000 		.4byte	0x6f7
 2370 072f 07       		.uleb128 0x7
 2371 0730 02       		.byte	0x2
 2372 0731 0A       		.byte	0xa
 2373 0732 9D       		.byte	0x9d
 2374 0733 240E0000 		.4byte	0xe24
 2375 0737 08       		.uleb128 0x8
 2376 0738 13220000 		.4byte	.LASF196
 2377 073c 8002     		.sleb128 256
ARM GAS  C:\Users\Henny\AppData\Local\Temp\ccRrnRtI.s 			page 54


 2378 073e 08       		.uleb128 0x8
 2379 073f 3A370000 		.4byte	.LASF197
 2380 0743 8102     		.sleb128 257
 2381 0745 08       		.uleb128 0x8
 2382 0746 BB090000 		.4byte	.LASF198
 2383 074a 8202     		.sleb128 258
 2384 074c 08       		.uleb128 0x8
 2385 074d F0360000 		.4byte	.LASF199
 2386 0751 8302     		.sleb128 259
 2387 0753 08       		.uleb128 0x8
 2388 0754 A5270000 		.4byte	.LASF200
 2389 0758 8402     		.sleb128 260
 2390 075a 08       		.uleb128 0x8
 2391 075b 7E350000 		.4byte	.LASF201
 2392 075f 8502     		.sleb128 261
 2393 0761 08       		.uleb128 0x8
 2394 0762 EE0D0000 		.4byte	.LASF202
 2395 0766 8602     		.sleb128 262
 2396 0768 08       		.uleb128 0x8
 2397 0769 31300000 		.4byte	.LASF203
 2398 076d 8702     		.sleb128 263
 2399 076f 08       		.uleb128 0x8
 2400 0770 35350000 		.4byte	.LASF204
 2401 0774 8802     		.sleb128 264
 2402 0776 08       		.uleb128 0x8
 2403 0777 5A050000 		.4byte	.LASF205
 2404 077b 8902     		.sleb128 265
 2405 077d 08       		.uleb128 0x8
 2406 077e F2020000 		.4byte	.LASF206
 2407 0782 8A02     		.sleb128 266
 2408 0784 08       		.uleb128 0x8
 2409 0785 AA290000 		.4byte	.LASF207
 2410 0789 8B02     		.sleb128 267
 2411 078b 08       		.uleb128 0x8
 2412 078c F41B0000 		.4byte	.LASF208
 2413 0790 8C02     		.sleb128 268
 2414 0792 08       		.uleb128 0x8
 2415 0793 44260000 		.4byte	.LASF209
 2416 0797 8D02     		.sleb128 269
 2417 0799 08       		.uleb128 0x8
 2418 079a C1030000 		.4byte	.LASF210
 2419 079e 8E02     		.sleb128 270
 2420 07a0 08       		.uleb128 0x8
 2421 07a1 FC0E0000 		.4byte	.LASF211
 2422 07a5 8F02     		.sleb128 271
 2423 07a7 08       		.uleb128 0x8
 2424 07a8 FE060000 		.4byte	.LASF212
 2425 07ac 9002     		.sleb128 272
 2426 07ae 08       		.uleb128 0x8
 2427 07af 5D330000 		.4byte	.LASF213
 2428 07b3 9102     		.sleb128 273
 2429 07b5 08       		.uleb128 0x8
 2430 07b6 760E0000 		.4byte	.LASF214
 2431 07ba 9202     		.sleb128 274
 2432 07bc 08       		.uleb128 0x8
 2433 07bd 7B2A0000 		.4byte	.LASF215
 2434 07c1 9302     		.sleb128 275
ARM GAS  C:\Users\Henny\AppData\Local\Temp\ccRrnRtI.s 			page 55


 2435 07c3 08       		.uleb128 0x8
 2436 07c4 42360000 		.4byte	.LASF216
 2437 07c8 9402     		.sleb128 276
 2438 07ca 08       		.uleb128 0x8
 2439 07cb 282E0000 		.4byte	.LASF217
 2440 07cf 9502     		.sleb128 277
 2441 07d1 08       		.uleb128 0x8
 2442 07d2 3A090000 		.4byte	.LASF218
 2443 07d6 9602     		.sleb128 278
 2444 07d8 08       		.uleb128 0x8
 2445 07d9 4C380000 		.4byte	.LASF219
 2446 07dd 9702     		.sleb128 279
 2447 07df 08       		.uleb128 0x8
 2448 07e0 A41F0000 		.4byte	.LASF220
 2449 07e4 9802     		.sleb128 280
 2450 07e6 08       		.uleb128 0x8
 2451 07e7 95120000 		.4byte	.LASF221
 2452 07eb 9902     		.sleb128 281
 2453 07ed 08       		.uleb128 0x8
 2454 07ee EE2F0000 		.4byte	.LASF222
 2455 07f2 9A02     		.sleb128 282
 2456 07f4 08       		.uleb128 0x8
 2457 07f5 F3220000 		.4byte	.LASF223
 2458 07f9 9B02     		.sleb128 283
 2459 07fb 08       		.uleb128 0x8
 2460 07fc AF380000 		.4byte	.LASF224
 2461 0800 9C02     		.sleb128 284
 2462 0802 08       		.uleb128 0x8
 2463 0803 79300000 		.4byte	.LASF225
 2464 0807 9D02     		.sleb128 285
 2465 0809 08       		.uleb128 0x8
 2466 080a A2370000 		.4byte	.LASF226
 2467 080e 9E02     		.sleb128 286
 2468 0810 08       		.uleb128 0x8
 2469 0811 9D180000 		.4byte	.LASF227
 2470 0815 9F02     		.sleb128 287
 2471 0817 08       		.uleb128 0x8
 2472 0818 80150000 		.4byte	.LASF228
 2473 081c A002     		.sleb128 288
 2474 081e 08       		.uleb128 0x8
 2475 081f 71040000 		.4byte	.LASF229
 2476 0823 A102     		.sleb128 289
 2477 0825 08       		.uleb128 0x8
 2478 0826 11270000 		.4byte	.LASF230
 2479 082a A202     		.sleb128 290
 2480 082c 08       		.uleb128 0x8
 2481 082d 33190000 		.4byte	.LASF231
 2482 0831 A302     		.sleb128 291
 2483 0833 08       		.uleb128 0x8
 2484 0834 DB2A0000 		.4byte	.LASF232
 2485 0838 A402     		.sleb128 292
 2486 083a 08       		.uleb128 0x8
 2487 083b E8250000 		.4byte	.LASF233
 2488 083f A502     		.sleb128 293
 2489 0841 08       		.uleb128 0x8
 2490 0842 B0310000 		.4byte	.LASF234
 2491 0846 A602     		.sleb128 294
ARM GAS  C:\Users\Henny\AppData\Local\Temp\ccRrnRtI.s 			page 56


 2492 0848 08       		.uleb128 0x8
 2493 0849 1E0C0000 		.4byte	.LASF235
 2494 084d A702     		.sleb128 295
 2495 084f 08       		.uleb128 0x8
 2496 0850 0D300000 		.4byte	.LASF236
 2497 0854 A802     		.sleb128 296
 2498 0856 08       		.uleb128 0x8
 2499 0857 94140000 		.4byte	.LASF237
 2500 085b A902     		.sleb128 297
 2501 085d 08       		.uleb128 0x8
 2502 085e 07160000 		.4byte	.LASF238
 2503 0862 AA02     		.sleb128 298
 2504 0864 08       		.uleb128 0x8
 2505 0865 3E030000 		.4byte	.LASF239
 2506 0869 AB02     		.sleb128 299
 2507 086b 08       		.uleb128 0x8
 2508 086c 62030000 		.4byte	.LASF240
 2509 0870 AC02     		.sleb128 300
 2510 0872 08       		.uleb128 0x8
 2511 0873 8B000000 		.4byte	.LASF241
 2512 0877 AD02     		.sleb128 301
 2513 0879 08       		.uleb128 0x8
 2514 087a D70B0000 		.4byte	.LASF242
 2515 087e AE02     		.sleb128 302
 2516 0880 08       		.uleb128 0x8
 2517 0881 5C370000 		.4byte	.LASF243
 2518 0885 AF02     		.sleb128 303
 2519 0887 08       		.uleb128 0x8
 2520 0888 45060000 		.4byte	.LASF244
 2521 088c B002     		.sleb128 304
 2522 088e 08       		.uleb128 0x8
 2523 088f 54210000 		.4byte	.LASF245
 2524 0893 B102     		.sleb128 305
 2525 0895 08       		.uleb128 0x8
 2526 0896 E02D0000 		.4byte	.LASF246
 2527 089a B202     		.sleb128 306
 2528 089c 08       		.uleb128 0x8
 2529 089d 0B120000 		.4byte	.LASF247
 2530 08a1 B302     		.sleb128 307
 2531 08a3 08       		.uleb128 0x8
 2532 08a4 5B220000 		.4byte	.LASF248
 2533 08a8 B402     		.sleb128 308
 2534 08aa 08       		.uleb128 0x8
 2535 08ab 58140000 		.4byte	.LASF249
 2536 08af B502     		.sleb128 309
 2537 08b1 08       		.uleb128 0x8
 2538 08b2 67060000 		.4byte	.LASF250
 2539 08b6 B602     		.sleb128 310
 2540 08b8 08       		.uleb128 0x8
 2541 08b9 22020000 		.4byte	.LASF251
 2542 08bd B702     		.sleb128 311
 2543 08bf 08       		.uleb128 0x8
 2544 08c0 4C080000 		.4byte	.LASF252
 2545 08c4 B802     		.sleb128 312
 2546 08c6 08       		.uleb128 0x8
 2547 08c7 D8280000 		.4byte	.LASF253
 2548 08cb B902     		.sleb128 313
ARM GAS  C:\Users\Henny\AppData\Local\Temp\ccRrnRtI.s 			page 57


 2549 08cd 08       		.uleb128 0x8
 2550 08ce E72E0000 		.4byte	.LASF254
 2551 08d2 BA02     		.sleb128 314
 2552 08d4 08       		.uleb128 0x8
 2553 08d5 B4070000 		.4byte	.LASF255
 2554 08d9 BB02     		.sleb128 315
 2555 08db 08       		.uleb128 0x8
 2556 08dc 0C210000 		.4byte	.LASF256
 2557 08e0 BC02     		.sleb128 316
 2558 08e2 08       		.uleb128 0x8
 2559 08e3 E4320000 		.4byte	.LASF257
 2560 08e7 BD02     		.sleb128 317
 2561 08e9 08       		.uleb128 0x8
 2562 08ea A41C0000 		.4byte	.LASF258
 2563 08ee BE02     		.sleb128 318
 2564 08f0 08       		.uleb128 0x8
 2565 08f1 39330000 		.4byte	.LASF259
 2566 08f5 BF02     		.sleb128 319
 2567 08f7 08       		.uleb128 0x8
 2568 08f8 03080000 		.4byte	.LASF260
 2569 08fc C002     		.sleb128 320
 2570 08fe 08       		.uleb128 0x8
 2571 08ff 07250000 		.4byte	.LASF261
 2572 0903 C102     		.sleb128 321
 2573 0905 08       		.uleb128 0x8
 2574 0906 FA340000 		.4byte	.LASF262
 2575 090a C202     		.sleb128 322
 2576 090c 08       		.uleb128 0x8
 2577 090d 80330000 		.4byte	.LASF263
 2578 0911 C302     		.sleb128 323
 2579 0913 08       		.uleb128 0x8
 2580 0914 CC000000 		.4byte	.LASF264
 2581 0918 C402     		.sleb128 324
 2582 091a 08       		.uleb128 0x8
 2583 091b 582F0000 		.4byte	.LASF265
 2584 091f C502     		.sleb128 325
 2585 0921 08       		.uleb128 0x8
 2586 0922 351A0000 		.4byte	.LASF266
 2587 0926 C602     		.sleb128 326
 2588 0928 08       		.uleb128 0x8
 2589 0929 5E2E0000 		.4byte	.LASF267
 2590 092d C702     		.sleb128 327
 2591 092f 08       		.uleb128 0x8
 2592 0930 D52B0000 		.4byte	.LASF268
 2593 0934 C802     		.sleb128 328
 2594 0936 08       		.uleb128 0x8
 2595 0937 CD010000 		.4byte	.LASF269
 2596 093b C902     		.sleb128 329
 2597 093d 08       		.uleb128 0x8
 2598 093e 0B2B0000 		.4byte	.LASF270
 2599 0942 CA02     		.sleb128 330
 2600 0944 08       		.uleb128 0x8
 2601 0945 3A0D0000 		.4byte	.LASF271
 2602 0949 CB02     		.sleb128 331
 2603 094b 08       		.uleb128 0x8
 2604 094c 92080000 		.4byte	.LASF272
 2605 0950 CC02     		.sleb128 332
ARM GAS  C:\Users\Henny\AppData\Local\Temp\ccRrnRtI.s 			page 58


 2606 0952 08       		.uleb128 0x8
 2607 0953 6F080000 		.4byte	.LASF273
 2608 0957 CD02     		.sleb128 333
 2609 0959 08       		.uleb128 0x8
 2610 095a 000D0000 		.4byte	.LASF274
 2611 095e CE02     		.sleb128 334
 2612 0960 08       		.uleb128 0x8
 2613 0961 541B0000 		.4byte	.LASF275
 2614 0965 CF02     		.sleb128 335
 2615 0967 08       		.uleb128 0x8
 2616 0968 77360000 		.4byte	.LASF276
 2617 096c D002     		.sleb128 336
 2618 096e 08       		.uleb128 0x8
 2619 096f 37110000 		.4byte	.LASF277
 2620 0973 D102     		.sleb128 337
 2621 0975 08       		.uleb128 0x8
 2622 0976 BC280000 		.4byte	.LASF278
 2623 097a D202     		.sleb128 338
 2624 097c 08       		.uleb128 0x8
 2625 097d FE230000 		.4byte	.LASF279
 2626 0981 D302     		.sleb128 339
 2627 0983 08       		.uleb128 0x8
 2628 0984 88010000 		.4byte	.LASF280
 2629 0988 D402     		.sleb128 340
 2630 098a 08       		.uleb128 0x8
 2631 098b 95190000 		.4byte	.LASF281
 2632 098f D502     		.sleb128 341
 2633 0991 08       		.uleb128 0x8
 2634 0992 E7000000 		.4byte	.LASF282
 2635 0996 D602     		.sleb128 342
 2636 0998 08       		.uleb128 0x8
 2637 0999 F6080000 		.4byte	.LASF283
 2638 099d D702     		.sleb128 343
 2639 099f 08       		.uleb128 0x8
 2640 09a0 E0330000 		.4byte	.LASF284
 2641 09a4 D802     		.sleb128 344
 2642 09a6 08       		.uleb128 0x8
 2643 09a7 29140000 		.4byte	.LASF285
 2644 09ab D902     		.sleb128 345
 2645 09ad 08       		.uleb128 0x8
 2646 09ae 02130000 		.4byte	.LASF286
 2647 09b2 DA02     		.sleb128 346
 2648 09b4 08       		.uleb128 0x8
 2649 09b5 DA050000 		.4byte	.LASF287
 2650 09b9 DB02     		.sleb128 347
 2651 09bb 08       		.uleb128 0x8
 2652 09bc C0320000 		.4byte	.LASF288
 2653 09c0 DC02     		.sleb128 348
 2654 09c2 08       		.uleb128 0x8
 2655 09c3 FD1D0000 		.4byte	.LASF289
 2656 09c7 DD02     		.sleb128 349
 2657 09c9 08       		.uleb128 0x8
 2658 09ca CD1A0000 		.4byte	.LASF290
 2659 09ce DE02     		.sleb128 350
 2660 09d0 08       		.uleb128 0x8
 2661 09d1 7D070000 		.4byte	.LASF291
 2662 09d5 DF02     		.sleb128 351
ARM GAS  C:\Users\Henny\AppData\Local\Temp\ccRrnRtI.s 			page 59


 2663 09d7 08       		.uleb128 0x8
 2664 09d8 94060000 		.4byte	.LASF292
 2665 09dc E002     		.sleb128 352
 2666 09de 08       		.uleb128 0x8
 2667 09df AA010000 		.4byte	.LASF293
 2668 09e3 E102     		.sleb128 353
 2669 09e5 08       		.uleb128 0x8
 2670 09e6 881A0000 		.4byte	.LASF294
 2671 09ea E202     		.sleb128 354
 2672 09ec 08       		.uleb128 0x8
 2673 09ed 21380000 		.4byte	.LASF295
 2674 09f1 E302     		.sleb128 355
 2675 09f3 08       		.uleb128 0x8
 2676 09f4 C8150000 		.4byte	.LASF296
 2677 09f8 E402     		.sleb128 356
 2678 09fa 08       		.uleb128 0x8
 2679 09fb 28130000 		.4byte	.LASF297
 2680 09ff E502     		.sleb128 357
 2681 0a01 08       		.uleb128 0x8
 2682 0a02 2F210000 		.4byte	.LASF298
 2683 0a06 E602     		.sleb128 358
 2684 0a08 08       		.uleb128 0x8
 2685 0a09 F4300000 		.4byte	.LASF299
 2686 0a0d E702     		.sleb128 359
 2687 0a0f 08       		.uleb128 0x8
 2688 0a10 35290000 		.4byte	.LASF300
 2689 0a14 E802     		.sleb128 360
 2690 0a16 08       		.uleb128 0x8
 2691 0a17 9F030000 		.4byte	.LASF301
 2692 0a1b E902     		.sleb128 361
 2693 0a1d 08       		.uleb128 0x8
 2694 0a1e 0F280000 		.4byte	.LASF302
 2695 0a22 EA02     		.sleb128 362
 2696 0a24 08       		.uleb128 0x8
 2697 0a25 B7100000 		.4byte	.LASF303
 2698 0a29 EB02     		.sleb128 363
 2699 0a2b 08       		.uleb128 0x8
 2700 0a2c 57190000 		.4byte	.LASF304
 2701 0a30 EC02     		.sleb128 364
 2702 0a32 08       		.uleb128 0x8
 2703 0a33 36240000 		.4byte	.LASF305
 2704 0a37 ED02     		.sleb128 365
 2705 0a39 08       		.uleb128 0x8
 2706 0a3a 272D0000 		.4byte	.LASF306
 2707 0a3e EE02     		.sleb128 366
 2708 0a40 08       		.uleb128 0x8
 2709 0a41 AF110000 		.4byte	.LASF307
 2710 0a45 EF02     		.sleb128 367
 2711 0a47 08       		.uleb128 0x8
 2712 0a48 8F1E0000 		.4byte	.LASF308
 2713 0a4c F002     		.sleb128 368
 2714 0a4e 08       		.uleb128 0x8
 2715 0a4f FB1C0000 		.4byte	.LASF309
 2716 0a53 F102     		.sleb128 369
 2717 0a55 08       		.uleb128 0x8
 2718 0a56 B5210000 		.4byte	.LASF310
 2719 0a5a F202     		.sleb128 370
ARM GAS  C:\Users\Henny\AppData\Local\Temp\ccRrnRtI.s 			page 60


 2720 0a5c 08       		.uleb128 0x8
 2721 0a5d F32C0000 		.4byte	.LASF311
 2722 0a61 F302     		.sleb128 371
 2723 0a63 08       		.uleb128 0x8
 2724 0a64 B11E0000 		.4byte	.LASF312
 2725 0a68 F402     		.sleb128 372
 2726 0a6a 08       		.uleb128 0x8
 2727 0a6b 741E0000 		.4byte	.LASF313
 2728 0a6f F502     		.sleb128 373
 2729 0a71 08       		.uleb128 0x8
 2730 0a72 141F0000 		.4byte	.LASF314
 2731 0a76 F602     		.sleb128 374
 2732 0a78 08       		.uleb128 0x8
 2733 0a79 7B120000 		.4byte	.LASF315
 2734 0a7d F702     		.sleb128 375
 2735 0a7f 08       		.uleb128 0x8
 2736 0a80 0B0B0000 		.4byte	.LASF316
 2737 0a84 F802     		.sleb128 376
 2738 0a86 08       		.uleb128 0x8
 2739 0a87 CB2F0000 		.4byte	.LASF317
 2740 0a8b F902     		.sleb128 377
 2741 0a8d 08       		.uleb128 0x8
 2742 0a8e DF160000 		.4byte	.LASF318
 2743 0a92 FA02     		.sleb128 378
 2744 0a94 08       		.uleb128 0x8
 2745 0a95 370A0000 		.4byte	.LASF319
 2746 0a99 FB02     		.sleb128 379
 2747 0a9b 08       		.uleb128 0x8
 2748 0a9c 57300000 		.4byte	.LASF320
 2749 0aa0 FC02     		.sleb128 380
 2750 0aa2 08       		.uleb128 0x8
 2751 0aa3 67290000 		.4byte	.LASF321
 2752 0aa7 FD02     		.sleb128 381
 2753 0aa9 08       		.uleb128 0x8
 2754 0aaa 73270000 		.4byte	.LASF322
 2755 0aae FE02     		.sleb128 382
 2756 0ab0 08       		.uleb128 0x8
 2757 0ab1 151C0000 		.4byte	.LASF323
 2758 0ab5 FF02     		.sleb128 383
 2759 0ab7 08       		.uleb128 0x8
 2760 0ab8 F2010000 		.4byte	.LASF324
 2761 0abc 8003     		.sleb128 384
 2762 0abe 08       		.uleb128 0x8
 2763 0abf ED240000 		.4byte	.LASF325
 2764 0ac3 8103     		.sleb128 385
 2765 0ac5 08       		.uleb128 0x8
 2766 0ac6 5D360000 		.4byte	.LASF326
 2767 0aca 8203     		.sleb128 386
 2768 0acc 08       		.uleb128 0x8
 2769 0acd D2310000 		.4byte	.LASF327
 2770 0ad1 8303     		.sleb128 387
 2771 0ad3 08       		.uleb128 0x8
 2772 0ad4 751B0000 		.4byte	.LASF328
 2773 0ad8 8403     		.sleb128 388
 2774 0ada 08       		.uleb128 0x8
 2775 0adb DC350000 		.4byte	.LASF329
 2776 0adf 8503     		.sleb128 389
ARM GAS  C:\Users\Henny\AppData\Local\Temp\ccRrnRtI.s 			page 61


 2777 0ae1 08       		.uleb128 0x8
 2778 0ae2 780F0000 		.4byte	.LASF330
 2779 0ae6 8603     		.sleb128 390
 2780 0ae8 08       		.uleb128 0x8
 2781 0ae9 9B330000 		.4byte	.LASF331
 2782 0aed 8703     		.sleb128 391
 2783 0aef 08       		.uleb128 0x8
 2784 0af0 EE380000 		.4byte	.LASF332
 2785 0af4 8803     		.sleb128 392
 2786 0af6 08       		.uleb128 0x8
 2787 0af7 551F0000 		.4byte	.LASF333
 2788 0afb 8903     		.sleb128 393
 2789 0afd 08       		.uleb128 0x8
 2790 0afe E0370000 		.4byte	.LASF334
 2791 0b02 8A03     		.sleb128 394
 2792 0b04 08       		.uleb128 0x8
 2793 0b05 F21E0000 		.4byte	.LASF335
 2794 0b09 8B03     		.sleb128 395
 2795 0b0b 08       		.uleb128 0x8
 2796 0b0c 8B0B0000 		.4byte	.LASF336
 2797 0b10 8C03     		.sleb128 396
 2798 0b12 08       		.uleb128 0x8
 2799 0b13 1C170000 		.4byte	.LASF337
 2800 0b17 8D03     		.sleb128 397
 2801 0b19 08       		.uleb128 0x8
 2802 0b1a 72140000 		.4byte	.LASF338
 2803 0b1e 8E03     		.sleb128 398
 2804 0b20 08       		.uleb128 0x8
 2805 0b21 2D0B0000 		.4byte	.LASF339
 2806 0b25 8F03     		.sleb128 399
 2807 0b27 08       		.uleb128 0x8
 2808 0b28 F92B0000 		.4byte	.LASF340
 2809 0b2c 9003     		.sleb128 400
 2810 0b2e 08       		.uleb128 0x8
 2811 0b2f D1170000 		.4byte	.LASF341
 2812 0b33 9103     		.sleb128 401
 2813 0b35 08       		.uleb128 0x8
 2814 0b36 8A250000 		.4byte	.LASF342
 2815 0b3a 9203     		.sleb128 402
 2816 0b3c 08       		.uleb128 0x8
 2817 0b3d 28040000 		.4byte	.LASF343
 2818 0b41 9303     		.sleb128 403
 2819 0b43 08       		.uleb128 0x8
 2820 0b44 51110000 		.4byte	.LASF344
 2821 0b48 9403     		.sleb128 404
 2822 0b4a 08       		.uleb128 0x8
 2823 0b4b 2A160000 		.4byte	.LASF345
 2824 0b4f 9503     		.sleb128 405
 2825 0b51 08       		.uleb128 0x8
 2826 0b52 5C390000 		.4byte	.LASF346
 2827 0b56 9603     		.sleb128 406
 2828 0b58 08       		.uleb128 0x8
 2829 0b59 2C250000 		.4byte	.LASF347
 2830 0b5d 9703     		.sleb128 407
 2831 0b5f 08       		.uleb128 0x8
 2832 0b60 C6250000 		.4byte	.LASF348
 2833 0b64 9803     		.sleb128 408
ARM GAS  C:\Users\Henny\AppData\Local\Temp\ccRrnRtI.s 			page 62


 2834 0b66 08       		.uleb128 0x8
 2835 0b67 3A070000 		.4byte	.LASF349
 2836 0b6b 9903     		.sleb128 409
 2837 0b6d 08       		.uleb128 0x8
 2838 0b6e F4130000 		.4byte	.LASF350
 2839 0b72 9A03     		.sleb128 410
 2840 0b74 08       		.uleb128 0x8
 2841 0b75 9C2C0000 		.4byte	.LASF351
 2842 0b79 9B03     		.sleb128 411
 2843 0b7b 08       		.uleb128 0x8
 2844 0b7c 690A0000 		.4byte	.LASF352
 2845 0b80 9C03     		.sleb128 412
 2846 0b82 08       		.uleb128 0x8
 2847 0b83 22000000 		.4byte	.LASF353
 2848 0b87 9D03     		.sleb128 413
 2849 0b89 08       		.uleb128 0x8
 2850 0b8a 6B310000 		.4byte	.LASF354
 2851 0b8e 9E03     		.sleb128 414
 2852 0b90 08       		.uleb128 0x8
 2853 0b91 D60F0000 		.4byte	.LASF355
 2854 0b95 9F03     		.sleb128 415
 2855 0b97 08       		.uleb128 0x8
 2856 0b98 13390000 		.4byte	.LASF356
 2857 0b9c A003     		.sleb128 416
 2858 0b9e 08       		.uleb128 0x8
 2859 0b9f E8180000 		.4byte	.LASF357
 2860 0ba3 A103     		.sleb128 417
 2861 0ba5 08       		.uleb128 0x8
 2862 0ba6 971B0000 		.4byte	.LASF358
 2863 0baa A203     		.sleb128 418
 2864 0bac 08       		.uleb128 0x8
 2865 0bad D4380000 		.4byte	.LASF359
 2866 0bb1 A303     		.sleb128 419
 2867 0bb3 08       		.uleb128 0x8
 2868 0bb4 882E0000 		.4byte	.LASF360
 2869 0bb8 A403     		.sleb128 420
 2870 0bba 08       		.uleb128 0x8
 2871 0bbb A3220000 		.4byte	.LASF361
 2872 0bbf A503     		.sleb128 421
 2873 0bc1 08       		.uleb128 0x8
 2874 0bc2 94240000 		.4byte	.LASF362
 2875 0bc6 A603     		.sleb128 422
 2876 0bc8 08       		.uleb128 0x8
 2877 0bc9 5B340000 		.4byte	.LASF363
 2878 0bcd A703     		.sleb128 423
 2879 0bcf 08       		.uleb128 0x8
 2880 0bd0 07180000 		.4byte	.LASF364
 2881 0bd4 A803     		.sleb128 424
 2882 0bd6 08       		.uleb128 0x8
 2883 0bd7 B1130000 		.4byte	.LASF365
 2884 0bdb A903     		.sleb128 425
 2885 0bdd 08       		.uleb128 0x8
 2886 0bde DB1D0000 		.4byte	.LASF366
 2887 0be2 AA03     		.sleb128 426
 2888 0be4 08       		.uleb128 0x8
 2889 0be5 63020000 		.4byte	.LASF367
 2890 0be9 AB03     		.sleb128 427
ARM GAS  C:\Users\Henny\AppData\Local\Temp\ccRrnRtI.s 			page 63


 2891 0beb 08       		.uleb128 0x8
 2892 0bec CB290000 		.4byte	.LASF368
 2893 0bf0 AC03     		.sleb128 428
 2894 0bf2 08       		.uleb128 0x8
 2895 0bf3 7C030000 		.4byte	.LASF369
 2896 0bf7 AD03     		.sleb128 429
 2897 0bf9 08       		.uleb128 0x8
 2898 0bfa CA260000 		.4byte	.LASF370
 2899 0bfe AE03     		.sleb128 430
 2900 0c00 08       		.uleb128 0x8
 2901 0c01 B4080000 		.4byte	.LASF371
 2902 0c05 AF03     		.sleb128 431
 2903 0c07 08       		.uleb128 0x8
 2904 0c08 2F1B0000 		.4byte	.LASF372
 2905 0c0c B003     		.sleb128 432
 2906 0c0e 08       		.uleb128 0x8
 2907 0c0f D92C0000 		.4byte	.LASF373
 2908 0c13 B103     		.sleb128 433
 2909 0c15 08       		.uleb128 0x8
 2910 0c16 08060000 		.4byte	.LASF374
 2911 0c1a B203     		.sleb128 434
 2912 0c1c 08       		.uleb128 0x8
 2913 0c1d 19290000 		.4byte	.LASF375
 2914 0c21 B303     		.sleb128 435
 2915 0c23 08       		.uleb128 0x8
 2916 0c24 35270000 		.4byte	.LASF376
 2917 0c28 B403     		.sleb128 436
 2918 0c2a 08       		.uleb128 0x8
 2919 0c2b 14150000 		.4byte	.LASF377
 2920 0c2f B503     		.sleb128 437
 2921 0c31 08       		.uleb128 0x8
 2922 0c32 FF350000 		.4byte	.LASF378
 2923 0c36 B603     		.sleb128 438
 2924 0c38 08       		.uleb128 0x8
 2925 0c39 B71D0000 		.4byte	.LASF379
 2926 0c3d B703     		.sleb128 439
 2927 0c3f 08       		.uleb128 0x8
 2928 0c40 21260000 		.4byte	.LASF380
 2929 0c44 B803     		.sleb128 440
 2930 0c46 08       		.uleb128 0x8
 2931 0c47 38180000 		.4byte	.LASF381
 2932 0c4b B903     		.sleb128 441
 2933 0c4d 08       		.uleb128 0x8
 2934 0c4e AF2B0000 		.4byte	.LASF382
 2935 0c52 BA03     		.sleb128 442
 2936 0c54 08       		.uleb128 0x8
 2937 0c55 7A190000 		.4byte	.LASF383
 2938 0c59 BB03     		.sleb128 443
 2939 0c5b 08       		.uleb128 0x8
 2940 0c5c 5D180000 		.4byte	.LASF384
 2941 0c60 BC03     		.sleb128 444
 2942 0c62 08       		.uleb128 0x8
 2943 0c63 22060000 		.4byte	.LASF385
 2944 0c67 BD03     		.sleb128 445
 2945 0c69 08       		.uleb128 0x8
 2946 0c6a 5D090000 		.4byte	.LASF386
 2947 0c6e BE03     		.sleb128 446
ARM GAS  C:\Users\Henny\AppData\Local\Temp\ccRrnRtI.s 			page 64


 2948 0c70 08       		.uleb128 0x8
 2949 0c71 BB160000 		.4byte	.LASF387
 2950 0c75 BF03     		.sleb128 447
 2951 0c77 08       		.uleb128 0x8
 2952 0c78 AA2E0000 		.4byte	.LASF388
 2953 0c7c C003     		.sleb128 448
 2954 0c7e 08       		.uleb128 0x8
 2955 0c7f 8A380000 		.4byte	.LASF389
 2956 0c83 C103     		.sleb128 449
 2957 0c85 08       		.uleb128 0x8
 2958 0c86 86170000 		.4byte	.LASF390
 2959 0c8a C203     		.sleb128 450
 2960 0c8c 08       		.uleb128 0x8
 2961 0c8d B10C0000 		.4byte	.LASF391
 2962 0c91 C303     		.sleb128 451
 2963 0c93 08       		.uleb128 0x8
 2964 0c94 4C130000 		.4byte	.LASF392
 2965 0c98 C403     		.sleb128 452
 2966 0c9a 08       		.uleb128 0x8
 2967 0c9b 55250000 		.4byte	.LASF393
 2968 0c9f C503     		.sleb128 453
 2969 0ca1 08       		.uleb128 0x8
 2970 0ca2 E9030000 		.4byte	.LASF394
 2971 0ca6 C603     		.sleb128 454
 2972 0ca8 08       		.uleb128 0x8
 2973 0ca9 7C2D0000 		.4byte	.LASF395
 2974 0cad C703     		.sleb128 455
 2975 0caf 08       		.uleb128 0x8
 2976 0cb0 5F0D0000 		.4byte	.LASF396
 2977 0cb4 C803     		.sleb128 456
 2978 0cb6 08       		.uleb128 0x8
 2979 0cb7 E81A0000 		.4byte	.LASF397
 2980 0cbb C903     		.sleb128 457
 2981 0cbd 08       		.uleb128 0x8
 2982 0cbe BA120000 		.4byte	.LASF398
 2983 0cc2 CA03     		.sleb128 458
 2984 0cc4 08       		.uleb128 0x8
 2985 0cc5 04340000 		.4byte	.LASF399
 2986 0cc9 CB03     		.sleb128 459
 2987 0ccb 08       		.uleb128 0x8
 2988 0ccc 19030000 		.4byte	.LASF400
 2989 0cd0 CC03     		.sleb128 460
 2990 0cd2 08       		.uleb128 0x8
 2991 0cd3 0A010000 		.4byte	.LASF401
 2992 0cd7 CD03     		.sleb128 461
 2993 0cd9 08       		.uleb128 0x8
 2994 0cda F90F0000 		.4byte	.LASF402
 2995 0cde CE03     		.sleb128 462
 2996 0ce0 08       		.uleb128 0x8
 2997 0ce1 090E0000 		.4byte	.LASF403
 2998 0ce5 CF03     		.sleb128 463
 2999 0ce7 08       		.uleb128 0x8
 3000 0ce8 8F210000 		.4byte	.LASF404
 3001 0cec D003     		.sleb128 464
 3002 0cee 08       		.uleb128 0x8
 3003 0cef 17320000 		.4byte	.LASF405
 3004 0cf3 D103     		.sleb128 465
ARM GAS  C:\Users\Henny\AppData\Local\Temp\ccRrnRtI.s 			page 65


 3005 0cf5 08       		.uleb128 0x8
 3006 0cf6 D51E0000 		.4byte	.LASF406
 3007 0cfa D203     		.sleb128 466
 3008 0cfc 08       		.uleb128 0x8
 3009 0cfd 782C0000 		.4byte	.LASF407
 3010 0d01 D303     		.sleb128 467
 3011 0d03 08       		.uleb128 0x8
 3012 0d04 9B0E0000 		.4byte	.LASF408
 3013 0d08 D403     		.sleb128 468
 3014 0d0a 08       		.uleb128 0x8
 3015 0d0b 4D040000 		.4byte	.LASF409
 3016 0d0f D503     		.sleb128 469
 3017 0d11 08       		.uleb128 0x8
 3018 0d12 532C0000 		.4byte	.LASF410
 3019 0d16 D603     		.sleb128 470
 3020 0d18 08       		.uleb128 0x8
 3021 0d19 E00E0000 		.4byte	.LASF411
 3022 0d1d D703     		.sleb128 471
 3023 0d1f 08       		.uleb128 0x8
 3024 0d20 C11B0000 		.4byte	.LASF412
 3025 0d24 D803     		.sleb128 472
 3026 0d26 08       		.uleb128 0x8
 3027 0d27 2F2B0000 		.4byte	.LASF413
 3028 0d2b D903     		.sleb128 473
 3029 0d2d 08       		.uleb128 0x8
 3030 0d2e DE120000 		.4byte	.LASF414
 3031 0d32 DA03     		.sleb128 474
 3032 0d34 08       		.uleb128 0x8
 3033 0d35 0E310000 		.4byte	.LASF415
 3034 0d39 DB03     		.sleb128 475
 3035 0d3b 08       		.uleb128 0x8
 3036 0d3c DB100000 		.4byte	.LASF416
 3037 0d40 DC03     		.sleb128 476
 3038 0d42 08       		.uleb128 0x8
 3039 0d43 97090000 		.4byte	.LASF417
 3040 0d47 DD03     		.sleb128 477
 3041 0d49 08       		.uleb128 0x8
 3042 0d4a A6260000 		.4byte	.LASF418
 3043 0d4e DE03     		.sleb128 478
 3044 0d50 08       		.uleb128 0x8
 3045 0d51 A3150000 		.4byte	.LASF419
 3046 0d55 DF03     		.sleb128 479
 3047 0d57 08       		.uleb128 0x8
 3048 0d58 CB0A0000 		.4byte	.LASF420
 3049 0d5c E003     		.sleb128 480
 3050 0d5e 08       		.uleb128 0x8
 3051 0d5f ED150000 		.4byte	.LASF421
 3052 0d63 E103     		.sleb128 481
 3053 0d65 08       		.uleb128 0x8
 3054 0d66 9A070000 		.4byte	.LASF422
 3055 0d6a E203     		.sleb128 482
 3056 0d6c 08       		.uleb128 0x8
 3057 0d6d 4A200000 		.4byte	.LASF423
 3058 0d71 E303     		.sleb128 483
 3059 0d73 08       		.uleb128 0x8
 3060 0d74 00000000 		.4byte	.LASF424
 3061 0d78 E403     		.sleb128 484
ARM GAS  C:\Users\Henny\AppData\Local\Temp\ccRrnRtI.s 			page 66


 3062 0d7a 08       		.uleb128 0x8
 3063 0d7b 31230000 		.4byte	.LASF425
 3064 0d7f E503     		.sleb128 485
 3065 0d81 08       		.uleb128 0x8
 3066 0d82 8D310000 		.4byte	.LASF426
 3067 0d86 E603     		.sleb128 486
 3068 0d88 08       		.uleb128 0x8
 3069 0d89 04040000 		.4byte	.LASF427
 3070 0d8d E703     		.sleb128 487
 3071 0d8f 08       		.uleb128 0x8
 3072 0d90 522B0000 		.4byte	.LASF428
 3073 0d94 E803     		.sleb128 488
 3074 0d96 08       		.uleb128 0x8
 3075 0d97 651D0000 		.4byte	.LASF429
 3076 0d9b E903     		.sleb128 489
 3077 0d9d 08       		.uleb128 0x8
 3078 0d9e E5110000 		.4byte	.LASF430
 3079 0da2 EA03     		.sleb128 490
 3080 0da4 08       		.uleb128 0x8
 3081 0da5 7A180000 		.4byte	.LASF431
 3082 0da9 EB03     		.sleb128 491
 3083 0dab 08       		.uleb128 0x8
 3084 0dac 9D0D0000 		.4byte	.LASF432
 3085 0db0 EC03     		.sleb128 492
 3086 0db2 08       		.uleb128 0x8
 3087 0db3 37390000 		.4byte	.LASF433
 3088 0db7 ED03     		.sleb128 493
 3089 0db9 08       		.uleb128 0x8
 3090 0dba 96130000 		.4byte	.LASF434
 3091 0dbe EE03     		.sleb128 494
 3092 0dc0 08       		.uleb128 0x8
 3093 0dc1 33010000 		.4byte	.LASF435
 3094 0dc5 EF03     		.sleb128 495
 3095 0dc7 08       		.uleb128 0x8
 3096 0dc8 54230000 		.4byte	.LASF436
 3097 0dcc F003     		.sleb128 496
 3098 0dce 08       		.uleb128 0x8
 3099 0dcf 66200000 		.4byte	.LASF437
 3100 0dd3 F103     		.sleb128 497
 3101 0dd5 08       		.uleb128 0x8
 3102 0dd6 E1140000 		.4byte	.LASF438
 3103 0dda F203     		.sleb128 498
 3104 0ddc 08       		.uleb128 0x8
 3105 0ddd 042E0000 		.4byte	.LASF439
 3106 0de1 F303     		.sleb128 499
 3107 0de3 08       		.uleb128 0x8
 3108 0de4 AF340000 		.4byte	.LASF440
 3109 0de8 F403     		.sleb128 500
 3110 0dea 08       		.uleb128 0x8
 3111 0deb 66010000 		.4byte	.LASF441
 3112 0def F503     		.sleb128 501
 3113 0df1 08       		.uleb128 0x8
 3114 0df2 EE260000 		.4byte	.LASF442
 3115 0df6 F603     		.sleb128 502
 3116 0df8 08       		.uleb128 0x8
 3117 0df9 71100000 		.4byte	.LASF443
 3118 0dfd F703     		.sleb128 503
ARM GAS  C:\Users\Henny\AppData\Local\Temp\ccRrnRtI.s 			page 67


 3119 0dff 08       		.uleb128 0x8
 3120 0e00 43120000 		.4byte	.LASF444
 3121 0e04 F803     		.sleb128 504
 3122 0e06 08       		.uleb128 0x8
 3123 0e07 80370000 		.4byte	.LASF445
 3124 0e0b F903     		.sleb128 505
 3125 0e0d 08       		.uleb128 0x8
 3126 0e0e 7A0D0000 		.4byte	.LASF446
 3127 0e12 FA03     		.sleb128 506
 3128 0e14 08       		.uleb128 0x8
 3129 0e15 FA0B0000 		.4byte	.LASF447
 3130 0e19 FB03     		.sleb128 507
 3131 0e1b 08       		.uleb128 0x8
 3132 0e1c B7240000 		.4byte	.LASF448
 3133 0e20 80C003   		.sleb128 57344
 3134 0e23 00       		.byte	0
 3135 0e24 09       		.uleb128 0x9
 3136 0e25 01       		.byte	0x1
 3137 0e26 0A       		.byte	0xa
 3138 0e27 3707     		.2byte	0x737
 3139 0e29 4C0E0000 		.4byte	0xe4c
 3140 0e2d 08       		.uleb128 0x8
 3141 0e2e 9D0C0000 		.4byte	.LASF449
 3142 0e32 00       		.sleb128 0
 3143 0e33 08       		.uleb128 0x8
 3144 0e34 581A0000 		.4byte	.LASF450
 3145 0e38 01       		.sleb128 1
 3146 0e39 08       		.uleb128 0x8
 3147 0e3a 22360000 		.4byte	.LASF451
 3148 0e3e 02       		.sleb128 2
 3149 0e3f 08       		.uleb128 0x8
 3150 0e40 D6070000 		.4byte	.LASF452
 3151 0e44 03       		.sleb128 3
 3152 0e45 08       		.uleb128 0x8
 3153 0e46 4B2D0000 		.4byte	.LASF453
 3154 0e4a 04       		.sleb128 4
 3155 0e4b 00       		.byte	0
 3156 0e4c 04       		.uleb128 0x4
 3157 0e4d 97270000 		.4byte	.LASF454
 3158 0e51 0A       		.byte	0xa
 3159 0e52 4507     		.2byte	0x745
 3160 0e54 240E0000 		.4byte	0xe24
 3161 0e58 17       		.uleb128 0x17
 3162 0e59 C02A0000 		.4byte	.LASF489
 3163 0e5d 01       		.byte	0x1
 3164 0e5e 5F       		.byte	0x5f
 3165 0e5f 00000000 		.4byte	.LFB2
 3166 0e63 14000000 		.4byte	.LFE2-.LFB2
 3167 0e67 01       		.uleb128 0x1
 3168 0e68 9C       		.byte	0x9c
 3169 0e69 18       		.uleb128 0x18
 3170 0e6a C7230000 		.4byte	.LASF478
 3171 0e6e 01       		.byte	0x1
 3172 0e6f 8C       		.byte	0x8c
 3173 0e70 00000000 		.4byte	.LFB3
 3174 0e74 18000000 		.4byte	.LFE3-.LFB3
 3175 0e78 01       		.uleb128 0x1
ARM GAS  C:\Users\Henny\AppData\Local\Temp\ccRrnRtI.s 			page 68


 3176 0e79 9C       		.byte	0x9c
 3177 0e7a 8D0E0000 		.4byte	0xe8d
 3178 0e7e 19       		.uleb128 0x19
 3179 0e7f 2A0A0000 		.4byte	.LASF455
 3180 0e83 01       		.byte	0x1
 3181 0e84 8C       		.byte	0x8c
 3182 0e85 BA050000 		.4byte	0x5ba
 3183 0e89 02       		.uleb128 0x2
 3184 0e8a 91       		.byte	0x91
 3185 0e8b 74       		.sleb128 -12
 3186 0e8c 00       		.byte	0
 3187 0e8d 1A       		.uleb128 0x1a
 3188 0e8e 86020000 		.4byte	.LASF460
 3189 0e92 01       		.byte	0x1
 3190 0e93 A8       		.byte	0xa8
 3191 0e94 EE020000 		.4byte	0x2ee
 3192 0e98 00000000 		.4byte	.LFB4
 3193 0e9c 88000000 		.4byte	.LFE4-.LFB4
 3194 0ea0 01       		.uleb128 0x1
 3195 0ea1 9C       		.byte	0x9c
 3196 0ea2 ED0E0000 		.4byte	0xeed
 3197 0ea6 19       		.uleb128 0x19
 3198 0ea7 29010000 		.4byte	.LASF194
 3199 0eab 01       		.byte	0x1
 3200 0eac A8       		.byte	0xa8
 3201 0ead 4E060000 		.4byte	0x64e
 3202 0eb1 02       		.uleb128 0x2
 3203 0eb2 91       		.byte	0x91
 3204 0eb3 67       		.sleb128 -25
 3205 0eb4 19       		.uleb128 0x19
 3206 0eb5 0A220000 		.4byte	.LASF456
 3207 0eb9 01       		.byte	0x1
 3208 0eba A9       		.byte	0xa9
 3209 0ebb 6B000000 		.4byte	0x6b
 3210 0ebf 02       		.uleb128 0x2
 3211 0ec0 91       		.byte	0x91
 3212 0ec1 66       		.sleb128 -26
 3213 0ec2 19       		.uleb128 0x19
 3214 0ec3 4E140000 		.4byte	.LASF457
 3215 0ec7 01       		.byte	0x1
 3216 0ec8 A9       		.byte	0xa9
 3217 0ec9 FA020000 		.4byte	0x2fa
 3218 0ecd 02       		.uleb128 0x2
 3219 0ece 91       		.byte	0x91
 3220 0ecf 60       		.sleb128 -32
 3221 0ed0 1B       		.uleb128 0x1b
 3222 0ed1 3D2C0000 		.4byte	.LASF458
 3223 0ed5 01       		.byte	0x1
 3224 0ed6 AB       		.byte	0xab
 3225 0ed7 EE020000 		.4byte	0x2ee
 3226 0edb 02       		.uleb128 0x2
 3227 0edc 91       		.byte	0x91
 3228 0edd 76       		.sleb128 -10
 3229 0ede 1B       		.uleb128 0x1b
 3230 0edf 25180000 		.4byte	.LASF459
 3231 0ee3 01       		.byte	0x1
 3232 0ee4 AC       		.byte	0xac
ARM GAS  C:\Users\Henny\AppData\Local\Temp\ccRrnRtI.s 			page 69


 3233 0ee5 9C040000 		.4byte	0x49c
 3234 0ee9 02       		.uleb128 0x2
 3235 0eea 91       		.byte	0x91
 3236 0eeb 68       		.sleb128 -24
 3237 0eec 00       		.byte	0
 3238 0eed 1A       		.uleb128 0x1a
 3239 0eee B8190000 		.4byte	.LASF461
 3240 0ef2 01       		.byte	0x1
 3241 0ef3 D7       		.byte	0xd7
 3242 0ef4 EE020000 		.4byte	0x2ee
 3243 0ef8 00000000 		.4byte	.LFB5
 3244 0efc 88000000 		.4byte	.LFE5-.LFB5
 3245 0f00 01       		.uleb128 0x1
 3246 0f01 9C       		.byte	0x9c
 3247 0f02 4D0F0000 		.4byte	0xf4d
 3248 0f06 19       		.uleb128 0x19
 3249 0f07 29010000 		.4byte	.LASF194
 3250 0f0b 01       		.byte	0x1
 3251 0f0c D7       		.byte	0xd7
 3252 0f0d 4E060000 		.4byte	0x64e
 3253 0f11 02       		.uleb128 0x2
 3254 0f12 91       		.byte	0x91
 3255 0f13 67       		.sleb128 -25
 3256 0f14 19       		.uleb128 0x19
 3257 0f15 0A220000 		.4byte	.LASF456
 3258 0f19 01       		.byte	0x1
 3259 0f1a D8       		.byte	0xd8
 3260 0f1b 6B000000 		.4byte	0x6b
 3261 0f1f 02       		.uleb128 0x2
 3262 0f20 91       		.byte	0x91
 3263 0f21 66       		.sleb128 -26
 3264 0f22 19       		.uleb128 0x19
 3265 0f23 4E140000 		.4byte	.LASF457
 3266 0f27 01       		.byte	0x1
 3267 0f28 D8       		.byte	0xd8
 3268 0f29 FA020000 		.4byte	0x2fa
 3269 0f2d 02       		.uleb128 0x2
 3270 0f2e 91       		.byte	0x91
 3271 0f2f 60       		.sleb128 -32
 3272 0f30 1B       		.uleb128 0x1b
 3273 0f31 3D2C0000 		.4byte	.LASF458
 3274 0f35 01       		.byte	0x1
 3275 0f36 DA       		.byte	0xda
 3276 0f37 EE020000 		.4byte	0x2ee
 3277 0f3b 02       		.uleb128 0x2
 3278 0f3c 91       		.byte	0x91
 3279 0f3d 76       		.sleb128 -10
 3280 0f3e 1B       		.uleb128 0x1b
 3281 0f3f 25180000 		.4byte	.LASF459
 3282 0f43 01       		.byte	0x1
 3283 0f44 DB       		.byte	0xdb
 3284 0f45 9C040000 		.4byte	0x49c
 3285 0f49 02       		.uleb128 0x2
 3286 0f4a 91       		.byte	0x91
 3287 0f4b 68       		.sleb128 -24
 3288 0f4c 00       		.byte	0
 3289 0f4d 1C       		.uleb128 0x1c
ARM GAS  C:\Users\Henny\AppData\Local\Temp\ccRrnRtI.s 			page 70


 3290 0f4e 70130000 		.4byte	.LASF462
 3291 0f52 01       		.byte	0x1
 3292 0f53 0601     		.2byte	0x106
 3293 0f55 EE020000 		.4byte	0x2ee
 3294 0f59 00000000 		.4byte	.LFB6
 3295 0f5d B8000000 		.4byte	.LFE6-.LFB6
 3296 0f61 01       		.uleb128 0x1
 3297 0f62 9C       		.byte	0x9c
 3298 0f63 C20F0000 		.4byte	0xfc2
 3299 0f67 1D       		.uleb128 0x1d
 3300 0f68 29010000 		.4byte	.LASF194
 3301 0f6c 01       		.byte	0x1
 3302 0f6d 0601     		.2byte	0x106
 3303 0f6f 4E060000 		.4byte	0x64e
 3304 0f73 02       		.uleb128 0x2
 3305 0f74 91       		.byte	0x91
 3306 0f75 5F       		.sleb128 -33
 3307 0f76 1D       		.uleb128 0x1d
 3308 0f77 34200000 		.4byte	.LASF463
 3309 0f7b 01       		.byte	0x1
 3310 0f7c 0701     		.2byte	0x107
 3311 0f7e 74060000 		.4byte	0x674
 3312 0f82 02       		.uleb128 0x2
 3313 0f83 91       		.byte	0x91
 3314 0f84 5E       		.sleb128 -34
 3315 0f85 1D       		.uleb128 0x1d
 3316 0f86 0A220000 		.4byte	.LASF456
 3317 0f8a 01       		.byte	0x1
 3318 0f8b 0701     		.2byte	0x107
 3319 0f8d 6B000000 		.4byte	0x6b
 3320 0f91 02       		.uleb128 0x2
 3321 0f92 91       		.byte	0x91
 3322 0f93 5D       		.sleb128 -35
 3323 0f94 1D       		.uleb128 0x1d
 3324 0f95 4E140000 		.4byte	.LASF457
 3325 0f99 01       		.byte	0x1
 3326 0f9a 0701     		.2byte	0x107
 3327 0f9c FA020000 		.4byte	0x2fa
 3328 0fa0 02       		.uleb128 0x2
 3329 0fa1 91       		.byte	0x91
 3330 0fa2 58       		.sleb128 -40
 3331 0fa3 1E       		.uleb128 0x1e
 3332 0fa4 3D2C0000 		.4byte	.LASF458
 3333 0fa8 01       		.byte	0x1
 3334 0fa9 0901     		.2byte	0x109
 3335 0fab EE020000 		.4byte	0x2ee
 3336 0faf 02       		.uleb128 0x2
 3337 0fb0 91       		.byte	0x91
 3338 0fb1 6E       		.sleb128 -18
 3339 0fb2 1E       		.uleb128 0x1e
 3340 0fb3 25180000 		.4byte	.LASF459
 3341 0fb7 01       		.byte	0x1
 3342 0fb8 0A01     		.2byte	0x10a
 3343 0fba 9C040000 		.4byte	0x49c
 3344 0fbe 02       		.uleb128 0x2
 3345 0fbf 91       		.byte	0x91
 3346 0fc0 60       		.sleb128 -32
ARM GAS  C:\Users\Henny\AppData\Local\Temp\ccRrnRtI.s 			page 71


 3347 0fc1 00       		.byte	0
 3348 0fc2 1C       		.uleb128 0x1c
 3349 0fc3 E41F0000 		.4byte	.LASF464
 3350 0fc7 01       		.byte	0x1
 3351 0fc8 3B01     		.2byte	0x13b
 3352 0fca EE020000 		.4byte	0x2ee
 3353 0fce 00000000 		.4byte	.LFB7
 3354 0fd2 B4000000 		.4byte	.LFE7-.LFB7
 3355 0fd6 01       		.uleb128 0x1
 3356 0fd7 9C       		.byte	0x9c
 3357 0fd8 37100000 		.4byte	0x1037
 3358 0fdc 1D       		.uleb128 0x1d
 3359 0fdd 29010000 		.4byte	.LASF194
 3360 0fe1 01       		.byte	0x1
 3361 0fe2 3B01     		.2byte	0x13b
 3362 0fe4 4E060000 		.4byte	0x64e
 3363 0fe8 02       		.uleb128 0x2
 3364 0fe9 91       		.byte	0x91
 3365 0fea 5F       		.sleb128 -33
 3366 0feb 1D       		.uleb128 0x1d
 3367 0fec 34200000 		.4byte	.LASF463
 3368 0ff0 01       		.byte	0x1
 3369 0ff1 3C01     		.2byte	0x13c
 3370 0ff3 74060000 		.4byte	0x674
 3371 0ff7 02       		.uleb128 0x2
 3372 0ff8 91       		.byte	0x91
 3373 0ff9 5E       		.sleb128 -34
 3374 0ffa 1D       		.uleb128 0x1d
 3375 0ffb 0A220000 		.4byte	.LASF456
 3376 0fff 01       		.byte	0x1
 3377 1000 3C01     		.2byte	0x13c
 3378 1002 6B000000 		.4byte	0x6b
 3379 1006 02       		.uleb128 0x2
 3380 1007 91       		.byte	0x91
 3381 1008 5D       		.sleb128 -35
 3382 1009 1D       		.uleb128 0x1d
 3383 100a 4E140000 		.4byte	.LASF457
 3384 100e 01       		.byte	0x1
 3385 100f 3C01     		.2byte	0x13c
 3386 1011 FA020000 		.4byte	0x2fa
 3387 1015 02       		.uleb128 0x2
 3388 1016 91       		.byte	0x91
 3389 1017 58       		.sleb128 -40
 3390 1018 1E       		.uleb128 0x1e
 3391 1019 3D2C0000 		.4byte	.LASF458
 3392 101d 01       		.byte	0x1
 3393 101e 3E01     		.2byte	0x13e
 3394 1020 EE020000 		.4byte	0x2ee
 3395 1024 02       		.uleb128 0x2
 3396 1025 91       		.byte	0x91
 3397 1026 6E       		.sleb128 -18
 3398 1027 1E       		.uleb128 0x1e
 3399 1028 25180000 		.4byte	.LASF459
 3400 102c 01       		.byte	0x1
 3401 102d 3F01     		.2byte	0x13f
 3402 102f 9C040000 		.4byte	0x49c
 3403 1033 02       		.uleb128 0x2
ARM GAS  C:\Users\Henny\AppData\Local\Temp\ccRrnRtI.s 			page 72


 3404 1034 91       		.byte	0x91
 3405 1035 60       		.sleb128 -32
 3406 1036 00       		.byte	0
 3407 1037 1C       		.uleb128 0x1c
 3408 1038 C81F0000 		.4byte	.LASF465
 3409 103c 01       		.byte	0x1
 3410 103d 6801     		.2byte	0x168
 3411 103f F3030000 		.4byte	0x3f3
 3412 1043 00000000 		.4byte	.LFB8
 3413 1047 EC020000 		.4byte	.LFE8-.LFB8
 3414 104b 01       		.uleb128 0x1
 3415 104c 9C       		.byte	0x9c
 3416 104d ED100000 		.4byte	0x10ed
 3417 1051 1D       		.uleb128 0x1d
 3418 1052 17020000 		.4byte	.LASF466
 3419 1056 01       		.byte	0x1
 3420 1057 6801     		.2byte	0x168
 3421 1059 ED100000 		.4byte	0x10ed
 3422 105d 02       		.uleb128 0x2
 3423 105e 91       		.byte	0x91
 3424 105f 54       		.sleb128 -44
 3425 1060 1E       		.uleb128 0x1e
 3426 1061 99260000 		.4byte	.LASF467
 3427 1065 01       		.byte	0x1
 3428 1066 6A01     		.2byte	0x16a
 3429 1068 4E060000 		.4byte	0x64e
 3430 106c 02       		.uleb128 0x2
 3431 106d 91       		.byte	0x91
 3432 106e 6F       		.sleb128 -17
 3433 106f 1E       		.uleb128 0x1e
 3434 1070 690C0000 		.4byte	.LASF468
 3435 1074 01       		.byte	0x1
 3436 1075 6B01     		.2byte	0x16b
 3437 1077 24070000 		.4byte	0x724
 3438 107b 02       		.uleb128 0x2
 3439 107c 91       		.byte	0x91
 3440 107d 5C       		.sleb128 -36
 3441 107e 1E       		.uleb128 0x1e
 3442 107f 2D350000 		.4byte	.LASF469
 3443 1083 01       		.byte	0x1
 3444 1084 6C01     		.2byte	0x16c
 3445 1086 F3030000 		.4byte	0x3f3
 3446 108a 02       		.uleb128 0x2
 3447 108b 91       		.byte	0x91
 3448 108c 6E       		.sleb128 -18
 3449 108d 1E       		.uleb128 0x1e
 3450 108e 48250000 		.4byte	.LASF470
 3451 1092 01       		.byte	0x1
 3452 1093 6D01     		.2byte	0x16d
 3453 1095 6B000000 		.4byte	0x6b
 3454 1099 02       		.uleb128 0x2
 3455 109a 91       		.byte	0x91
 3456 109b 6D       		.sleb128 -19
 3457 109c 1F       		.uleb128 0x1f
 3458 109d AE000000 		.4byte	.LBB2
 3459 10a1 9E000000 		.4byte	.LBE2-.LBB2
 3460 10a5 1E       		.uleb128 0x1e
ARM GAS  C:\Users\Henny\AppData\Local\Temp\ccRrnRtI.s 			page 73


 3461 10a6 7D250000 		.4byte	.LASF471
 3462 10aa 01       		.byte	0x1
 3463 10ab 8101     		.2byte	0x181
 3464 10ad F3100000 		.4byte	0x10f3
 3465 10b1 02       		.uleb128 0x2
 3466 10b2 91       		.byte	0x91
 3467 10b3 58       		.sleb128 -40
 3468 10b4 1E       		.uleb128 0x1e
 3469 10b5 C50E0000 		.4byte	.LASF472
 3470 10b9 01       		.byte	0x1
 3471 10ba 8201     		.2byte	0x182
 3472 10bc 77000000 		.4byte	0x77
 3473 10c0 02       		.uleb128 0x2
 3474 10c1 91       		.byte	0x91
 3475 10c2 6A       		.sleb128 -22
 3476 10c3 1F       		.uleb128 0x1f
 3477 10c4 E2000000 		.4byte	.LBB3
 3478 10c8 6A000000 		.4byte	.LBE3-.LBB3
 3479 10cc 1E       		.uleb128 0x1e
 3480 10cd C71C0000 		.4byte	.LASF473
 3481 10d1 01       		.byte	0x1
 3482 10d2 8C01     		.2byte	0x18c
 3483 10d4 77000000 		.4byte	0x77
 3484 10d8 02       		.uleb128 0x2
 3485 10d9 91       		.byte	0x91
 3486 10da 68       		.sleb128 -24
 3487 10db 1E       		.uleb128 0x1e
 3488 10dc 80000000 		.4byte	.LASF474
 3489 10e0 01       		.byte	0x1
 3490 10e1 8D01     		.2byte	0x18d
 3491 10e3 77000000 		.4byte	0x77
 3492 10e7 02       		.uleb128 0x2
 3493 10e8 91       		.byte	0x91
 3494 10e9 66       		.sleb128 -26
 3495 10ea 00       		.byte	0
 3496 10eb 00       		.byte	0
 3497 10ec 00       		.byte	0
 3498 10ed 0A       		.uleb128 0xa
 3499 10ee 04       		.byte	0x4
 3500 10ef D4040000 		.4byte	0x4d4
 3501 10f3 15       		.uleb128 0x15
 3502 10f4 6B000000 		.4byte	0x6b
 3503 10f8 03110000 		.4byte	0x1103
 3504 10fc 16       		.uleb128 0x16
 3505 10fd A9000000 		.4byte	0xa9
 3506 1101 03       		.byte	0x3
 3507 1102 00       		.byte	0
 3508 1103 1C       		.uleb128 0x1c
 3509 1104 D7020000 		.4byte	.LASF475
 3510 1108 01       		.byte	0x1
 3511 1109 F001     		.2byte	0x1f0
 3512 110b EE020000 		.4byte	0x2ee
 3513 110f 00000000 		.4byte	.LFB9
 3514 1113 E0000000 		.4byte	.LFE9-.LFB9
 3515 1117 01       		.uleb128 0x1
 3516 1118 9C       		.byte	0x9c
 3517 1119 82110000 		.4byte	0x1182
ARM GAS  C:\Users\Henny\AppData\Local\Temp\ccRrnRtI.s 			page 74


 3518 111d 1D       		.uleb128 0x1d
 3519 111e B52A0000 		.4byte	.LASF149
 3520 1122 01       		.byte	0x1
 3521 1123 F001     		.2byte	0x1f0
 3522 1125 2F040000 		.4byte	0x42f
 3523 1129 02       		.uleb128 0x2
 3524 112a 91       		.byte	0x91
 3525 112b 5C       		.sleb128 -36
 3526 112c 1D       		.uleb128 0x1d
 3527 112d 29010000 		.4byte	.LASF194
 3528 1131 01       		.byte	0x1
 3529 1132 F101     		.2byte	0x1f1
 3530 1134 4E060000 		.4byte	0x64e
 3531 1138 02       		.uleb128 0x2
 3532 1139 91       		.byte	0x91
 3533 113a 5B       		.sleb128 -37
 3534 113b 1D       		.uleb128 0x1d
 3535 113c 0A220000 		.4byte	.LASF456
 3536 1140 01       		.byte	0x1
 3537 1141 F101     		.2byte	0x1f1
 3538 1143 6B000000 		.4byte	0x6b
 3539 1147 02       		.uleb128 0x2
 3540 1148 91       		.byte	0x91
 3541 1149 5A       		.sleb128 -38
 3542 114a 1D       		.uleb128 0x1d
 3543 114b 4E140000 		.4byte	.LASF457
 3544 114f 01       		.byte	0x1
 3545 1150 F101     		.2byte	0x1f1
 3546 1152 FA020000 		.4byte	0x2fa
 3547 1156 02       		.uleb128 0x2
 3548 1157 91       		.byte	0x91
 3549 1158 54       		.sleb128 -44
 3550 1159 1E       		.uleb128 0x1e
 3551 115a 3D2C0000 		.4byte	.LASF458
 3552 115e 01       		.byte	0x1
 3553 115f F401     		.2byte	0x1f4
 3554 1161 EE020000 		.4byte	0x2ee
 3555 1165 02       		.uleb128 0x2
 3556 1166 91       		.byte	0x91
 3557 1167 6E       		.sleb128 -18
 3558 1168 1F       		.uleb128 0x1f
 3559 1169 7E000000 		.4byte	.LBB4
 3560 116d 48000000 		.4byte	.LBE4-.LBB4
 3561 1171 1E       		.uleb128 0x1e
 3562 1172 A3340000 		.4byte	.LASF476
 3563 1176 01       		.byte	0x1
 3564 1177 0102     		.2byte	0x201
 3565 1179 A8040000 		.4byte	0x4a8
 3566 117d 02       		.uleb128 0x2
 3567 117e 91       		.byte	0x91
 3568 117f 60       		.sleb128 -32
 3569 1180 00       		.byte	0
 3570 1181 00       		.byte	0
 3571 1182 1C       		.uleb128 0x1c
 3572 1183 C02C0000 		.4byte	.LASF477
 3573 1187 01       		.byte	0x1
 3574 1188 3302     		.2byte	0x233
ARM GAS  C:\Users\Henny\AppData\Local\Temp\ccRrnRtI.s 			page 75


 3575 118a EE020000 		.4byte	0x2ee
 3576 118e 00000000 		.4byte	.LFB10
 3577 1192 F8000000 		.4byte	.LFE10-.LFB10
 3578 1196 01       		.uleb128 0x1
 3579 1197 9C       		.byte	0x9c
 3580 1198 01120000 		.4byte	0x1201
 3581 119c 1D       		.uleb128 0x1d
 3582 119d B52A0000 		.4byte	.LASF149
 3583 11a1 01       		.byte	0x1
 3584 11a2 3302     		.2byte	0x233
 3585 11a4 2F040000 		.4byte	0x42f
 3586 11a8 02       		.uleb128 0x2
 3587 11a9 91       		.byte	0x91
 3588 11aa 5C       		.sleb128 -36
 3589 11ab 1D       		.uleb128 0x1d
 3590 11ac 29010000 		.4byte	.LASF194
 3591 11b0 01       		.byte	0x1
 3592 11b1 3402     		.2byte	0x234
 3593 11b3 4E060000 		.4byte	0x64e
 3594 11b7 02       		.uleb128 0x2
 3595 11b8 91       		.byte	0x91
 3596 11b9 5B       		.sleb128 -37
 3597 11ba 1D       		.uleb128 0x1d
 3598 11bb 0A220000 		.4byte	.LASF456
 3599 11bf 01       		.byte	0x1
 3600 11c0 3402     		.2byte	0x234
 3601 11c2 6B000000 		.4byte	0x6b
 3602 11c6 02       		.uleb128 0x2
 3603 11c7 91       		.byte	0x91
 3604 11c8 5A       		.sleb128 -38
 3605 11c9 1D       		.uleb128 0x1d
 3606 11ca 4E140000 		.4byte	.LASF457
 3607 11ce 01       		.byte	0x1
 3608 11cf 3402     		.2byte	0x234
 3609 11d1 FA020000 		.4byte	0x2fa
 3610 11d5 02       		.uleb128 0x2
 3611 11d6 91       		.byte	0x91
 3612 11d7 54       		.sleb128 -44
 3613 11d8 1E       		.uleb128 0x1e
 3614 11d9 3D2C0000 		.4byte	.LASF458
 3615 11dd 01       		.byte	0x1
 3616 11de 3602     		.2byte	0x236
 3617 11e0 EE020000 		.4byte	0x2ee
 3618 11e4 02       		.uleb128 0x2
 3619 11e5 91       		.byte	0x91
 3620 11e6 6E       		.sleb128 -18
 3621 11e7 1F       		.uleb128 0x1f
 3622 11e8 7E000000 		.4byte	.LBB5
 3623 11ec 5C000000 		.4byte	.LBE5-.LBB5
 3624 11f0 1E       		.uleb128 0x1e
 3625 11f1 A3340000 		.4byte	.LASF476
 3626 11f5 01       		.byte	0x1
 3627 11f6 4302     		.2byte	0x243
 3628 11f8 A8040000 		.4byte	0x4a8
 3629 11fc 02       		.uleb128 0x2
 3630 11fd 91       		.byte	0x91
 3631 11fe 60       		.sleb128 -32
ARM GAS  C:\Users\Henny\AppData\Local\Temp\ccRrnRtI.s 			page 76


 3632 11ff 00       		.byte	0
 3633 1200 00       		.byte	0
 3634 1201 20       		.uleb128 0x20
 3635 1202 7C160000 		.4byte	.LASF479
 3636 1206 01       		.byte	0x1
 3637 1207 6202     		.2byte	0x262
 3638 1209 00000000 		.4byte	.LFB11
 3639 120d D8000000 		.4byte	.LFE11-.LFB11
 3640 1211 01       		.uleb128 0x1
 3641 1212 9C       		.byte	0x9c
 3642 1213 54120000 		.4byte	0x1254
 3643 1217 1D       		.uleb128 0x1d
 3644 1218 17020000 		.4byte	.LASF466
 3645 121c 01       		.byte	0x1
 3646 121d 6202     		.2byte	0x262
 3647 121f 54120000 		.4byte	0x1254
 3648 1223 02       		.uleb128 0x2
 3649 1224 91       		.byte	0x91
 3650 1225 64       		.sleb128 -28
 3651 1226 1E       		.uleb128 0x1e
 3652 1227 99260000 		.4byte	.LASF467
 3653 122b 01       		.byte	0x1
 3654 122c 6402     		.2byte	0x264
 3655 122e 4E060000 		.4byte	0x64e
 3656 1232 02       		.uleb128 0x2
 3657 1233 91       		.byte	0x91
 3658 1234 77       		.sleb128 -9
 3659 1235 1E       		.uleb128 0x1e
 3660 1236 690C0000 		.4byte	.LASF468
 3661 123a 01       		.byte	0x1
 3662 123b 6502     		.2byte	0x265
 3663 123d 24070000 		.4byte	0x724
 3664 1241 02       		.uleb128 0x2
 3665 1242 91       		.byte	0x91
 3666 1243 6C       		.sleb128 -20
 3667 1244 1E       		.uleb128 0x1e
 3668 1245 48250000 		.4byte	.LASF470
 3669 1249 01       		.byte	0x1
 3670 124a 6602     		.2byte	0x266
 3671 124c 6B000000 		.4byte	0x6b
 3672 1250 02       		.uleb128 0x2
 3673 1251 91       		.byte	0x91
 3674 1252 76       		.sleb128 -10
 3675 1253 00       		.byte	0
 3676 1254 0A       		.uleb128 0xa
 3677 1255 04       		.byte	0x4
 3678 1256 5A120000 		.4byte	0x125a
 3679 125a 21       		.uleb128 0x21
 3680 125b 2F040000 		.4byte	0x42f
 3681 125f 1B       		.uleb128 0x1b
 3682 1260 50010000 		.4byte	.LASF480
 3683 1264 01       		.byte	0x1
 3684 1265 13       		.byte	0x13
 3685 1266 BA050000 		.4byte	0x5ba
 3686 126a 05       		.uleb128 0x5
 3687 126b 03       		.byte	0x3
 3688 126c 00000000 		.4byte	CyBle_HtsApplCallback
ARM GAS  C:\Users\Henny\AppData\Local\Temp\ccRrnRtI.s 			page 77


 3689 1270 1B       		.uleb128 0x1b
 3690 1271 A12A0000 		.4byte	.LASF481
 3691 1275 01       		.byte	0x1
 3692 1276 49       		.byte	0x49
 3693 1277 FF030000 		.4byte	0x3ff
 3694 127b 05       		.uleb128 0x5
 3695 127c 03       		.byte	0x3
 3696 127d 04000000 		.4byte	cyBle_htssReqHandle
 3697 1281 22       		.uleb128 0x22
 3698 1282 86320000 		.4byte	.LASF482
 3699 1286 07       		.byte	0x7
 3700 1287 D301     		.2byte	0x1d3
 3701 1289 A4000000 		.4byte	0xa4
 3702 128d 15       		.uleb128 0x15
 3703 128e AE050000 		.4byte	0x5ae
 3704 1292 9D120000 		.4byte	0x129d
 3705 1296 16       		.uleb128 0x16
 3706 1297 A9000000 		.4byte	0xa9
 3707 129b 1F       		.byte	0x1f
 3708 129c 00       		.byte	0
 3709 129d 23       		.uleb128 0x23
 3710 129e 491E0000 		.4byte	.LASF483
 3711 12a2 0B       		.byte	0xb
 3712 12a3 E2       		.byte	0xe2
 3713 12a4 A8120000 		.4byte	0x12a8
 3714 12a8 21       		.uleb128 0x21
 3715 12a9 8D120000 		.4byte	0x128d
 3716 12ad 24       		.uleb128 0x24
 3717 12ae 002B0000 		.4byte	.LASF484
 3718 12b2 01       		.byte	0x1
 3719 12b3 17       		.byte	0x17
 3720 12b4 BE120000 		.4byte	0x12be
 3721 12b8 05       		.uleb128 0x5
 3722 12b9 03       		.byte	0x3
 3723 12ba 00000000 		.4byte	cyBle_htss
 3724 12be 21       		.uleb128 0x21
 3725 12bf EC060000 		.4byte	0x6ec
 3726 12c3 22       		.uleb128 0x22
 3727 12c4 472C0000 		.4byte	.LASF485
 3728 12c8 0A       		.byte	0xa
 3729 12c9 2C09     		.2byte	0x92c
 3730 12cb 4C0E0000 		.4byte	0xe4c
 3731 12cf 00       		.byte	0
 3732              		.section	.debug_abbrev,"",%progbits
 3733              	.Ldebug_abbrev0:
 3734 0000 01       		.uleb128 0x1
 3735 0001 11       		.uleb128 0x11
 3736 0002 01       		.byte	0x1
 3737 0003 25       		.uleb128 0x25
 3738 0004 0E       		.uleb128 0xe
 3739 0005 13       		.uleb128 0x13
 3740 0006 0B       		.uleb128 0xb
 3741 0007 03       		.uleb128 0x3
 3742 0008 0E       		.uleb128 0xe
 3743 0009 1B       		.uleb128 0x1b
 3744 000a 0E       		.uleb128 0xe
 3745 000b 55       		.uleb128 0x55
ARM GAS  C:\Users\Henny\AppData\Local\Temp\ccRrnRtI.s 			page 78


 3746 000c 17       		.uleb128 0x17
 3747 000d 11       		.uleb128 0x11
 3748 000e 01       		.uleb128 0x1
 3749 000f 10       		.uleb128 0x10
 3750 0010 17       		.uleb128 0x17
 3751 0011 00       		.byte	0
 3752 0012 00       		.byte	0
 3753 0013 02       		.uleb128 0x2
 3754 0014 24       		.uleb128 0x24
 3755 0015 00       		.byte	0
 3756 0016 0B       		.uleb128 0xb
 3757 0017 0B       		.uleb128 0xb
 3758 0018 3E       		.uleb128 0x3e
 3759 0019 0B       		.uleb128 0xb
 3760 001a 03       		.uleb128 0x3
 3761 001b 0E       		.uleb128 0xe
 3762 001c 00       		.byte	0
 3763 001d 00       		.byte	0
 3764 001e 03       		.uleb128 0x3
 3765 001f 24       		.uleb128 0x24
 3766 0020 00       		.byte	0
 3767 0021 0B       		.uleb128 0xb
 3768 0022 0B       		.uleb128 0xb
 3769 0023 3E       		.uleb128 0x3e
 3770 0024 0B       		.uleb128 0xb
 3771 0025 03       		.uleb128 0x3
 3772 0026 08       		.uleb128 0x8
 3773 0027 00       		.byte	0
 3774 0028 00       		.byte	0
 3775 0029 04       		.uleb128 0x4
 3776 002a 16       		.uleb128 0x16
 3777 002b 00       		.byte	0
 3778 002c 03       		.uleb128 0x3
 3779 002d 0E       		.uleb128 0xe
 3780 002e 3A       		.uleb128 0x3a
 3781 002f 0B       		.uleb128 0xb
 3782 0030 3B       		.uleb128 0x3b
 3783 0031 05       		.uleb128 0x5
 3784 0032 49       		.uleb128 0x49
 3785 0033 13       		.uleb128 0x13
 3786 0034 00       		.byte	0
 3787 0035 00       		.byte	0
 3788 0036 05       		.uleb128 0x5
 3789 0037 35       		.uleb128 0x35
 3790 0038 00       		.byte	0
 3791 0039 49       		.uleb128 0x49
 3792 003a 13       		.uleb128 0x13
 3793 003b 00       		.byte	0
 3794 003c 00       		.byte	0
 3795 003d 06       		.uleb128 0x6
 3796 003e 0F       		.uleb128 0xf
 3797 003f 00       		.byte	0
 3798 0040 0B       		.uleb128 0xb
 3799 0041 0B       		.uleb128 0xb
 3800 0042 00       		.byte	0
 3801 0043 00       		.byte	0
 3802 0044 07       		.uleb128 0x7
ARM GAS  C:\Users\Henny\AppData\Local\Temp\ccRrnRtI.s 			page 79


 3803 0045 04       		.uleb128 0x4
 3804 0046 01       		.byte	0x1
 3805 0047 0B       		.uleb128 0xb
 3806 0048 0B       		.uleb128 0xb
 3807 0049 3A       		.uleb128 0x3a
 3808 004a 0B       		.uleb128 0xb
 3809 004b 3B       		.uleb128 0x3b
 3810 004c 0B       		.uleb128 0xb
 3811 004d 01       		.uleb128 0x1
 3812 004e 13       		.uleb128 0x13
 3813 004f 00       		.byte	0
 3814 0050 00       		.byte	0
 3815 0051 08       		.uleb128 0x8
 3816 0052 28       		.uleb128 0x28
 3817 0053 00       		.byte	0
 3818 0054 03       		.uleb128 0x3
 3819 0055 0E       		.uleb128 0xe
 3820 0056 1C       		.uleb128 0x1c
 3821 0057 0D       		.uleb128 0xd
 3822 0058 00       		.byte	0
 3823 0059 00       		.byte	0
 3824 005a 09       		.uleb128 0x9
 3825 005b 04       		.uleb128 0x4
 3826 005c 01       		.byte	0x1
 3827 005d 0B       		.uleb128 0xb
 3828 005e 0B       		.uleb128 0xb
 3829 005f 3A       		.uleb128 0x3a
 3830 0060 0B       		.uleb128 0xb
 3831 0061 3B       		.uleb128 0x3b
 3832 0062 05       		.uleb128 0x5
 3833 0063 01       		.uleb128 0x1
 3834 0064 13       		.uleb128 0x13
 3835 0065 00       		.byte	0
 3836 0066 00       		.byte	0
 3837 0067 0A       		.uleb128 0xa
 3838 0068 0F       		.uleb128 0xf
 3839 0069 00       		.byte	0
 3840 006a 0B       		.uleb128 0xb
 3841 006b 0B       		.uleb128 0xb
 3842 006c 49       		.uleb128 0x49
 3843 006d 13       		.uleb128 0x13
 3844 006e 00       		.byte	0
 3845 006f 00       		.byte	0
 3846 0070 0B       		.uleb128 0xb
 3847 0071 13       		.uleb128 0x13
 3848 0072 01       		.byte	0x1
 3849 0073 0B       		.uleb128 0xb
 3850 0074 0B       		.uleb128 0xb
 3851 0075 3A       		.uleb128 0x3a
 3852 0076 0B       		.uleb128 0xb
 3853 0077 3B       		.uleb128 0x3b
 3854 0078 05       		.uleb128 0x5
 3855 0079 01       		.uleb128 0x1
 3856 007a 13       		.uleb128 0x13
 3857 007b 00       		.byte	0
 3858 007c 00       		.byte	0
 3859 007d 0C       		.uleb128 0xc
ARM GAS  C:\Users\Henny\AppData\Local\Temp\ccRrnRtI.s 			page 80


 3860 007e 0D       		.uleb128 0xd
 3861 007f 00       		.byte	0
 3862 0080 03       		.uleb128 0x3
 3863 0081 0E       		.uleb128 0xe
 3864 0082 3A       		.uleb128 0x3a
 3865 0083 0B       		.uleb128 0xb
 3866 0084 3B       		.uleb128 0x3b
 3867 0085 05       		.uleb128 0x5
 3868 0086 49       		.uleb128 0x49
 3869 0087 13       		.uleb128 0x13
 3870 0088 38       		.uleb128 0x38
 3871 0089 0B       		.uleb128 0xb
 3872 008a 00       		.byte	0
 3873 008b 00       		.byte	0
 3874 008c 0D       		.uleb128 0xd
 3875 008d 0D       		.uleb128 0xd
 3876 008e 00       		.byte	0
 3877 008f 03       		.uleb128 0x3
 3878 0090 08       		.uleb128 0x8
 3879 0091 3A       		.uleb128 0x3a
 3880 0092 0B       		.uleb128 0xb
 3881 0093 3B       		.uleb128 0x3b
 3882 0094 05       		.uleb128 0x5
 3883 0095 49       		.uleb128 0x49
 3884 0096 13       		.uleb128 0x13
 3885 0097 38       		.uleb128 0x38
 3886 0098 0B       		.uleb128 0xb
 3887 0099 00       		.byte	0
 3888 009a 00       		.byte	0
 3889 009b 0E       		.uleb128 0xe
 3890 009c 16       		.uleb128 0x16
 3891 009d 00       		.byte	0
 3892 009e 03       		.uleb128 0x3
 3893 009f 0E       		.uleb128 0xe
 3894 00a0 3A       		.uleb128 0x3a
 3895 00a1 0B       		.uleb128 0xb
 3896 00a2 3B       		.uleb128 0x3b
 3897 00a3 0B       		.uleb128 0xb
 3898 00a4 49       		.uleb128 0x49
 3899 00a5 13       		.uleb128 0x13
 3900 00a6 00       		.byte	0
 3901 00a7 00       		.byte	0
 3902 00a8 0F       		.uleb128 0xf
 3903 00a9 13       		.uleb128 0x13
 3904 00aa 01       		.byte	0x1
 3905 00ab 0B       		.uleb128 0xb
 3906 00ac 0B       		.uleb128 0xb
 3907 00ad 3A       		.uleb128 0x3a
 3908 00ae 0B       		.uleb128 0xb
 3909 00af 3B       		.uleb128 0x3b
 3910 00b0 0B       		.uleb128 0xb
 3911 00b1 01       		.uleb128 0x1
 3912 00b2 13       		.uleb128 0x13
 3913 00b3 00       		.byte	0
 3914 00b4 00       		.byte	0
 3915 00b5 10       		.uleb128 0x10
 3916 00b6 0D       		.uleb128 0xd
ARM GAS  C:\Users\Henny\AppData\Local\Temp\ccRrnRtI.s 			page 81


 3917 00b7 00       		.byte	0
 3918 00b8 03       		.uleb128 0x3
 3919 00b9 0E       		.uleb128 0xe
 3920 00ba 3A       		.uleb128 0x3a
 3921 00bb 0B       		.uleb128 0xb
 3922 00bc 3B       		.uleb128 0x3b
 3923 00bd 0B       		.uleb128 0xb
 3924 00be 49       		.uleb128 0x49
 3925 00bf 13       		.uleb128 0x13
 3926 00c0 38       		.uleb128 0x38
 3927 00c1 0B       		.uleb128 0xb
 3928 00c2 00       		.byte	0
 3929 00c3 00       		.byte	0
 3930 00c4 11       		.uleb128 0x11
 3931 00c5 17       		.uleb128 0x17
 3932 00c6 01       		.byte	0x1
 3933 00c7 0B       		.uleb128 0xb
 3934 00c8 0B       		.uleb128 0xb
 3935 00c9 3A       		.uleb128 0x3a
 3936 00ca 0B       		.uleb128 0xb
 3937 00cb 3B       		.uleb128 0x3b
 3938 00cc 0B       		.uleb128 0xb
 3939 00cd 01       		.uleb128 0x1
 3940 00ce 13       		.uleb128 0x13
 3941 00cf 00       		.byte	0
 3942 00d0 00       		.byte	0
 3943 00d1 12       		.uleb128 0x12
 3944 00d2 0D       		.uleb128 0xd
 3945 00d3 00       		.byte	0
 3946 00d4 03       		.uleb128 0x3
 3947 00d5 0E       		.uleb128 0xe
 3948 00d6 3A       		.uleb128 0x3a
 3949 00d7 0B       		.uleb128 0xb
 3950 00d8 3B       		.uleb128 0x3b
 3951 00d9 0B       		.uleb128 0xb
 3952 00da 49       		.uleb128 0x49
 3953 00db 13       		.uleb128 0x13
 3954 00dc 00       		.byte	0
 3955 00dd 00       		.byte	0
 3956 00de 13       		.uleb128 0x13
 3957 00df 15       		.uleb128 0x15
 3958 00e0 01       		.byte	0x1
 3959 00e1 27       		.uleb128 0x27
 3960 00e2 19       		.uleb128 0x19
 3961 00e3 01       		.uleb128 0x1
 3962 00e4 13       		.uleb128 0x13
 3963 00e5 00       		.byte	0
 3964 00e6 00       		.byte	0
 3965 00e7 14       		.uleb128 0x14
 3966 00e8 05       		.uleb128 0x5
 3967 00e9 00       		.byte	0
 3968 00ea 49       		.uleb128 0x49
 3969 00eb 13       		.uleb128 0x13
 3970 00ec 00       		.byte	0
 3971 00ed 00       		.byte	0
 3972 00ee 15       		.uleb128 0x15
 3973 00ef 01       		.uleb128 0x1
ARM GAS  C:\Users\Henny\AppData\Local\Temp\ccRrnRtI.s 			page 82


 3974 00f0 01       		.byte	0x1
 3975 00f1 49       		.uleb128 0x49
 3976 00f2 13       		.uleb128 0x13
 3977 00f3 01       		.uleb128 0x1
 3978 00f4 13       		.uleb128 0x13
 3979 00f5 00       		.byte	0
 3980 00f6 00       		.byte	0
 3981 00f7 16       		.uleb128 0x16
 3982 00f8 21       		.uleb128 0x21
 3983 00f9 00       		.byte	0
 3984 00fa 49       		.uleb128 0x49
 3985 00fb 13       		.uleb128 0x13
 3986 00fc 2F       		.uleb128 0x2f
 3987 00fd 0B       		.uleb128 0xb
 3988 00fe 00       		.byte	0
 3989 00ff 00       		.byte	0
 3990 0100 17       		.uleb128 0x17
 3991 0101 2E       		.uleb128 0x2e
 3992 0102 00       		.byte	0
 3993 0103 3F       		.uleb128 0x3f
 3994 0104 19       		.uleb128 0x19
 3995 0105 03       		.uleb128 0x3
 3996 0106 0E       		.uleb128 0xe
 3997 0107 3A       		.uleb128 0x3a
 3998 0108 0B       		.uleb128 0xb
 3999 0109 3B       		.uleb128 0x3b
 4000 010a 0B       		.uleb128 0xb
 4001 010b 27       		.uleb128 0x27
 4002 010c 19       		.uleb128 0x19
 4003 010d 11       		.uleb128 0x11
 4004 010e 01       		.uleb128 0x1
 4005 010f 12       		.uleb128 0x12
 4006 0110 06       		.uleb128 0x6
 4007 0111 40       		.uleb128 0x40
 4008 0112 18       		.uleb128 0x18
 4009 0113 9742     		.uleb128 0x2117
 4010 0115 19       		.uleb128 0x19
 4011 0116 00       		.byte	0
 4012 0117 00       		.byte	0
 4013 0118 18       		.uleb128 0x18
 4014 0119 2E       		.uleb128 0x2e
 4015 011a 01       		.byte	0x1
 4016 011b 3F       		.uleb128 0x3f
 4017 011c 19       		.uleb128 0x19
 4018 011d 03       		.uleb128 0x3
 4019 011e 0E       		.uleb128 0xe
 4020 011f 3A       		.uleb128 0x3a
 4021 0120 0B       		.uleb128 0xb
 4022 0121 3B       		.uleb128 0x3b
 4023 0122 0B       		.uleb128 0xb
 4024 0123 27       		.uleb128 0x27
 4025 0124 19       		.uleb128 0x19
 4026 0125 11       		.uleb128 0x11
 4027 0126 01       		.uleb128 0x1
 4028 0127 12       		.uleb128 0x12
 4029 0128 06       		.uleb128 0x6
 4030 0129 40       		.uleb128 0x40
ARM GAS  C:\Users\Henny\AppData\Local\Temp\ccRrnRtI.s 			page 83


 4031 012a 18       		.uleb128 0x18
 4032 012b 9742     		.uleb128 0x2117
 4033 012d 19       		.uleb128 0x19
 4034 012e 01       		.uleb128 0x1
 4035 012f 13       		.uleb128 0x13
 4036 0130 00       		.byte	0
 4037 0131 00       		.byte	0
 4038 0132 19       		.uleb128 0x19
 4039 0133 05       		.uleb128 0x5
 4040 0134 00       		.byte	0
 4041 0135 03       		.uleb128 0x3
 4042 0136 0E       		.uleb128 0xe
 4043 0137 3A       		.uleb128 0x3a
 4044 0138 0B       		.uleb128 0xb
 4045 0139 3B       		.uleb128 0x3b
 4046 013a 0B       		.uleb128 0xb
 4047 013b 49       		.uleb128 0x49
 4048 013c 13       		.uleb128 0x13
 4049 013d 02       		.uleb128 0x2
 4050 013e 18       		.uleb128 0x18
 4051 013f 00       		.byte	0
 4052 0140 00       		.byte	0
 4053 0141 1A       		.uleb128 0x1a
 4054 0142 2E       		.uleb128 0x2e
 4055 0143 01       		.byte	0x1
 4056 0144 3F       		.uleb128 0x3f
 4057 0145 19       		.uleb128 0x19
 4058 0146 03       		.uleb128 0x3
 4059 0147 0E       		.uleb128 0xe
 4060 0148 3A       		.uleb128 0x3a
 4061 0149 0B       		.uleb128 0xb
 4062 014a 3B       		.uleb128 0x3b
 4063 014b 0B       		.uleb128 0xb
 4064 014c 27       		.uleb128 0x27
 4065 014d 19       		.uleb128 0x19
 4066 014e 49       		.uleb128 0x49
 4067 014f 13       		.uleb128 0x13
 4068 0150 11       		.uleb128 0x11
 4069 0151 01       		.uleb128 0x1
 4070 0152 12       		.uleb128 0x12
 4071 0153 06       		.uleb128 0x6
 4072 0154 40       		.uleb128 0x40
 4073 0155 18       		.uleb128 0x18
 4074 0156 9642     		.uleb128 0x2116
 4075 0158 19       		.uleb128 0x19
 4076 0159 01       		.uleb128 0x1
 4077 015a 13       		.uleb128 0x13
 4078 015b 00       		.byte	0
 4079 015c 00       		.byte	0
 4080 015d 1B       		.uleb128 0x1b
 4081 015e 34       		.uleb128 0x34
 4082 015f 00       		.byte	0
 4083 0160 03       		.uleb128 0x3
 4084 0161 0E       		.uleb128 0xe
 4085 0162 3A       		.uleb128 0x3a
 4086 0163 0B       		.uleb128 0xb
 4087 0164 3B       		.uleb128 0x3b
ARM GAS  C:\Users\Henny\AppData\Local\Temp\ccRrnRtI.s 			page 84


 4088 0165 0B       		.uleb128 0xb
 4089 0166 49       		.uleb128 0x49
 4090 0167 13       		.uleb128 0x13
 4091 0168 02       		.uleb128 0x2
 4092 0169 18       		.uleb128 0x18
 4093 016a 00       		.byte	0
 4094 016b 00       		.byte	0
 4095 016c 1C       		.uleb128 0x1c
 4096 016d 2E       		.uleb128 0x2e
 4097 016e 01       		.byte	0x1
 4098 016f 3F       		.uleb128 0x3f
 4099 0170 19       		.uleb128 0x19
 4100 0171 03       		.uleb128 0x3
 4101 0172 0E       		.uleb128 0xe
 4102 0173 3A       		.uleb128 0x3a
 4103 0174 0B       		.uleb128 0xb
 4104 0175 3B       		.uleb128 0x3b
 4105 0176 05       		.uleb128 0x5
 4106 0177 27       		.uleb128 0x27
 4107 0178 19       		.uleb128 0x19
 4108 0179 49       		.uleb128 0x49
 4109 017a 13       		.uleb128 0x13
 4110 017b 11       		.uleb128 0x11
 4111 017c 01       		.uleb128 0x1
 4112 017d 12       		.uleb128 0x12
 4113 017e 06       		.uleb128 0x6
 4114 017f 40       		.uleb128 0x40
 4115 0180 18       		.uleb128 0x18
 4116 0181 9642     		.uleb128 0x2116
 4117 0183 19       		.uleb128 0x19
 4118 0184 01       		.uleb128 0x1
 4119 0185 13       		.uleb128 0x13
 4120 0186 00       		.byte	0
 4121 0187 00       		.byte	0
 4122 0188 1D       		.uleb128 0x1d
 4123 0189 05       		.uleb128 0x5
 4124 018a 00       		.byte	0
 4125 018b 03       		.uleb128 0x3
 4126 018c 0E       		.uleb128 0xe
 4127 018d 3A       		.uleb128 0x3a
 4128 018e 0B       		.uleb128 0xb
 4129 018f 3B       		.uleb128 0x3b
 4130 0190 05       		.uleb128 0x5
 4131 0191 49       		.uleb128 0x49
 4132 0192 13       		.uleb128 0x13
 4133 0193 02       		.uleb128 0x2
 4134 0194 18       		.uleb128 0x18
 4135 0195 00       		.byte	0
 4136 0196 00       		.byte	0
 4137 0197 1E       		.uleb128 0x1e
 4138 0198 34       		.uleb128 0x34
 4139 0199 00       		.byte	0
 4140 019a 03       		.uleb128 0x3
 4141 019b 0E       		.uleb128 0xe
 4142 019c 3A       		.uleb128 0x3a
 4143 019d 0B       		.uleb128 0xb
 4144 019e 3B       		.uleb128 0x3b
ARM GAS  C:\Users\Henny\AppData\Local\Temp\ccRrnRtI.s 			page 85


 4145 019f 05       		.uleb128 0x5
 4146 01a0 49       		.uleb128 0x49
 4147 01a1 13       		.uleb128 0x13
 4148 01a2 02       		.uleb128 0x2
 4149 01a3 18       		.uleb128 0x18
 4150 01a4 00       		.byte	0
 4151 01a5 00       		.byte	0
 4152 01a6 1F       		.uleb128 0x1f
 4153 01a7 0B       		.uleb128 0xb
 4154 01a8 01       		.byte	0x1
 4155 01a9 11       		.uleb128 0x11
 4156 01aa 01       		.uleb128 0x1
 4157 01ab 12       		.uleb128 0x12
 4158 01ac 06       		.uleb128 0x6
 4159 01ad 00       		.byte	0
 4160 01ae 00       		.byte	0
 4161 01af 20       		.uleb128 0x20
 4162 01b0 2E       		.uleb128 0x2e
 4163 01b1 01       		.byte	0x1
 4164 01b2 3F       		.uleb128 0x3f
 4165 01b3 19       		.uleb128 0x19
 4166 01b4 03       		.uleb128 0x3
 4167 01b5 0E       		.uleb128 0xe
 4168 01b6 3A       		.uleb128 0x3a
 4169 01b7 0B       		.uleb128 0xb
 4170 01b8 3B       		.uleb128 0x3b
 4171 01b9 05       		.uleb128 0x5
 4172 01ba 27       		.uleb128 0x27
 4173 01bb 19       		.uleb128 0x19
 4174 01bc 11       		.uleb128 0x11
 4175 01bd 01       		.uleb128 0x1
 4176 01be 12       		.uleb128 0x12
 4177 01bf 06       		.uleb128 0x6
 4178 01c0 40       		.uleb128 0x40
 4179 01c1 18       		.uleb128 0x18
 4180 01c2 9642     		.uleb128 0x2116
 4181 01c4 19       		.uleb128 0x19
 4182 01c5 01       		.uleb128 0x1
 4183 01c6 13       		.uleb128 0x13
 4184 01c7 00       		.byte	0
 4185 01c8 00       		.byte	0
 4186 01c9 21       		.uleb128 0x21
 4187 01ca 26       		.uleb128 0x26
 4188 01cb 00       		.byte	0
 4189 01cc 49       		.uleb128 0x49
 4190 01cd 13       		.uleb128 0x13
 4191 01ce 00       		.byte	0
 4192 01cf 00       		.byte	0
 4193 01d0 22       		.uleb128 0x22
 4194 01d1 34       		.uleb128 0x34
 4195 01d2 00       		.byte	0
 4196 01d3 03       		.uleb128 0x3
 4197 01d4 0E       		.uleb128 0xe
 4198 01d5 3A       		.uleb128 0x3a
 4199 01d6 0B       		.uleb128 0xb
 4200 01d7 3B       		.uleb128 0x3b
 4201 01d8 05       		.uleb128 0x5
ARM GAS  C:\Users\Henny\AppData\Local\Temp\ccRrnRtI.s 			page 86


 4202 01d9 49       		.uleb128 0x49
 4203 01da 13       		.uleb128 0x13
 4204 01db 3F       		.uleb128 0x3f
 4205 01dc 19       		.uleb128 0x19
 4206 01dd 3C       		.uleb128 0x3c
 4207 01de 19       		.uleb128 0x19
 4208 01df 00       		.byte	0
 4209 01e0 00       		.byte	0
 4210 01e1 23       		.uleb128 0x23
 4211 01e2 34       		.uleb128 0x34
 4212 01e3 00       		.byte	0
 4213 01e4 03       		.uleb128 0x3
 4214 01e5 0E       		.uleb128 0xe
 4215 01e6 3A       		.uleb128 0x3a
 4216 01e7 0B       		.uleb128 0xb
 4217 01e8 3B       		.uleb128 0x3b
 4218 01e9 0B       		.uleb128 0xb
 4219 01ea 49       		.uleb128 0x49
 4220 01eb 13       		.uleb128 0x13
 4221 01ec 3F       		.uleb128 0x3f
 4222 01ed 19       		.uleb128 0x19
 4223 01ee 3C       		.uleb128 0x3c
 4224 01ef 19       		.uleb128 0x19
 4225 01f0 00       		.byte	0
 4226 01f1 00       		.byte	0
 4227 01f2 24       		.uleb128 0x24
 4228 01f3 34       		.uleb128 0x34
 4229 01f4 00       		.byte	0
 4230 01f5 03       		.uleb128 0x3
 4231 01f6 0E       		.uleb128 0xe
 4232 01f7 3A       		.uleb128 0x3a
 4233 01f8 0B       		.uleb128 0xb
 4234 01f9 3B       		.uleb128 0x3b
 4235 01fa 0B       		.uleb128 0xb
 4236 01fb 49       		.uleb128 0x49
 4237 01fc 13       		.uleb128 0x13
 4238 01fd 3F       		.uleb128 0x3f
 4239 01fe 19       		.uleb128 0x19
 4240 01ff 02       		.uleb128 0x2
 4241 0200 18       		.uleb128 0x18
 4242 0201 00       		.byte	0
 4243 0202 00       		.byte	0
 4244 0203 00       		.byte	0
 4245              		.section	.debug_aranges,"",%progbits
 4246 0000 64000000 		.4byte	0x64
 4247 0004 0200     		.2byte	0x2
 4248 0006 00000000 		.4byte	.Ldebug_info0
 4249 000a 04       		.byte	0x4
 4250 000b 00       		.byte	0
 4251 000c 0000     		.2byte	0
 4252 000e 0000     		.2byte	0
 4253 0010 00000000 		.4byte	.LFB2
 4254 0014 14000000 		.4byte	.LFE2-.LFB2
 4255 0018 00000000 		.4byte	.LFB3
 4256 001c 18000000 		.4byte	.LFE3-.LFB3
 4257 0020 00000000 		.4byte	.LFB4
 4258 0024 88000000 		.4byte	.LFE4-.LFB4
ARM GAS  C:\Users\Henny\AppData\Local\Temp\ccRrnRtI.s 			page 87


 4259 0028 00000000 		.4byte	.LFB5
 4260 002c 88000000 		.4byte	.LFE5-.LFB5
 4261 0030 00000000 		.4byte	.LFB6
 4262 0034 B8000000 		.4byte	.LFE6-.LFB6
 4263 0038 00000000 		.4byte	.LFB7
 4264 003c B4000000 		.4byte	.LFE7-.LFB7
 4265 0040 00000000 		.4byte	.LFB8
 4266 0044 EC020000 		.4byte	.LFE8-.LFB8
 4267 0048 00000000 		.4byte	.LFB9
 4268 004c E0000000 		.4byte	.LFE9-.LFB9
 4269 0050 00000000 		.4byte	.LFB10
 4270 0054 F8000000 		.4byte	.LFE10-.LFB10
 4271 0058 00000000 		.4byte	.LFB11
 4272 005c D8000000 		.4byte	.LFE11-.LFB11
 4273 0060 00000000 		.4byte	0
 4274 0064 00000000 		.4byte	0
 4275              		.section	.debug_ranges,"",%progbits
 4276              	.Ldebug_ranges0:
 4277 0000 00000000 		.4byte	.LFB2
 4278 0004 14000000 		.4byte	.LFE2
 4279 0008 00000000 		.4byte	.LFB3
 4280 000c 18000000 		.4byte	.LFE3
 4281 0010 00000000 		.4byte	.LFB4
 4282 0014 88000000 		.4byte	.LFE4
 4283 0018 00000000 		.4byte	.LFB5
 4284 001c 88000000 		.4byte	.LFE5
 4285 0020 00000000 		.4byte	.LFB6
 4286 0024 B8000000 		.4byte	.LFE6
 4287 0028 00000000 		.4byte	.LFB7
 4288 002c B4000000 		.4byte	.LFE7
 4289 0030 00000000 		.4byte	.LFB8
 4290 0034 EC020000 		.4byte	.LFE8
 4291 0038 00000000 		.4byte	.LFB9
 4292 003c E0000000 		.4byte	.LFE9
 4293 0040 00000000 		.4byte	.LFB10
 4294 0044 F8000000 		.4byte	.LFE10
 4295 0048 00000000 		.4byte	.LFB11
 4296 004c D8000000 		.4byte	.LFE11
 4297 0050 00000000 		.4byte	0
 4298 0054 00000000 		.4byte	0
 4299              		.section	.debug_line,"",%progbits
 4300              	.Ldebug_line0:
 4301 0000 56020000 		.section	.debug_str,"MS",%progbits,1
 4301      0200DD00 
 4301      00000201 
 4301      FB0E0D00 
 4301      01010101 
 4302              	.LASF424:
 4303 0000 4359424C 		.ascii	"CYBLE_EVT_UDSC_READ_CHAR_RESPONSE\000"
 4303      455F4556 
 4303      545F5544 
 4303      53435F52 
 4303      4541445F 
 4304              	.LASF353:
 4305 0022 4359424C 		.ascii	"CYBLE_EVT_HTSS_NOTIFICATION_DISABLED\000"
 4305      455F4556 
 4305      545F4854 
ARM GAS  C:\Users\Henny\AppData\Local\Temp\ccRrnRtI.s 			page 88


 4305      53535F4E 
 4305      4F544946 
 4306              	.LASF129:
 4307 0047 4359424C 		.ascii	"CYBLE_GATT_ERR_INVALID_CRC\000"
 4307      455F4741 
 4307      54545F45 
 4307      52525F49 
 4307      4E56414C 
 4308              	.LASF177:
 4309 0062 4359424C 		.ascii	"CYBLE_DIS_CHAR_COUNT\000"
 4309      455F4449 
 4309      535F4348 
 4309      41525F43 
 4309      4F554E54 
 4310              	.LASF15:
 4311 0077 73697A65 		.ascii	"sizetype\000"
 4311      74797065 
 4311      00
 4312              	.LASF474:
 4313 0080 75707065 		.ascii	"upperValue\000"
 4313      7256616C 
 4313      756500
 4314              	.LASF241:
 4315 008b 4359424C 		.ascii	"CYBLE_EVT_BCSC_READ_CHAR_RESPONSE\000"
 4315      455F4556 
 4315      545F4243 
 4315      53435F52 
 4315      4541445F 
 4316              	.LASF148:
 4317 00ad 4359424C 		.ascii	"CYBLE_GATTS_HANDLE_VALUE_NTF_T\000"
 4317      455F4741 
 4317      5454535F 
 4317      48414E44 
 4317      4C455F56 
 4318              	.LASF264:
 4319 00cc 4359424C 		.ascii	"CYBLE_EVT_CGMSC_INDICATION\000"
 4319      455F4556 
 4319      545F4347 
 4319      4D53435F 
 4319      494E4449 
 4320              	.LASF282:
 4321 00e7 4359424C 		.ascii	"CYBLE_EVT_CPSC_READ_DESCR_RESPONSE\000"
 4321      455F4556 
 4321      545F4350 
 4321      53435F52 
 4321      4541445F 
 4322              	.LASF401:
 4323 010a 4359424C 		.ascii	"CYBLE_EVT_RTUSS_WRITE_CHAR_CMD\000"
 4323      455F4556 
 4323      545F5254 
 4323      5553535F 
 4323      57524954 
 4324              	.LASF194:
 4325 0129 63686172 		.ascii	"charIndex\000"
 4325      496E6465 
 4325      7800
 4326              	.LASF435:
ARM GAS  C:\Users\Henny\AppData\Local\Temp\ccRrnRtI.s 			page 89


 4327 0133 4359424C 		.ascii	"CYBLE_EVT_WPTSC_NOTIFICATION\000"
 4327      455F4556 
 4327      545F5750 
 4327      5453435F 
 4327      4E4F5449 
 4328              	.LASF480:
 4329 0150 4379426C 		.ascii	"CyBle_HtsApplCallback\000"
 4329      655F4874 
 4329      73417070 
 4329      6C43616C 
 4329      6C626163 
 4330              	.LASF441:
 4331 0166 4359424C 		.ascii	"CYBLE_EVT_WSSS_INDICATION_ENABLED\000"
 4331      455F4556 
 4331      545F5753 
 4331      53535F49 
 4331      4E444943 
 4332              	.LASF280:
 4333 0188 4359424C 		.ascii	"CYBLE_EVT_CPSC_READ_CHAR_RESPONSE\000"
 4333      455F4556 
 4333      545F4350 
 4333      53435F52 
 4333      4541445F 
 4334              	.LASF293:
 4335 01aa 4359424C 		.ascii	"CYBLE_EVT_CSCSC_READ_CHAR_RESPONSE\000"
 4335      455F4556 
 4335      545F4353 
 4335      4353435F 
 4335      52454144 
 4336              	.LASF269:
 4337 01cd 4359424C 		.ascii	"CYBLE_EVT_CGMSC_WRITE_DESCR_RESPONSE\000"
 4337      455F4556 
 4337      545F4347 
 4337      4D53435F 
 4337      57524954 
 4338              	.LASF324:
 4339 01f2 4359424C 		.ascii	"CYBLE_EVT_GLSS_NOTIFICATION_DISABLED\000"
 4339      455F4556 
 4339      545F474C 
 4339      53535F4E 
 4339      4F544946 
 4340              	.LASF466:
 4341 0217 6576656E 		.ascii	"eventParam\000"
 4341      74506172 
 4341      616D00
 4342              	.LASF251:
 4343 0222 4359424C 		.ascii	"CYBLE_EVT_BLSC_READ_CHAR_RESPONSE\000"
 4343      455F4556 
 4343      545F424C 
 4343      53435F52 
 4343      4541445F 
 4344              	.LASF29:
 4345 0244 4359424C 		.ascii	"CYBLE_EVT_GAP_DEVICE_CONNECTED\000"
 4345      455F4556 
 4345      545F4741 
 4345      505F4445 
 4345      56494345 
ARM GAS  C:\Users\Henny\AppData\Local\Temp\ccRrnRtI.s 			page 90


 4346              	.LASF367:
 4347 0263 4359424C 		.ascii	"CYBLE_EVT_LLSC_WRITE_CHAR_RESPONSE\000"
 4347      455F4556 
 4347      545F4C4C 
 4347      53435F57 
 4347      52495445 
 4348              	.LASF460:
 4349 0286 4379426C 		.ascii	"CyBle_HtssSetCharacteristicValue\000"
 4349      655F4874 
 4349      73735365 
 4349      74436861 
 4349      72616374 
 4350              	.LASF36:
 4351 02a7 4359424C 		.ascii	"CYBLE_EVT_GATT_CONNECT_IND\000"
 4351      455F4556 
 4351      545F4741 
 4351      54545F43 
 4351      4F4E4E45 
 4352              	.LASF185:
 4353 02c2 4359424C 		.ascii	"CYBLE_HTS_VRD\000"
 4353      455F4854 
 4353      535F5652 
 4353      4400
 4354              	.LASF11:
 4355 02d0 75696E74 		.ascii	"uint32\000"
 4355      333200
 4356              	.LASF475:
 4357 02d7 4379426C 		.ascii	"CyBle_HtssSendNotification\000"
 4357      655F4874 
 4357      73735365 
 4357      6E644E6F 
 4357      74696669 
 4358              	.LASF206:
 4359 02f2 4359424C 		.ascii	"CYBLE_EVT_GATTC_DESCR_DISCOVERY_FAILED\000"
 4359      455F4556 
 4359      545F4741 
 4359      5454435F 
 4359      44455343 
 4360              	.LASF400:
 4361 0319 4359424C 		.ascii	"CYBLE_EVT_RSCSC_WRITE_DESCR_RESPONSE\000"
 4361      455F4556 
 4361      545F5253 
 4361      4353435F 
 4361      57524954 
 4362              	.LASF239:
 4363 033e 4359424C 		.ascii	"CYBLE_EVT_BCSS_INDICATION_CONFIRMED\000"
 4363      455F4556 
 4363      545F4243 
 4363      53535F49 
 4363      4E444943 
 4364              	.LASF240:
 4365 0362 4359424C 		.ascii	"CYBLE_EVT_BCSC_INDICATION\000"
 4365      455F4556 
 4365      545F4243 
 4365      53435F49 
 4365      4E444943 
 4366              	.LASF369:
ARM GAS  C:\Users\Henny\AppData\Local\Temp\ccRrnRtI.s 			page 91


 4367 037c 4359424C 		.ascii	"CYBLE_EVT_LNSS_INDICATION_DISABLED\000"
 4367      455F4556 
 4367      545F4C4E 
 4367      53535F49 
 4367      4E444943 
 4368              	.LASF301:
 4369 039f 4359424C 		.ascii	"CYBLE_EVT_CTSC_READ_CHAR_RESPONSE\000"
 4369      455F4556 
 4369      545F4354 
 4369      53435F52 
 4369      4541445F 
 4370              	.LASF210:
 4371 03c1 4359424C 		.ascii	"CYBLE_EVT_GATTC_SRVC_DISCOVERY_COMPLETE\000"
 4371      455F4556 
 4371      545F4741 
 4371      5454435F 
 4371      53525643 
 4372              	.LASF394:
 4373 03e9 4359424C 		.ascii	"CYBLE_EVT_RSCSS_CHAR_WRITE\000"
 4373      455F4556 
 4373      545F5253 
 4373      4353535F 
 4373      43484152 
 4374              	.LASF427:
 4375 0404 4359424C 		.ascii	"CYBLE_EVT_UDSC_WRITE_DESCR_RESPONSE\000"
 4375      455F4556 
 4375      545F5544 
 4375      53435F57 
 4375      52495445 
 4376              	.LASF343:
 4377 0428 4359424C 		.ascii	"CYBLE_EVT_HIDSC_WRITE_DESCR_RESPONSE\000"
 4377      455F4556 
 4377      545F4849 
 4377      4453435F 
 4377      57524954 
 4378              	.LASF409:
 4379 044d 4359424C 		.ascii	"CYBLE_EVT_TPSS_NOTIFICATION_ENABLED\000"
 4379      455F4556 
 4379      545F5450 
 4379      53535F4E 
 4379      4F544946 
 4380              	.LASF229:
 4381 0471 4359424C 		.ascii	"CYBLE_EVT_ANSC_READ_DESCR_RESPONSE\000"
 4381      455F4556 
 4381      545F414E 
 4381      53435F52 
 4381      4541445F 
 4382              	.LASF104:
 4383 0494 4359424C 		.ascii	"CYBLE_GATT_ERR_READ_NOT_PERMITTED\000"
 4383      455F4741 
 4383      54545F45 
 4383      52525F52 
 4383      4541445F 
 4384              	.LASF119:
 4385 04b6 4359424C 		.ascii	"CYBLE_GATT_ERR_INSUFFICIENT_RESOURCE\000"
 4385      455F4741 
 4385      54545F45 
ARM GAS  C:\Users\Henny\AppData\Local\Temp\ccRrnRtI.s 			page 92


 4385      52525F49 
 4385      4E535546 
 4386              	.LASF184:
 4387 04db 4359424C 		.ascii	"CYBLE_HTS_CCCD\000"
 4387      455F4854 
 4387      535F4343 
 4387      434400
 4388              	.LASF118:
 4389 04ea 4359424C 		.ascii	"CYBLE_GATT_ERR_UNSUPPORTED_GROUP_TYPE\000"
 4389      455F4741 
 4389      54545F45 
 4389      52525F55 
 4389      4E535550 
 4390              	.LASF89:
 4391 0510 4359424C 		.ascii	"CYBLE_ERROR_L2CAP_CONNECTION_ENTITY_NOT_FOUND\000"
 4391      455F4552 
 4391      524F525F 
 4391      4C324341 
 4391      505F434F 
 4392              	.LASF95:
 4393 053e 4359424C 		.ascii	"CYBLE_ERROR_MIC_AUTH_FAILED\000"
 4393      455F4552 
 4393      524F525F 
 4393      4D49435F 
 4393      41555448 
 4394              	.LASF205:
 4395 055a 4359424C 		.ascii	"CYBLE_EVT_GATTC_CHAR_DISCOVERY_FAILED\000"
 4395      455F4556 
 4395      545F4741 
 4395      5454435F 
 4395      43484152 
 4396              	.LASF56:
 4397 0580 4359424C 		.ascii	"CYBLE_EVT_GATTS_DATA_SIGNED_CMD_REQ\000"
 4397      455F4556 
 4397      545F4741 
 4397      5454535F 
 4397      44415441 
 4398              	.LASF67:
 4399 05a4 4359424C 		.ascii	"CYBLE_EVT_L2CAP_CBFC_RX_CREDIT_IND\000"
 4399      455F4556 
 4399      545F4C32 
 4399      4341505F 
 4399      43424643 
 4400              	.LASF144:
 4401 05c7 4359424C 		.ascii	"CYBLE_GATT_VALUE_T\000"
 4401      455F4741 
 4401      54545F56 
 4401      414C5545 
 4401      5F5400
 4402              	.LASF287:
 4403 05da 4359424C 		.ascii	"CYBLE_EVT_CSCSS_INDICATION_ENABLED\000"
 4403      455F4556 
 4403      545F4353 
 4403      4353535F 
 4403      494E4449 
 4404              	.LASF163:
 4405 05fd 7065726D 		.ascii	"permission\000"
ARM GAS  C:\Users\Henny\AppData\Local\Temp\ccRrnRtI.s 			page 93


 4405      69737369 
 4405      6F6E00
 4406              	.LASF374:
 4407 0608 4359424C 		.ascii	"CYBLE_EVT_LNSC_INDICATION\000"
 4407      455F4556 
 4407      545F4C4E 
 4407      53435F49 
 4407      4E444943 
 4408              	.LASF385:
 4409 0622 4359424C 		.ascii	"CYBLE_EVT_PASSC_READ_CHAR_RESPONSE\000"
 4409      455F4556 
 4409      545F5041 
 4409      5353435F 
 4409      52454144 
 4410              	.LASF244:
 4411 0645 4359424C 		.ascii	"CYBLE_EVT_BLSS_INDICATION_ENABLED\000"
 4411      455F4556 
 4411      545F424C 
 4411      53535F49 
 4411      4E444943 
 4412              	.LASF250:
 4413 0667 4359424C 		.ascii	"CYBLE_EVT_BLSC_NOTIFICATION\000"
 4413      455F4556 
 4413      545F424C 
 4413      53435F4E 
 4413      4F544946 
 4414              	.LASF167:
 4415 0683 4359424C 		.ascii	"CYBLE_CALLBACK_T\000"
 4415      455F4341 
 4415      4C4C4241 
 4415      434B5F54 
 4415      00
 4416              	.LASF292:
 4417 0694 4359424C 		.ascii	"CYBLE_EVT_CSCSC_INDICATION\000"
 4417      455F4556 
 4417      545F4353 
 4417      4353435F 
 4417      494E4449 
 4418              	.LASF172:
 4419 06af 4359424C 		.ascii	"CYBLE_DIS_FIRMWARE_REV\000"
 4419      455F4449 
 4419      535F4649 
 4419      524D5741 
 4419      52455F52 
 4420              	.LASF53:
 4421 06c6 4359424C 		.ascii	"CYBLE_EVT_GATTC_HANDLE_VALUE_NTF\000"
 4421      455F4556 
 4421      545F4741 
 4421      5454435F 
 4421      48414E44 
 4422              	.LASF23:
 4423 06e7 4359424C 		.ascii	"CYBLE_EVT_GAP_AUTH_REQ\000"
 4423      455F4556 
 4423      545F4741 
 4423      505F4155 
 4423      54485F52 
 4424              	.LASF212:
ARM GAS  C:\Users\Henny\AppData\Local\Temp\ccRrnRtI.s 			page 94


 4425 06fe 4359424C 		.ascii	"CYBLE_EVT_GATTC_CHAR_DISCOVERY_COMPLETE\000"
 4425      455F4556 
 4425      545F4741 
 4425      5454435F 
 4425      43484152 
 4426              	.LASF142:
 4427 0726 4359424C 		.ascii	"CYBLE_CONN_HANDLE_T\000"
 4427      455F434F 
 4427      4E4E5F48 
 4427      414E444C 
 4427      455F5400 
 4428              	.LASF349:
 4429 073a 4359424C 		.ascii	"CYBLE_EVT_HRSC_WRITE_CHAR_RESPONSE\000"
 4429      455F4556 
 4429      545F4852 
 4429      53435F57 
 4429      52495445 
 4430              	.LASF84:
 4431 075d 4359424C 		.ascii	"CYBLE_ERROR_BT_ON_NOT_COMPLETED\000"
 4431      455F4552 
 4431      524F525F 
 4431      42545F4F 
 4431      4E5F4E4F 
 4432              	.LASF291:
 4433 077d 4359424C 		.ascii	"CYBLE_EVT_CSCSC_NOTIFICATION\000"
 4433      455F4556 
 4433      545F4353 
 4433      4353435F 
 4433      4E4F5449 
 4434              	.LASF422:
 4435 079a 4359424C 		.ascii	"CYBLE_EVT_UDSC_INDICATION\000"
 4435      455F4556 
 4435      545F5544 
 4435      53435F49 
 4435      4E444943 
 4436              	.LASF255:
 4437 07b4 4359424C 		.ascii	"CYBLE_EVT_BMSC_READ_CHAR_RESPONSE\000"
 4437      455F4556 
 4437      545F424D 
 4437      53435F52 
 4437      4541445F 
 4438              	.LASF452:
 4439 07d6 4359424C 		.ascii	"CYBLE_STATE_ADVERTISING\000"
 4439      455F5354 
 4439      4154455F 
 4439      41445645 
 4439      52544953 
 4440              	.LASF189:
 4441 07ee 64657363 		.ascii	"descrHandle\000"
 4441      7248616E 
 4441      646C6500 
 4442              	.LASF140:
 4443 07fa 62644861 		.ascii	"bdHandle\000"
 4443      6E646C65 
 4443      00
 4444              	.LASF260:
 4445 0803 4359424C 		.ascii	"CYBLE_EVT_CGMSS_INDICATION_CONFIRMED\000"
ARM GAS  C:\Users\Henny\AppData\Local\Temp\ccRrnRtI.s 			page 95


 4445      455F4556 
 4445      545F4347 
 4445      4D53535F 
 4445      494E4449 
 4446              	.LASF132:
 4447 0828 4359424C 		.ascii	"CYBLE_GATT_ERR_ANCS_INVALID_COMMAND\000"
 4447      455F4741 
 4447      54545F45 
 4447      52525F41 
 4447      4E43535F 
 4448              	.LASF252:
 4449 084c 4359424C 		.ascii	"CYBLE_EVT_BLSC_READ_DESCR_RESPONSE\000"
 4449      455F4556 
 4449      545F424C 
 4449      53435F52 
 4449      4541445F 
 4450              	.LASF273:
 4451 086f 4359424C 		.ascii	"CYBLE_EVT_CPSS_INDICATION_DISABLED\000"
 4451      455F4556 
 4451      545F4350 
 4451      53535F49 
 4451      4E444943 
 4452              	.LASF272:
 4453 0892 4359424C 		.ascii	"CYBLE_EVT_CPSS_INDICATION_ENABLED\000"
 4453      455F4556 
 4453      545F4350 
 4453      53535F49 
 4453      4E444943 
 4454              	.LASF371:
 4455 08b4 4359424C 		.ascii	"CYBLE_EVT_LNSS_NOTIFICATION_ENABLED\000"
 4455      455F4556 
 4455      545F4C4E 
 4455      53535F4E 
 4455      4F544946 
 4456              	.LASF49:
 4457 08d8 4359424C 		.ascii	"CYBLE_EVT_GATTS_WRITE_CMD_REQ\000"
 4457      455F4556 
 4457      545F4741 
 4457      5454535F 
 4457      57524954 
 4458              	.LASF283:
 4459 08f6 4359424C 		.ascii	"CYBLE_EVT_CPSC_WRITE_DESCR_RESPONSE\000"
 4459      455F4556 
 4459      545F4350 
 4459      53435F57 
 4459      52495445 
 4460              	.LASF4:
 4461 091a 6C6F6E67 		.ascii	"long int\000"
 4461      20696E74 
 4461      00
 4462              	.LASF195:
 4463 0923 4359424C 		.ascii	"CYBLE_HTS_CHAR_VALUE_T\000"
 4463      455F4854 
 4463      535F4348 
 4463      41525F56 
 4463      414C5545 
 4464              	.LASF218:
ARM GAS  C:\Users\Henny\AppData\Local\Temp\ccRrnRtI.s 			page 96


 4465 093a 4359424C 		.ascii	"CYBLE_EVT_ANCSC_READ_CHAR_RESPONSE\000"
 4465      455F4556 
 4465      545F414E 
 4465      4353435F 
 4465      52454144 
 4466              	.LASF386:
 4467 095d 4359424C 		.ascii	"CYBLE_EVT_PASSC_WRITE_CHAR_RESPONSE\000"
 4467      455F4556 
 4467      545F5041 
 4467      5353435F 
 4467      57524954 
 4468              	.LASF180:
 4469 0981 4359424C 		.ascii	"CYBLE_HTS_INTERM_TEMP\000"
 4469      455F4854 
 4469      535F494E 
 4469      5445524D 
 4469      5F54454D 
 4470              	.LASF417:
 4471 0997 4359424C 		.ascii	"CYBLE_EVT_UDSS_INDICATION_CONFIRMED\000"
 4471      455F4556 
 4471      545F5544 
 4471      53535F49 
 4471      4E444943 
 4472              	.LASF198:
 4473 09bb 4359424C 		.ascii	"CYBLE_LONG_TERM_KEY_REQUEST_REPLY\000"
 4473      455F4C4F 
 4473      4E475F54 
 4473      45524D5F 
 4473      4B45595F 
 4474              	.LASF17:
 4475 09dd 4359424C 		.ascii	"CYBLE_EVT_STACK_ON\000"
 4475      455F4556 
 4475      545F5354 
 4475      41434B5F 
 4475      4F4E00
 4476              	.LASF91:
 4477 09f0 4359424C 		.ascii	"CYBLE_ERROR_L2CAP_PSM_NOT_IN_RANGE\000"
 4477      455F4552 
 4477      524F525F 
 4477      4C324341 
 4477      505F5053 
 4478              	.LASF171:
 4479 0a13 4359424C 		.ascii	"CYBLE_DIS_HARDWARE_REV\000"
 4479      455F4449 
 4479      535F4841 
 4479      52445741 
 4479      52455F52 
 4480              	.LASF455:
 4481 0a2a 63616C6C 		.ascii	"callbackFunc\000"
 4481      6261636B 
 4481      46756E63 
 4481      00
 4482              	.LASF319:
 4483 0a37 4359424C 		.ascii	"CYBLE_EVT_ESSC_WRITE_DESCR_RESPONSE\000"
 4483      455F4556 
 4483      545F4553 
 4483      53435F57 
ARM GAS  C:\Users\Henny\AppData\Local\Temp\ccRrnRtI.s 			page 97


 4483      52495445 
 4484              	.LASF191:
 4485 0a5b 73657276 		.ascii	"serviceHandle\000"
 4485      69636548 
 4485      616E646C 
 4485      6500
 4486              	.LASF352:
 4487 0a69 4359424C 		.ascii	"CYBLE_EVT_HTSS_NOTIFICATION_ENABLED\000"
 4487      455F4556 
 4487      545F4854 
 4487      53535F4E 
 4487      4F544946 
 4488              	.LASF106:
 4489 0a8d 4359424C 		.ascii	"CYBLE_GATT_ERR_INVALID_PDU\000"
 4489      455F4741 
 4489      54545F45 
 4489      52525F49 
 4489      4E56414C 
 4490              	.LASF99:
 4491 0aa8 4359424C 		.ascii	"CYBLE_ERROR_CHAR_IS_NOT_DISCOVERED\000"
 4491      455F4552 
 4491      524F525F 
 4491      43484152 
 4491      5F49535F 
 4492              	.LASF420:
 4493 0acb 4359424C 		.ascii	"CYBLE_EVT_UDSS_READ_CHAR\000"
 4493      455F4556 
 4493      545F5544 
 4493      53535F52 
 4493      4541445F 
 4494              	.LASF147:
 4495 0ae4 4359424C 		.ascii	"CYBLE_GATT_HANDLE_VALUE_PAIR_T\000"
 4495      455F4741 
 4495      54545F48 
 4495      414E444C 
 4495      455F5641 
 4496              	.LASF162:
 4497 0b03 61747454 		.ascii	"attType\000"
 4497      79706500 
 4498              	.LASF316:
 4499 0b0b 4359424C 		.ascii	"CYBLE_EVT_ESSC_READ_CHAR_RESPONSE\000"
 4499      455F4556 
 4499      545F4553 
 4499      53435F52 
 4499      4541445F 
 4500              	.LASF339:
 4501 0b2d 4359424C 		.ascii	"CYBLE_EVT_HIDSC_NOTIFICATION\000"
 4501      455F4556 
 4501      545F4849 
 4501      4453435F 
 4501      4E4F5449 
 4502              	.LASF61:
 4503 0b4a 4359424C 		.ascii	"CYBLE_EVT_L2CAP_COMMAND_REJ\000"
 4503      455F4556 
 4503      545F4C32 
 4503      4341505F 
 4503      434F4D4D 
ARM GAS  C:\Users\Henny\AppData\Local\Temp\ccRrnRtI.s 			page 98


 4504              	.LASF115:
 4505 0b66 4359424C 		.ascii	"CYBLE_GATT_ERR_INVALID_ATTRIBUTE_LEN\000"
 4505      455F4741 
 4505      54545F45 
 4505      52525F49 
 4505      4E56414C 
 4506              	.LASF336:
 4507 0b8b 4359424C 		.ascii	"CYBLE_EVT_HIDSS_SUSPEND\000"
 4507      455F4556 
 4507      545F4849 
 4507      4453535F 
 4507      53555350 
 4508              	.LASF92:
 4509 0ba3 4359424C 		.ascii	"CYBLE_ERROR_GATT_DB_INVALID_ATTR_HANDLE\000"
 4509      455F4552 
 4509      524F525F 
 4509      47415454 
 4509      5F44425F 
 4510              	.LASF0:
 4511 0bcb 7369676E 		.ascii	"signed char\000"
 4511      65642063 
 4511      68617200 
 4512              	.LASF242:
 4513 0bd7 4359424C 		.ascii	"CYBLE_EVT_BCSC_READ_DESCR_RESPONSE\000"
 4513      455F4556 
 4513      545F4243 
 4513      53435F52 
 4513      4541445F 
 4514              	.LASF447:
 4515 0bfa 4359424C 		.ascii	"CYBLE_EVT_WSSC_WRITE_DESCR_RESPONSE\000"
 4515      455F4556 
 4515      545F5753 
 4515      53435F57 
 4515      52495445 
 4516              	.LASF235:
 4517 0c1e 4359424C 		.ascii	"CYBLE_EVT_BASC_READ_DESCR_RESPONSE\000"
 4517      455F4556 
 4517      545F4241 
 4517      53435F52 
 4517      4541445F 
 4518              	.LASF19:
 4519 0c41 4359424C 		.ascii	"CYBLE_EVT_HARDWARE_ERROR\000"
 4519      455F4556 
 4519      545F4841 
 4519      52445741 
 4519      52455F45 
 4520              	.LASF73:
 4521 0c5a 4359424C 		.ascii	"CYBLE_ERROR_OK\000"
 4521      455F4552 
 4521      524F525F 
 4521      4F4B00
 4522              	.LASF468:
 4523 0c69 6C6F6343 		.ascii	"locCharValue\000"
 4523      68617256 
 4523      616C7565 
 4523      00
 4524              	.LASF40:
ARM GAS  C:\Users\Henny\AppData\Local\Temp\ccRrnRtI.s 			page 99


 4525 0c76 4359424C 		.ascii	"CYBLE_EVT_GATTC_READ_BY_GROUP_TYPE_RSP\000"
 4525      455F4556 
 4525      545F4741 
 4525      5454435F 
 4525      52454144 
 4526              	.LASF449:
 4527 0c9d 4359424C 		.ascii	"CYBLE_STATE_STOPPED\000"
 4527      455F5354 
 4527      4154455F 
 4527      53544F50 
 4527      50454400 
 4528              	.LASF391:
 4529 0cb1 4359424C 		.ascii	"CYBLE_EVT_RSCSS_INDICATION_ENABLED\000"
 4529      455F4556 
 4529      545F5253 
 4529      4353535F 
 4529      494E4449 
 4530              	.LASF1:
 4531 0cd4 756E7369 		.ascii	"unsigned char\000"
 4531      676E6564 
 4531      20636861 
 4531      7200
 4532              	.LASF39:
 4533 0ce2 4359424C 		.ascii	"CYBLE_EVT_GATTC_XCHNG_MTU_RSP\000"
 4533      455F4556 
 4533      545F4741 
 4533      5454435F 
 4533      5843484E 
 4534              	.LASF274:
 4535 0d00 4359424C 		.ascii	"CYBLE_EVT_CPSS_INDICATION_CONFIRMED\000"
 4535      455F4556 
 4535      545F4350 
 4535      53535F49 
 4535      4E444943 
 4536              	.LASF186:
 4537 0d24 4359424C 		.ascii	"CYBLE_HTS_DESCR_COUNT\000"
 4537      455F4854 
 4537      535F4445 
 4537      5343525F 
 4537      434F554E 
 4538              	.LASF271:
 4539 0d3a 4359424C 		.ascii	"CYBLE_EVT_CPSS_NOTIFICATION_DISABLED\000"
 4539      455F4556 
 4539      545F4350 
 4539      53535F4E 
 4539      4F544946 
 4540              	.LASF396:
 4541 0d5f 4359424C 		.ascii	"CYBLE_EVT_RSCSC_INDICATION\000"
 4541      455F4556 
 4541      545F5253 
 4541      4353435F 
 4541      494E4449 
 4542              	.LASF446:
 4543 0d7a 4359424C 		.ascii	"CYBLE_EVT_WSSC_READ_DESCR_RESPONSE\000"
 4543      455F4556 
 4543      545F5753 
 4543      53435F52 
ARM GAS  C:\Users\Henny\AppData\Local\Temp\ccRrnRtI.s 			page 100


 4543      4541445F 
 4544              	.LASF432:
 4545 0d9d 4359424C 		.ascii	"CYBLE_EVT_WPTSS_INDICATION_DISABLED\000"
 4545      455F4556 
 4545      545F5750 
 4545      5453535F 
 4545      494E4449 
 4546              	.LASF68:
 4547 0dc1 4359424C 		.ascii	"CYBLE_EVT_L2CAP_CBFC_TX_CREDIT_IND\000"
 4547      455F4556 
 4547      545F4C32 
 4547      4341505F 
 4547      43424643 
 4548              	.LASF161:
 4549 0de4 61747448 		.ascii	"attHandle\000"
 4549      616E646C 
 4549      6500
 4550              	.LASF202:
 4551 0dee 4359424C 		.ascii	"CYBLE_EVT_GATTC_INDICATION\000"
 4551      455F4556 
 4551      545F4741 
 4551      5454435F 
 4551      494E4449 
 4552              	.LASF403:
 4553 0e09 4359424C 		.ascii	"CYBLE_EVT_SCPSS_NOTIFICATION_ENABLED\000"
 4553      455F4556 
 4553      545F5343 
 4553      5053535F 
 4553      4E4F5449 
 4554              	.LASF65:
 4555 0e2e 4359424C 		.ascii	"CYBLE_EVT_L2CAP_CBFC_DISCONN_CNF\000"
 4555      455F4556 
 4555      545F4C32 
 4555      4341505F 
 4555      43424643 
 4556              	.LASF43:
 4557 0e4f 4359424C 		.ascii	"CYBLE_EVT_GATTC_FIND_BY_TYPE_VALUE_RSP\000"
 4557      455F4556 
 4557      545F4741 
 4557      5454435F 
 4557      46494E44 
 4558              	.LASF214:
 4559 0e76 4359424C 		.ascii	"CYBLE_EVT_ANCSS_NOTIFICATION_ENABLED\000"
 4559      455F4556 
 4559      545F414E 
 4559      4353535F 
 4559      4E4F5449 
 4560              	.LASF408:
 4561 0e9b 4359424C 		.ascii	"CYBLE_EVT_SCPSC_WRITE_DESCR_RESPONSE\000"
 4561      455F4556 
 4561      545F5343 
 4561      5053435F 
 4561      57524954 
 4562              	.LASF14:
 4563 0ec0 63686172 		.ascii	"char\000"
 4563      00
 4564              	.LASF472:
ARM GAS  C:\Users\Henny\AppData\Local\Temp\ccRrnRtI.s 			page 101


 4565 0ec5 72657175 		.ascii	"requestValue\000"
 4565      65737456 
 4565      616C7565 
 4565      00
 4566              	.LASF155:
 4567 0ed2 6D617841 		.ascii	"maxAttrLength\000"
 4567      7474724C 
 4567      656E6774 
 4567      6800
 4568              	.LASF411:
 4569 0ee0 4359424C 		.ascii	"CYBLE_EVT_TPSC_NOTIFICATION\000"
 4569      455F4556 
 4569      545F5450 
 4569      53435F4E 
 4569      4F544946 
 4570              	.LASF211:
 4571 0efc 4359424C 		.ascii	"CYBLE_EVT_GATTC_INCL_DISCOVERY_COMPLETE\000"
 4571      455F4556 
 4571      545F4741 
 4571      5454435F 
 4571      494E434C 
 4572              	.LASF46:
 4573 0f24 4359424C 		.ascii	"CYBLE_EVT_GATTC_READ_MULTI_RSP\000"
 4573      455F4556 
 4573      545F4741 
 4573      5454435F 
 4573      52454144 
 4574              	.LASF16:
 4575 0f43 4359424C 		.ascii	"CYBLE_EVT_HOST_INVALID\000"
 4575      455F4556 
 4575      545F484F 
 4575      53545F49 
 4575      4E56414C 
 4576              	.LASF116:
 4577 0f5a 4359424C 		.ascii	"CYBLE_GATT_ERR_UNLIKELY_ERROR\000"
 4577      455F4741 
 4577      54545F45 
 4577      52525F55 
 4577      4E4C494B 
 4578              	.LASF330:
 4579 0f78 4359424C 		.ascii	"CYBLE_EVT_GLSC_READ_DESCR_RESPONSE\000"
 4579      455F4556 
 4579      545F474C 
 4579      53435F52 
 4579      4541445F 
 4580              	.LASF80:
 4581 0f9b 4359424C 		.ascii	"CYBLE_ERROR_NO_DEVICE_ENTITY\000"
 4581      455F4552 
 4581      524F525F 
 4581      4E4F5F44 
 4581      45564943 
 4582              	.LASF45:
 4583 0fb8 4359424C 		.ascii	"CYBLE_EVT_GATTC_READ_BLOB_RSP\000"
 4583      455F4556 
 4583      545F4741 
 4583      5454435F 
 4583      52454144 
ARM GAS  C:\Users\Henny\AppData\Local\Temp\ccRrnRtI.s 			page 102


 4584              	.LASF355:
 4585 0fd6 4359424C 		.ascii	"CYBLE_EVT_HTSS_INDICATION_DISABLED\000"
 4585      455F4556 
 4585      545F4854 
 4585      53535F49 
 4585      4E444943 
 4586              	.LASF402:
 4587 0ff9 4359424C 		.ascii	"CYBLE_EVT_RTUSC_READ_CHAR_RESPONSE\000"
 4587      455F4556 
 4587      545F5254 
 4587      5553435F 
 4587      52454144 
 4588              	.LASF52:
 4589 101c 4359424C 		.ascii	"CYBLE_EVT_GATTC_EXEC_WRITE_RSP\000"
 4589      455F4556 
 4589      545F4741 
 4589      5454435F 
 4589      45584543 
 4590              	.LASF120:
 4591 103b 4359424C 		.ascii	"CYBLE_GATT_ERR_HEART_RATE_CONTROL_POINT_NOT_SUPPORT"
 4591      455F4741 
 4591      54545F45 
 4591      52525F48 
 4591      45415254 
 4592 106e 454400   		.ascii	"ED\000"
 4593              	.LASF443:
 4594 1071 4359424C 		.ascii	"CYBLE_EVT_WSSS_INDICATION_CONFIRMED\000"
 4594      455F4556 
 4594      545F5753 
 4594      53535F49 
 4594      4E444943 
 4595              	.LASF113:
 4596 1095 4359424C 		.ascii	"CYBLE_GATT_ERR_ATTRIBUTE_NOT_LONG\000"
 4596      455F4741 
 4596      54545F45 
 4596      52525F41 
 4596      54545249 
 4597              	.LASF303:
 4598 10b7 4359424C 		.ascii	"CYBLE_EVT_CTSC_WRITE_DESCR_RESPONSE\000"
 4598      455F4556 
 4598      545F4354 
 4598      53435F57 
 4598      52495445 
 4599              	.LASF416:
 4600 10db 4359424C 		.ascii	"CYBLE_EVT_UDSS_INDICATION_DISABLED\000"
 4600      455F4556 
 4600      545F5544 
 4600      53535F49 
 4600      4E444943 
 4601              	.LASF173:
 4602 10fe 4359424C 		.ascii	"CYBLE_DIS_SOFTWARE_REV\000"
 4602      455F4449 
 4602      535F534F 
 4602      46545741 
 4602      52455F52 
 4603              	.LASF57:
 4604 1115 4359424C 		.ascii	"CYBLE_EVT_GATTC_STOP_CMD_COMPLETE\000"
ARM GAS  C:\Users\Henny\AppData\Local\Temp\ccRrnRtI.s 			page 103


 4604      455F4556 
 4604      545F4741 
 4604      5454435F 
 4604      53544F50 
 4605              	.LASF277:
 4606 1137 4359424C 		.ascii	"CYBLE_EVT_CPSS_CHAR_WRITE\000"
 4606      455F4556 
 4606      545F4350 
 4606      53535F43 
 4606      4841525F 
 4607              	.LASF344:
 4608 1151 4359424C 		.ascii	"CYBLE_EVT_HRSS_ENERGY_EXPENDED_RESET\000"
 4608      455F4556 
 4608      545F4852 
 4608      53535F45 
 4608      4E455247 
 4609              	.LASF134:
 4610 1176 4359424C 		.ascii	"CYBLE_GATT_ERR_ANCS_ACTION_FAILED\000"
 4610      455F4741 
 4610      54545F45 
 4610      52525F41 
 4610      4E43535F 
 4611              	.LASF169:
 4612 1198 4359424C 		.ascii	"CYBLE_DIS_MODEL_NUMBER\000"
 4612      455F4449 
 4612      535F4D4F 
 4612      44454C5F 
 4612      4E554D42 
 4613              	.LASF307:
 4614 11af 4359424C 		.ascii	"CYBLE_EVT_ESSS_NOTIFICATION_DISABLED\000"
 4614      455F4556 
 4614      545F4553 
 4614      53535F4E 
 4614      4F544946 
 4615              	.LASF166:
 4616 11d4 4359424C 		.ascii	"CYBLE_GATTS_DB_T\000"
 4616      455F4741 
 4616      5454535F 
 4616      44425F54 
 4616      00
 4617              	.LASF430:
 4618 11e5 4359424C 		.ascii	"CYBLE_EVT_WPTSS_NOTIFICATION_DISABLED\000"
 4618      455F4556 
 4618      545F5750 
 4618      5453535F 
 4618      4E4F5449 
 4619              	.LASF247:
 4620 120b 4359424C 		.ascii	"CYBLE_EVT_BLSS_NOTIFICATION_ENABLED\000"
 4620      455F4556 
 4620      545F424C 
 4620      53535F4E 
 4620      4F544946 
 4621              	.LASF174:
 4622 122f 4359424C 		.ascii	"CYBLE_DIS_SYSTEM_ID\000"
 4622      455F4449 
 4622      535F5359 
 4622      5354454D 
ARM GAS  C:\Users\Henny\AppData\Local\Temp\ccRrnRtI.s 			page 104


 4622      5F494400 
 4623              	.LASF444:
 4624 1243 4359424C 		.ascii	"CYBLE_EVT_WSSC_INDICATION\000"
 4624      455F4556 
 4624      545F5753 
 4624      53435F49 
 4624      4E444943 
 4625              	.LASF74:
 4626 125d 4359424C 		.ascii	"CYBLE_ERROR_INVALID_PARAMETER\000"
 4626      455F4552 
 4626      524F525F 
 4626      494E5641 
 4626      4C49445F 
 4627              	.LASF315:
 4628 127b 4359424C 		.ascii	"CYBLE_EVT_ESSC_INDICATION\000"
 4628      455F4556 
 4628      545F4553 
 4628      53435F49 
 4628      4E444943 
 4629              	.LASF221:
 4630 1295 4359424C 		.ascii	"CYBLE_EVT_ANCSC_WRITE_DESCR_RESPONSE\000"
 4630      455F4556 
 4630      545F414E 
 4630      4353435F 
 4630      57524954 
 4631              	.LASF398:
 4632 12ba 4359424C 		.ascii	"CYBLE_EVT_RSCSC_WRITE_CHAR_RESPONSE\000"
 4632      455F4556 
 4632      545F5253 
 4632      4353435F 
 4632      57524954 
 4633              	.LASF414:
 4634 12de 4359424C 		.ascii	"CYBLE_EVT_TPSC_WRITE_DESCR_RESPONSE\000"
 4634      455F4556 
 4634      545F5450 
 4634      53435F57 
 4634      52495445 
 4635              	.LASF286:
 4636 1302 4359424C 		.ascii	"CYBLE_EVT_CSCSS_NOTIFICATION_DISABLED\000"
 4636      455F4556 
 4636      545F4353 
 4636      4353535F 
 4636      4E4F5449 
 4637              	.LASF297:
 4638 1328 4359424C 		.ascii	"CYBLE_EVT_CTSS_NOTIFICATION_ENABLED\000"
 4638      455F4556 
 4638      545F4354 
 4638      53535F4E 
 4638      4F544946 
 4639              	.LASF392:
 4640 134c 4359424C 		.ascii	"CYBLE_EVT_RSCSS_INDICATION_DISABLED\000"
 4640      455F4556 
 4640      545F5253 
 4640      4353535F 
 4640      494E4449 
 4641              	.LASF462:
 4642 1370 4379426C 		.ascii	"CyBle_HtssSetCharacteristicDescriptor\000"
ARM GAS  C:\Users\Henny\AppData\Local\Temp\ccRrnRtI.s 			page 105


 4642      655F4874 
 4642      73735365 
 4642      74436861 
 4642      72616374 
 4643              	.LASF434:
 4644 1396 4359424C 		.ascii	"CYBLE_EVT_WPTSS_WRITE_CHAR\000"
 4644      455F4556 
 4644      545F5750 
 4644      5453535F 
 4644      57524954 
 4645              	.LASF365:
 4646 13b1 4359424C 		.ascii	"CYBLE_EVT_LLSS_WRITE_CHAR_REQ\000"
 4646      455F4556 
 4646      545F4C4C 
 4646      53535F57 
 4646      52495445 
 4647              	.LASF76:
 4648 13cf 4359424C 		.ascii	"CYBLE_ERROR_MEMORY_ALLOCATION_FAILED\000"
 4648      455F4552 
 4648      524F525F 
 4648      4D454D4F 
 4648      52595F41 
 4649              	.LASF350:
 4650 13f4 4359424C 		.ascii	"CYBLE_EVT_HRSC_READ_DESCR_RESPONSE\000"
 4650      455F4556 
 4650      545F4852 
 4650      53435F52 
 4650      4541445F 
 4651              	.LASF190:
 4652 1417 4359424C 		.ascii	"CYBLE_HTSS_CHAR_T\000"
 4652      455F4854 
 4652      53535F43 
 4652      4841525F 
 4652      5400
 4653              	.LASF285:
 4654 1429 4359424C 		.ascii	"CYBLE_EVT_CSCSS_NOTIFICATION_ENABLED\000"
 4654      455F4556 
 4654      545F4353 
 4654      4353535F 
 4654      4E4F5449 
 4655              	.LASF457:
 4656 144e 61747472 		.ascii	"attrValue\000"
 4656      56616C75 
 4656      6500
 4657              	.LASF249:
 4658 1458 4359424C 		.ascii	"CYBLE_EVT_BLSC_INDICATION\000"
 4658      455F4556 
 4658      545F424C 
 4658      53435F49 
 4658      4E444943 
 4659              	.LASF338:
 4660 1472 4359424C 		.ascii	"CYBLE_EVT_HIDSS_REPORT_CHAR_WRITE\000"
 4660      455F4556 
 4660      545F4849 
 4660      4453535F 
 4660      5245504F 
 4661              	.LASF237:
ARM GAS  C:\Users\Henny\AppData\Local\Temp\ccRrnRtI.s 			page 106


 4662 1494 4359424C 		.ascii	"CYBLE_EVT_BCSS_INDICATION_ENABLED\000"
 4662      455F4556 
 4662      545F4243 
 4662      53535F49 
 4662      4E444943 
 4663              	.LASF127:
 4664 14b6 4359424C 		.ascii	"CYBLE_GATTS_ERR_CCCD_IMPROPERLY_CONFIGURED\000"
 4664      455F4741 
 4664      5454535F 
 4664      4552525F 
 4664      43434344 
 4665              	.LASF438:
 4666 14e1 4359424C 		.ascii	"CYBLE_EVT_WPTSC_READ_CHAR_RESPONSE\000"
 4666      455F4556 
 4666      545F5750 
 4666      5453435F 
 4666      52454144 
 4667              	.LASF96:
 4668 1504 4359424C 		.ascii	"CYBLE_ERROR_MAX\000"
 4668      455F4552 
 4668      524F525F 
 4668      4D415800 
 4669              	.LASF377:
 4670 1514 4359424C 		.ascii	"CYBLE_EVT_LNSC_WRITE_CHAR_RESPONSE\000"
 4670      455F4556 
 4670      545F4C4E 
 4670      53435F57 
 4670      52495445 
 4671              	.LASF60:
 4672 1537 4359424C 		.ascii	"CYBLE_EVT_L2CAP_CONN_PARAM_UPDATE_RSP\000"
 4672      455F4556 
 4672      545F4C32 
 4672      4341505F 
 4672      434F4E4E 
 4673              	.LASF487:
 4674 155d 2E5C4765 		.ascii	".\\Generated_Source\\PSoC4\\BLE_hts.c\000"
 4674      6E657261 
 4674      7465645F 
 4674      536F7572 
 4674      63655C50 
 4675              	.LASF228:
 4676 1580 4359424C 		.ascii	"CYBLE_EVT_ANSC_WRITE_CHAR_RESPONSE\000"
 4676      455F4556 
 4676      545F414E 
 4676      53435F57 
 4676      52495445 
 4677              	.LASF419:
 4678 15a3 4359424C 		.ascii	"CYBLE_EVT_UDSS_NOTIFICATION_DISABLED\000"
 4678      455F4556 
 4678      545F5544 
 4678      53535F4E 
 4678      4F544946 
 4679              	.LASF296:
 4680 15c8 4359424C 		.ascii	"CYBLE_EVT_CSCSC_WRITE_DESCR_RESPONSE\000"
 4680      455F4556 
 4680      545F4353 
 4680      4353435F 
ARM GAS  C:\Users\Henny\AppData\Local\Temp\ccRrnRtI.s 			page 107


 4680      57524954 
 4681              	.LASF421:
 4682 15ed 4359424C 		.ascii	"CYBLE_EVT_UDSS_WRITE_CHAR\000"
 4682      455F4556 
 4682      545F5544 
 4682      53535F57 
 4682      52495445 
 4683              	.LASF238:
 4684 1607 4359424C 		.ascii	"CYBLE_EVT_BCSS_INDICATION_DISABLED\000"
 4684      455F4556 
 4684      545F4243 
 4684      53535F49 
 4684      4E444943 
 4685              	.LASF345:
 4686 162a 4359424C 		.ascii	"CYBLE_EVT_HRSS_NOTIFICATION_ENABLED\000"
 4686      455F4556 
 4686      545F4852 
 4686      53535F4E 
 4686      4F544946 
 4687              	.LASF121:
 4688 164e 4359424C 		.ascii	"CYBLE_GATT_ERR_USER_DATA_ACCESS_NOT_PERMITTED\000"
 4688      455F4741 
 4688      54545F45 
 4688      52525F55 
 4688      5345525F 
 4689              	.LASF479:
 4690 167c 4379426C 		.ascii	"CyBle_HtssConfirmationEventHandler\000"
 4690      655F4874 
 4690      7373436F 
 4690      6E666972 
 4690      6D617469 
 4691              	.LASF26:
 4692 169f 4359424C 		.ascii	"CYBLE_EVT_GAP_AUTH_COMPLETE\000"
 4692      455F4556 
 4692      545F4741 
 4692      505F4155 
 4692      54485F43 
 4693              	.LASF387:
 4694 16bb 4359424C 		.ascii	"CYBLE_EVT_PASSC_READ_DESCR_RESPONSE\000"
 4694      455F4556 
 4694      545F5041 
 4694      5353435F 
 4694      52454144 
 4695              	.LASF318:
 4696 16df 4359424C 		.ascii	"CYBLE_EVT_ESSC_READ_DESCR_RESPONSE\000"
 4696      455F4556 
 4696      545F4553 
 4696      53435F52 
 4696      4541445F 
 4697              	.LASF27:
 4698 1702 4359424C 		.ascii	"CYBLE_EVT_GAP_AUTH_FAILED\000"
 4698      455F4556 
 4698      545F4741 
 4698      505F4155 
 4698      54485F46 
 4699              	.LASF337:
 4700 171c 4359424C 		.ascii	"CYBLE_EVT_HIDSS_EXIT_SUSPEND\000"
ARM GAS  C:\Users\Henny\AppData\Local\Temp\ccRrnRtI.s 			page 108


 4700      455F4556 
 4700      545F4849 
 4700      4453535F 
 4700      45584954 
 4701              	.LASF135:
 4702 1739 4359424C 		.ascii	"CYBLE_GATT_ERR_CCCD_IMPROPERLY_CONFIGURED\000"
 4702      455F4741 
 4702      54545F45 
 4702      52525F43 
 4702      4343445F 
 4703              	.LASF77:
 4704 1763 4359424C 		.ascii	"CYBLE_ERROR_INSUFFICIENT_RESOURCES\000"
 4704      455F4552 
 4704      524F525F 
 4704      494E5355 
 4704      46464943 
 4705              	.LASF390:
 4706 1786 4359424C 		.ascii	"CYBLE_EVT_RSCSS_NOTIFICATION_DISABLED\000"
 4706      455F4556 
 4706      545F5253 
 4706      4353535F 
 4706      4E4F5449 
 4707              	.LASF125:
 4708 17ac 4359424C 		.ascii	"CYBLE_GATT_ERR_OP_CODE_NOT_SUPPORTED\000"
 4708      455F4741 
 4708      54545F45 
 4708      52525F4F 
 4708      505F434F 
 4709              	.LASF341:
 4710 17d1 4359424C 		.ascii	"CYBLE_EVT_HIDSC_WRITE_CHAR_RESPONSE\000"
 4710      455F4556 
 4710      545F4849 
 4710      4453435F 
 4710      57524954 
 4711              	.LASF5:
 4712 17f5 6C6F6E67 		.ascii	"long unsigned int\000"
 4712      20756E73 
 4712      69676E65 
 4712      6420696E 
 4712      7400
 4713              	.LASF364:
 4714 1807 4359424C 		.ascii	"CYBLE_EVT_IASS_WRITE_CHAR_CMD\000"
 4714      455F4556 
 4714      545F4941 
 4714      53535F57 
 4714      52495445 
 4715              	.LASF459:
 4716 1825 6C6F6348 		.ascii	"locHandleValuePair\000"
 4716      616E646C 
 4716      6556616C 
 4716      75655061 
 4716      697200
 4717              	.LASF381:
 4718 1838 4359424C 		.ascii	"CYBLE_EVT_PASSS_NOTIFICATION_ENABLED\000"
 4718      455F4556 
 4718      545F5041 
 4718      5353535F 
ARM GAS  C:\Users\Henny\AppData\Local\Temp\ccRrnRtI.s 			page 109


 4718      4E4F5449 
 4719              	.LASF384:
 4720 185d 4359424C 		.ascii	"CYBLE_EVT_PASSC_NOTIFICATION\000"
 4720      455F4556 
 4720      545F5041 
 4720      5353435F 
 4720      4E4F5449 
 4721              	.LASF431:
 4722 187a 4359424C 		.ascii	"CYBLE_EVT_WPTSS_INDICATION_ENABLED\000"
 4722      455F4556 
 4722      545F5750 
 4722      5453535F 
 4722      494E4449 
 4723              	.LASF227:
 4724 189d 4359424C 		.ascii	"CYBLE_EVT_ANSC_READ_CHAR_RESPONSE\000"
 4724      455F4556 
 4724      545F414E 
 4724      53435F52 
 4724      4541445F 
 4725              	.LASF87:
 4726 18bf 4359424C 		.ascii	"CYBLE_ERROR_L2CAP_PSM_ALREADY_REGISTERED\000"
 4726      455F4552 
 4726      524F525F 
 4726      4C324341 
 4726      505F5053 
 4727              	.LASF357:
 4728 18e8 4359424C 		.ascii	"CYBLE_EVT_HTSS_CHAR_WRITE\000"
 4728      455F4556 
 4728      545F4854 
 4728      53535F43 
 4728      4841525F 
 4729              	.LASF159:
 4730 1902 61747456 		.ascii	"attValueUuid\000"
 4730      616C7565 
 4730      55756964 
 4730      00
 4731              	.LASF131:
 4732 190f 4359424C 		.ascii	"CYBLE_GATT_ERR_ANCS_UNKNOWN_COMMAND\000"
 4732      455F4741 
 4732      54545F45 
 4732      52525F41 
 4732      4E43535F 
 4733              	.LASF231:
 4734 1933 4359424C 		.ascii	"CYBLE_EVT_BASS_NOTIFICATION_ENABLED\000"
 4734      455F4556 
 4734      545F4241 
 4734      53535F4E 
 4734      4F544946 
 4735              	.LASF304:
 4736 1957 4359424C 		.ascii	"CYBLE_EVT_CTSC_WRITE_CHAR_RESPONSE\000"
 4736      455F4556 
 4736      545F4354 
 4736      53435F57 
 4736      52495445 
 4737              	.LASF383:
 4738 197a 4359424C 		.ascii	"CYBLE_EVT_PASSS_WRITE_CHAR\000"
 4738      455F4556 
ARM GAS  C:\Users\Henny\AppData\Local\Temp\ccRrnRtI.s 			page 110


 4738      545F5041 
 4738      5353535F 
 4738      57524954 
 4739              	.LASF281:
 4740 1995 4359424C 		.ascii	"CYBLE_EVT_CPSC_WRITE_CHAR_RESPONSE\000"
 4740      455F4556 
 4740      545F4350 
 4740      53435F57 
 4740      52495445 
 4741              	.LASF461:
 4742 19b8 4379426C 		.ascii	"CyBle_HtssGetCharacteristicValue\000"
 4742      655F4874 
 4742      73734765 
 4742      74436861 
 4742      72616374 
 4743              	.LASF170:
 4744 19d9 4359424C 		.ascii	"CYBLE_DIS_SERIAL_NUMBER\000"
 4744      455F4449 
 4744      535F5345 
 4744      5249414C 
 4744      5F4E554D 
 4745              	.LASF181:
 4746 19f1 4359424C 		.ascii	"CYBLE_HTS_MEASURE_INTERVAL\000"
 4746      455F4854 
 4746      535F4D45 
 4746      41535552 
 4746      455F494E 
 4747              	.LASF32:
 4748 1a0c 4359424C 		.ascii	"CYBLE_EVT_GAP_CONNECTION_UPDATE_COMPLETE\000"
 4748      455F4556 
 4748      545F4741 
 4748      505F434F 
 4748      4E4E4543 
 4749              	.LASF266:
 4750 1a35 4359424C 		.ascii	"CYBLE_EVT_CGMSC_READ_CHAR_RESPONSE\000"
 4750      455F4556 
 4750      545F4347 
 4750      4D53435F 
 4750      52454144 
 4751              	.LASF450:
 4752 1a58 4359424C 		.ascii	"CYBLE_STATE_INITIALIZING\000"
 4752      455F5354 
 4752      4154455F 
 4752      494E4954 
 4752      49414C49 
 4753              	.LASF183:
 4754 1a71 4359424C 		.ascii	"CYBLE_HTS_CHAR_INDEX_T\000"
 4754      455F4854 
 4754      535F4348 
 4754      41525F49 
 4754      4E444558 
 4755              	.LASF294:
 4756 1a88 4359424C 		.ascii	"CYBLE_EVT_CSCSC_WRITE_CHAR_RESPONSE\000"
 4756      455F4556 
 4756      545F4353 
 4756      4353435F 
 4756      57524954 
ARM GAS  C:\Users\Henny\AppData\Local\Temp\ccRrnRtI.s 			page 111


 4757              	.LASF64:
 4758 1aac 4359424C 		.ascii	"CYBLE_EVT_L2CAP_CBFC_DISCONN_IND\000"
 4758      455F4556 
 4758      545F4C32 
 4758      4341505F 
 4758      43424643 
 4759              	.LASF290:
 4760 1acd 4359424C 		.ascii	"CYBLE_EVT_CSCSS_CHAR_WRITE\000"
 4760      455F4556 
 4760      545F4353 
 4760      4353535F 
 4760      43484152 
 4761              	.LASF397:
 4762 1ae8 4359424C 		.ascii	"CYBLE_EVT_RSCSC_READ_CHAR_RESPONSE\000"
 4762      455F4556 
 4762      545F5253 
 4762      4353435F 
 4762      52454144 
 4763              	.LASF24:
 4764 1b0b 4359424C 		.ascii	"CYBLE_EVT_GAP_PASSKEY_ENTRY_REQUEST\000"
 4764      455F4556 
 4764      545F4741 
 4764      505F5041 
 4764      53534B45 
 4765              	.LASF372:
 4766 1b2f 4359424C 		.ascii	"CYBLE_EVT_LNSS_NOTIFICATION_DISABLED\000"
 4766      455F4556 
 4766      545F4C4E 
 4766      53535F4E 
 4766      4F544946 
 4767              	.LASF275:
 4768 1b54 4359424C 		.ascii	"CYBLE_EVT_CPSS_BROADCAST_ENABLED\000"
 4768      455F4556 
 4768      545F4350 
 4768      53535F42 
 4768      524F4144 
 4769              	.LASF328:
 4770 1b75 4359424C 		.ascii	"CYBLE_EVT_GLSC_READ_CHAR_RESPONSE\000"
 4770      455F4556 
 4770      545F474C 
 4770      53435F52 
 4770      4541445F 
 4771              	.LASF358:
 4772 1b97 4359424C 		.ascii	"CYBLE_EVT_HTSC_NOTIFICATION\000"
 4772      455F4556 
 4772      545F4854 
 4772      53435F4E 
 4772      4F544946 
 4773              	.LASF6:
 4774 1bb3 6C6F6E67 		.ascii	"long long int\000"
 4774      206C6F6E 
 4774      6720696E 
 4774      7400
 4775              	.LASF412:
 4776 1bc1 4359424C 		.ascii	"CYBLE_EVT_TPSC_READ_CHAR_RESPONSE\000"
 4776      455F4556 
 4776      545F5450 
ARM GAS  C:\Users\Henny\AppData\Local\Temp\ccRrnRtI.s 			page 112


 4776      53435F52 
 4776      4541445F 
 4777              	.LASF176:
 4778 1be3 4359424C 		.ascii	"CYBLE_DIS_PNP_ID\000"
 4778      455F4449 
 4778      535F504E 
 4778      505F4944 
 4778      00
 4779              	.LASF208:
 4780 1bf4 4359424C 		.ascii	"CYBLE_EVT_GATTC_CHAR_DUPLICATION\000"
 4780      455F4556 
 4780      545F4741 
 4780      5454435F 
 4780      43484152 
 4781              	.LASF323:
 4782 1c15 4359424C 		.ascii	"CYBLE_EVT_GLSS_NOTIFICATION_ENABLED\000"
 4782      455F4556 
 4782      545F474C 
 4782      53535F4E 
 4782      4F544946 
 4783              	.LASF111:
 4784 1c39 4359424C 		.ascii	"CYBLE_GATT_ERR_PREPARE_WRITE_QUEUE_FULL\000"
 4784      455F4741 
 4784      54545F45 
 4784      52525F50 
 4784      52455041 
 4785              	.LASF88:
 4786 1c61 4359424C 		.ascii	"CYBLE_ERROR_L2CAP_PSM_NOT_REGISTERED\000"
 4786      455F4552 
 4786      524F525F 
 4786      4C324341 
 4786      505F5053 
 4787              	.LASF78:
 4788 1c86 4359424C 		.ascii	"CYBLE_ERROR_OOB_NOT_AVAILABLE\000"
 4788      455F4552 
 4788      524F525F 
 4788      4F4F425F 
 4788      4E4F545F 
 4789              	.LASF258:
 4790 1ca4 4359424C 		.ascii	"CYBLE_EVT_CGMSS_INDICATION_ENABLED\000"
 4790      455F4556 
 4790      545F4347 
 4790      4D53535F 
 4790      494E4449 
 4791              	.LASF473:
 4792 1cc7 6C6F7765 		.ascii	"lowerValue\000"
 4792      7256616C 
 4792      756500
 4793              	.LASF13:
 4794 1cd2 646F7562 		.ascii	"double\000"
 4794      6C6500
 4795              	.LASF93:
 4796 1cd9 4359424C 		.ascii	"CYBLE_ERROR_DEVICE_ALREADY_EXISTS\000"
 4796      455F4552 
 4796      524F525F 
 4796      44455649 
 4796      43455F41 
ARM GAS  C:\Users\Henny\AppData\Local\Temp\ccRrnRtI.s 			page 113


 4797              	.LASF309:
 4798 1cfb 4359424C 		.ascii	"CYBLE_EVT_ESSS_INDICATION_DISABLED\000"
 4798      455F4556 
 4798      545F4553 
 4798      53535F49 
 4798      4E444943 
 4799              	.LASF70:
 4800 1d1e 4359424C 		.ascii	"CYBLE_EVT_PENDING_FLASH_WRITE\000"
 4800      455F4556 
 4800      545F5045 
 4800      4E44494E 
 4800      475F464C 
 4801              	.LASF114:
 4802 1d3c 4359424C 		.ascii	"CYBLE_GATT_ERR_INSUFFICIENT_ENC_KEY_SIZE\000"
 4802      455F4741 
 4802      54545F45 
 4802      52525F49 
 4802      4E535546 
 4803              	.LASF429:
 4804 1d65 4359424C 		.ascii	"CYBLE_EVT_WPTSS_NOTIFICATION_ENABLED\000"
 4804      455F4556 
 4804      545F5750 
 4804      5453535F 
 4804      4E4F5449 
 4805              	.LASF136:
 4806 1d8a 4359424C 		.ascii	"CYBLE_GATT_ERR_PROCEDURE_ALREADY_IN_PROGRESS\000"
 4806      455F4741 
 4806      54545F45 
 4806      52525F50 
 4806      524F4345 
 4807              	.LASF379:
 4808 1db7 4359424C 		.ascii	"CYBLE_EVT_LNSC_WRITE_DESCR_RESPONSE\000"
 4808      455F4556 
 4808      545F4C4E 
 4808      53435F57 
 4808      52495445 
 4809              	.LASF366:
 4810 1ddb 4359424C 		.ascii	"CYBLE_EVT_LLSC_READ_CHAR_RESPONSE\000"
 4810      455F4556 
 4810      545F4C4C 
 4810      53435F52 
 4810      4541445F 
 4811              	.LASF289:
 4812 1dfd 4359424C 		.ascii	"CYBLE_EVT_CSCSS_INDICATION_CONFIRMATION\000"
 4812      455F4556 
 4812      545F4353 
 4812      4353535F 
 4812      494E4449 
 4813              	.LASF90:
 4814 1e25 4359424C 		.ascii	"CYBLE_ERROR_L2CAP_CHANNEL_NOT_FOUND\000"
 4814      455F4552 
 4814      524F525F 
 4814      4C324341 
 4814      505F4348 
 4815              	.LASF483:
 4816 1e49 6379426C 		.ascii	"cyBle_gattDB\000"
 4816      655F6761 
ARM GAS  C:\Users\Henny\AppData\Local\Temp\ccRrnRtI.s 			page 114


 4816      74744442 
 4816      00
 4817              	.LASF81:
 4818 1e56 4359424C 		.ascii	"CYBLE_ERROR_REPEATED_ATTEMPTS\000"
 4818      455F4552 
 4818      524F525F 
 4818      52455045 
 4818      41544544 
 4819              	.LASF313:
 4820 1e74 4359424C 		.ascii	"CYBLE_EVT_ESSS_DESCR_WRITE\000"
 4820      455F4556 
 4820      545F4553 
 4820      53535F44 
 4820      45534352 
 4821              	.LASF308:
 4822 1e8f 4359424C 		.ascii	"CYBLE_EVT_ESSS_INDICATION_ENABLED\000"
 4822      455F4556 
 4822      545F4553 
 4822      53535F49 
 4822      4E444943 
 4823              	.LASF312:
 4824 1eb1 4359424C 		.ascii	"CYBLE_EVT_ESSS_EXEC_WRITE_REQ\000"
 4824      455F4556 
 4824      545F4553 
 4824      53535F45 
 4824      5845435F 
 4825              	.LASF12:
 4826 1ecf 666C6F61 		.ascii	"float\000"
 4826      7400
 4827              	.LASF406:
 4828 1ed5 4359424C 		.ascii	"CYBLE_EVT_SCPSC_NOTIFICATION\000"
 4828      455F4556 
 4828      545F5343 
 4828      5053435F 
 4828      4E4F5449 
 4829              	.LASF335:
 4830 1ef2 4359424C 		.ascii	"CYBLE_EVT_HIDSS_REPORT_MODE_ENTER\000"
 4830      455F4556 
 4830      545F4849 
 4830      4453535F 
 4830      5245504F 
 4831              	.LASF314:
 4832 1f14 4359424C 		.ascii	"CYBLE_EVT_ESSC_NOTIFICATION\000"
 4832      455F4556 
 4832      545F4553 
 4832      53435F4E 
 4832      4F544946 
 4833              	.LASF94:
 4834 1f30 4359424C 		.ascii	"CYBLE_ERROR_FLASH_WRITE_NOT_PERMITED\000"
 4834      455F4552 
 4834      524F525F 
 4834      464C4153 
 4834      485F5752 
 4835              	.LASF333:
 4836 1f55 4359424C 		.ascii	"CYBLE_EVT_HIDSS_NOTIFICATION_DISABLED\000"
 4836      455F4556 
 4836      545F4849 
ARM GAS  C:\Users\Henny\AppData\Local\Temp\ccRrnRtI.s 			page 115


 4836      4453535F 
 4836      4E4F5449 
 4837              	.LASF58:
 4838 1f7b 4359424C 		.ascii	"CYBLE_EVT_GATTS_READ_CHAR_VAL_ACCESS_REQ\000"
 4838      455F4556 
 4838      545F4741 
 4838      5454535F 
 4838      52454144 
 4839              	.LASF220:
 4840 1fa4 4359424C 		.ascii	"CYBLE_EVT_ANCSC_READ_DESCR_RESPONSE\000"
 4840      455F4556 
 4840      545F414E 
 4840      4353435F 
 4840      52454144 
 4841              	.LASF465:
 4842 1fc8 4379426C 		.ascii	"CyBle_HtssWriteEventHandler\000"
 4842      655F4874 
 4842      73735772 
 4842      69746545 
 4842      76656E74 
 4843              	.LASF464:
 4844 1fe4 4379426C 		.ascii	"CyBle_HtssGetCharacteristicDescriptor\000"
 4844      655F4874 
 4844      73734765 
 4844      74436861 
 4844      72616374 
 4845              	.LASF110:
 4846 200a 4359424C 		.ascii	"CYBLE_GATT_ERR_INSUFFICIENT_AUTHORIZATION\000"
 4846      455F4741 
 4846      54545F45 
 4846      52525F49 
 4846      4E535546 
 4847              	.LASF463:
 4848 2034 64657363 		.ascii	"descrIndex\000"
 4848      72496E64 
 4848      657800
 4849              	.LASF146:
 4850 203f 61747472 		.ascii	"attrHandle\000"
 4850      48616E64 
 4850      6C6500
 4851              	.LASF423:
 4852 204a 4359424C 		.ascii	"CYBLE_EVT_UDSC_NOTIFICATION\000"
 4852      455F4556 
 4852      545F5544 
 4852      53435F4E 
 4852      4F544946 
 4853              	.LASF437:
 4854 2066 4359424C 		.ascii	"CYBLE_EVT_WPTSC_WRITE_CHAR_RESPONSE\000"
 4854      455F4556 
 4854      545F5750 
 4854      5453435F 
 4854      57524954 
 4855              	.LASF151:
 4856 208a 4359424C 		.ascii	"CYBLE_GATTS_WRITE_REQ_PARAM_T\000"
 4856      455F4741 
 4856      5454535F 
 4856      57524954 
ARM GAS  C:\Users\Henny\AppData\Local\Temp\ccRrnRtI.s 			page 116


 4856      455F5245 
 4857              	.LASF8:
 4858 20a8 756E7369 		.ascii	"unsigned int\000"
 4858      676E6564 
 4858      20696E74 
 4858      00
 4859              	.LASF50:
 4860 20b5 4359424C 		.ascii	"CYBLE_EVT_GATTS_PREP_WRITE_REQ\000"
 4860      455F4556 
 4860      545F4741 
 4860      5454535F 
 4860      50524550 
 4861              	.LASF164:
 4862 20d4 61747445 		.ascii	"attEndHandle\000"
 4862      6E644861 
 4862      6E646C65 
 4862      00
 4863              	.LASF107:
 4864 20e1 4359424C 		.ascii	"CYBLE_GATT_ERR_INSUFFICIENT_AUTHENTICATION\000"
 4864      455F4741 
 4864      54545F45 
 4864      52525F49 
 4864      4E535546 
 4865              	.LASF256:
 4866 210c 4359424C 		.ascii	"CYBLE_EVT_BMSC_WRITE_CHAR_RESPONSE\000"
 4866      455F4556 
 4866      545F424D 
 4866      53435F57 
 4866      52495445 
 4867              	.LASF298:
 4868 212f 4359424C 		.ascii	"CYBLE_EVT_CTSS_NOTIFICATION_DISABLED\000"
 4868      455F4556 
 4868      545F4354 
 4868      53535F4E 
 4868      4F544946 
 4869              	.LASF245:
 4870 2154 4359424C 		.ascii	"CYBLE_EVT_BLSS_INDICATION_DISABLED\000"
 4870      455F4556 
 4870      545F424C 
 4870      53535F49 
 4870      4E444943 
 4871              	.LASF175:
 4872 2177 4359424C 		.ascii	"CYBLE_DIS_REG_CERT_DATA\000"
 4872      455F4449 
 4872      535F5245 
 4872      475F4345 
 4872      52545F44 
 4873              	.LASF404:
 4874 218f 4359424C 		.ascii	"CYBLE_EVT_SCPSS_NOTIFICATION_DISABLED\000"
 4874      455F4556 
 4874      545F5343 
 4874      5053535F 
 4874      4E4F5449 
 4875              	.LASF310:
 4876 21b5 4359424C 		.ascii	"CYBLE_EVT_ESSS_INDICATION_CONFIRMATION\000"
 4876      455F4556 
 4876      545F4553 
ARM GAS  C:\Users\Henny\AppData\Local\Temp\ccRrnRtI.s 			page 117


 4876      53535F49 
 4876      4E444943 
 4877              	.LASF124:
 4878 21dc 4359424C 		.ascii	"CYBLE_GATTS_ERR_PROCEDURE_ALREADY_IN_PROGRESS\000"
 4878      455F4741 
 4878      5454535F 
 4878      4552525F 
 4878      50524F43 
 4879              	.LASF456:
 4880 220a 61747472 		.ascii	"attrSize\000"
 4880      53697A65 
 4880      00
 4881              	.LASF196:
 4882 2213 4359424C 		.ascii	"CYBLE_AUTHENTICATION_REQUEST_REPLY\000"
 4882      455F4155 
 4882      5448454E 
 4882      54494341 
 4882      54494F4E 
 4883              	.LASF86:
 4884 2236 4359424C 		.ascii	"CYBLE_ERROR_L2CAP_PSM_WRONG_ENCODING\000"
 4884      455F4552 
 4884      524F525F 
 4884      4C324341 
 4884      505F5053 
 4885              	.LASF248:
 4886 225b 4359424C 		.ascii	"CYBLE_EVT_BLSS_NOTIFICATION_DISABLED\000"
 4886      455F4556 
 4886      545F424C 
 4886      53535F4E 
 4886      4F544946 
 4887              	.LASF112:
 4888 2280 4359424C 		.ascii	"CYBLE_GATT_ERR_ATTRIBUTE_NOT_FOUND\000"
 4888      455F4741 
 4888      54545F45 
 4888      52525F41 
 4888      54545249 
 4889              	.LASF361:
 4890 22a3 4359424C 		.ascii	"CYBLE_EVT_HTSC_WRITE_CHAR_RESPONSE\000"
 4890      455F4556 
 4890      545F4854 
 4890      53435F57 
 4890      52495445 
 4891              	.LASF72:
 4892 22c6 4359424C 		.ascii	"CYBLE_EVT_MAX\000"
 4892      455F4556 
 4892      545F4D41 
 4892      5800
 4893              	.LASF33:
 4894 22d4 4359424C 		.ascii	"CYBLE_EVT_GAPC_SCAN_START_STOP\000"
 4894      455F4556 
 4894      545F4741 
 4894      50435F53 
 4894      43414E5F 
 4895              	.LASF223:
 4896 22f3 4359424C 		.ascii	"CYBLE_EVT_ANSS_NOTIFICATION_ENABLED\000"
 4896      455F4556 
 4896      545F414E 
ARM GAS  C:\Users\Henny\AppData\Local\Temp\ccRrnRtI.s 			page 118


 4896      53535F4E 
 4896      4F544946 
 4897              	.LASF47:
 4898 2317 4359424C 		.ascii	"CYBLE_EVT_GATTS_WRITE_REQ\000"
 4898      455F4556 
 4898      545F4741 
 4898      5454535F 
 4898      57524954 
 4899              	.LASF425:
 4900 2331 4359424C 		.ascii	"CYBLE_EVT_UDSC_WRITE_CHAR_RESPONSE\000"
 4900      455F4556 
 4900      545F5544 
 4900      53435F57 
 4900      52495445 
 4901              	.LASF436:
 4902 2354 4359424C 		.ascii	"CYBLE_EVT_WPTSC_INDICATION\000"
 4902      455F4556 
 4902      545F5750 
 4902      5453435F 
 4902      494E4449 
 4903              	.LASF25:
 4904 236f 4359424C 		.ascii	"CYBLE_EVT_GAP_PASSKEY_DISPLAY_REQUEST\000"
 4904      455F4556 
 4904      545F4741 
 4904      505F5041 
 4904      53534B45 
 4905              	.LASF98:
 4906 2395 4359424C 		.ascii	"CYBLE_ERROR_IND_DISABLED\000"
 4906      455F4552 
 4906      524F525F 
 4906      494E445F 
 4906      44495341 
 4907              	.LASF97:
 4908 23ae 4359424C 		.ascii	"CYBLE_ERROR_NTF_DISABLED\000"
 4908      455F4552 
 4908      524F525F 
 4908      4E54465F 
 4908      44495341 
 4909              	.LASF478:
 4910 23c7 4379426C 		.ascii	"CyBle_HtsRegisterAttrCallback\000"
 4910      655F4874 
 4910      73526567 
 4910      69737465 
 4910      72417474 
 4911              	.LASF44:
 4912 23e5 4359424C 		.ascii	"CYBLE_EVT_GATTC_READ_RSP\000"
 4912      455F4556 
 4912      545F4741 
 4912      5454435F 
 4912      52454144 
 4913              	.LASF279:
 4914 23fe 4359424C 		.ascii	"CYBLE_EVT_CPSC_INDICATION\000"
 4914      455F4556 
 4914      545F4350 
 4914      53435F49 
 4914      4E444943 
 4915              	.LASF109:
ARM GAS  C:\Users\Henny\AppData\Local\Temp\ccRrnRtI.s 			page 119


 4916 2418 4359424C 		.ascii	"CYBLE_GATT_ERR_INVALID_OFFSET\000"
 4916      455F4741 
 4916      54545F45 
 4916      52525F49 
 4916      4E56414C 
 4917              	.LASF305:
 4918 2436 4359424C 		.ascii	"CYBLE_EVT_DISC_READ_CHAR_RESPONSE\000"
 4918      455F4556 
 4918      545F4449 
 4918      53435F52 
 4918      4541445F 
 4919              	.LASF63:
 4920 2458 4359424C 		.ascii	"CYBLE_EVT_L2CAP_CBFC_CONN_CNF\000"
 4920      455F4556 
 4920      545F4C32 
 4920      4341505F 
 4920      43424643 
 4921              	.LASF154:
 4922 2476 4359424C 		.ascii	"CYBLE_GATTS_ATT_GEN_VAL_LEN_T\000"
 4922      455F4741 
 4922      5454535F 
 4922      4154545F 
 4922      47454E5F 
 4923              	.LASF362:
 4924 2494 4359424C 		.ascii	"CYBLE_EVT_HTSC_READ_DESCR_RESPONSE\000"
 4924      455F4556 
 4924      545F4854 
 4924      53435F52 
 4924      4541445F 
 4925              	.LASF448:
 4926 24b7 4359424C 		.ascii	"CYBLE_DEBUG_EVT_BLESS_INT\000"
 4926      455F4445 
 4926      4255475F 
 4926      4556545F 
 4926      424C4553 
 4927              	.LASF137:
 4928 24d1 4359424C 		.ascii	"CYBLE_GATT_ERR_OUT_OF_RANGE\000"
 4928      455F4741 
 4928      54545F45 
 4928      52525F4F 
 4928      55545F4F 
 4929              	.LASF325:
 4930 24ed 4359424C 		.ascii	"CYBLE_EVT_GLSS_WRITE_CHAR\000"
 4930      455F4556 
 4930      545F474C 
 4930      53535F57 
 4930      52495445 
 4931              	.LASF261:
 4932 2507 4359424C 		.ascii	"CYBLE_EVT_CGMSS_NOTIFICATION_ENABLED\000"
 4932      455F4556 
 4932      545F4347 
 4932      4D53535F 
 4932      4E4F5449 
 4933              	.LASF347:
 4934 252c 4359424C 		.ascii	"CYBLE_EVT_HRSC_NOTIFICATION\000"
 4934      455F4556 
 4934      545F4852 
ARM GAS  C:\Users\Henny\AppData\Local\Temp\ccRrnRtI.s 			page 120


 4934      53435F4E 
 4934      4F544946 
 4935              	.LASF470:
 4936 2548 6C6F6352 		.ascii	"locReqHandle\000"
 4936      65714861 
 4936      6E646C65 
 4936      00
 4937              	.LASF393:
 4938 2555 4359424C 		.ascii	"CYBLE_EVT_RSCSS_INDICATION_CONFIRMATION\000"
 4938      455F4556 
 4938      545F5253 
 4938      4353535F 
 4938      494E4449 
 4939              	.LASF471:
 4940 257d 6C6F6341 		.ascii	"locAttrValue\000"
 4940      74747256 
 4940      616C7565 
 4940      00
 4941              	.LASF342:
 4942 258a 4359424C 		.ascii	"CYBLE_EVT_HIDSC_READ_DESCR_RESPONSE\000"
 4942      455F4556 
 4942      545F4849 
 4942      4453435F 
 4942      52454144 
 4943              	.LASF187:
 4944 25ae 4359424C 		.ascii	"CYBLE_HTS_DESCR_INDEX_T\000"
 4944      455F4854 
 4944      535F4445 
 4944      5343525F 
 4944      494E4445 
 4945              	.LASF348:
 4946 25c6 4359424C 		.ascii	"CYBLE_EVT_HRSC_READ_CHAR_RESPONSE\000"
 4946      455F4556 
 4946      545F4852 
 4946      53435F52 
 4946      4541445F 
 4947              	.LASF233:
 4948 25e8 4359424C 		.ascii	"CYBLE_EVT_BASC_NOTIFICATION\000"
 4948      455F4556 
 4948      545F4241 
 4948      53435F4E 
 4948      4F544946 
 4949              	.LASF31:
 4950 2604 4359424C 		.ascii	"CYBLE_EVT_GAP_ENCRYPT_CHANGE\000"
 4950      455F4556 
 4950      545F4741 
 4950      505F454E 
 4950      43525950 
 4951              	.LASF380:
 4952 2621 4359424C 		.ascii	"CYBLE_EVT_NDCSC_READ_CHAR_RESPONSE\000"
 4952      455F4556 
 4952      545F4E44 
 4952      4353435F 
 4952      52454144 
 4953              	.LASF209:
 4954 2644 4359424C 		.ascii	"CYBLE_EVT_GATTC_DESCR_DUPLICATION\000"
 4954      455F4556 
ARM GAS  C:\Users\Henny\AppData\Local\Temp\ccRrnRtI.s 			page 121


 4954      545F4741 
 4954      5454435F 
 4954      44455343 
 4955              	.LASF182:
 4956 2666 4359424C 		.ascii	"CYBLE_HTS_CHAR_COUNT\000"
 4956      455F4854 
 4956      535F4348 
 4956      41525F43 
 4956      4F554E54 
 4957              	.LASF38:
 4958 267b 4359424C 		.ascii	"CYBLE_EVT_GATTS_XCNHG_MTU_REQ\000"
 4958      455F4556 
 4958      545F4741 
 4958      5454535F 
 4958      58434E48 
 4959              	.LASF467:
 4960 2699 6C6F6343 		.ascii	"locCharIndex\000"
 4960      68617249 
 4960      6E646578 
 4960      00
 4961              	.LASF418:
 4962 26a6 4359424C 		.ascii	"CYBLE_EVT_UDSS_NOTIFICATION_ENABLED\000"
 4962      455F4556 
 4962      545F5544 
 4962      53535F4E 
 4962      4F544946 
 4963              	.LASF370:
 4964 26ca 4359424C 		.ascii	"CYBLE_EVT_LNSS_INDICATION_CONFIRMED\000"
 4964      455F4556 
 4964      545F4C4E 
 4964      53535F49 
 4964      4E444943 
 4965              	.LASF442:
 4966 26ee 4359424C 		.ascii	"CYBLE_EVT_WSSS_INDICATION_DISABLED\000"
 4966      455F4556 
 4966      545F5753 
 4966      53535F49 
 4966      4E444943 
 4967              	.LASF230:
 4968 2711 4359424C 		.ascii	"CYBLE_EVT_ANSC_WRITE_DESCR_RESPONSE\000"
 4968      455F4556 
 4968      545F414E 
 4968      53435F57 
 4968      52495445 
 4969              	.LASF376:
 4970 2735 4359424C 		.ascii	"CYBLE_EVT_LNSC_READ_CHAR_RESPONSE\000"
 4970      455F4556 
 4970      545F4C4E 
 4970      53435F52 
 4970      4541445F 
 4971              	.LASF168:
 4972 2757 4359424C 		.ascii	"CYBLE_DIS_MANUFACTURER_NAME\000"
 4972      455F4449 
 4972      535F4D41 
 4972      4E554641 
 4972      43545552 
 4973              	.LASF322:
ARM GAS  C:\Users\Henny\AppData\Local\Temp\ccRrnRtI.s 			page 122


 4974 2773 4359424C 		.ascii	"CYBLE_EVT_GLSS_INDICATION_CONFIRMED\000"
 4974      455F4556 
 4974      545F474C 
 4974      53535F49 
 4974      4E444943 
 4975              	.LASF454:
 4976 2797 4359424C 		.ascii	"CYBLE_STATE_T\000"
 4976      455F5354 
 4976      4154455F 
 4976      5400
 4977              	.LASF200:
 4978 27a5 4359424C 		.ascii	"CYBLE_EVT_GATTS_INDICATION_ENABLED\000"
 4978      455F4556 
 4978      545F4741 
 4978      5454535F 
 4978      494E4449 
 4979              	.LASF7:
 4980 27c8 6C6F6E67 		.ascii	"long long unsigned int\000"
 4980      206C6F6E 
 4980      6720756E 
 4980      7369676E 
 4980      65642069 
 4981              	.LASF103:
 4982 27df 4359424C 		.ascii	"CYBLE_GATT_ERR_INVALID_HANDLE\000"
 4982      455F4741 
 4982      54545F45 
 4982      52525F49 
 4982      4E56414C 
 4983              	.LASF18:
 4984 27fd 4359424C 		.ascii	"CYBLE_EVT_TIMEOUT\000"
 4984      455F4556 
 4984      545F5449 
 4984      4D454F55 
 4984      5400
 4985              	.LASF302:
 4986 280f 4359424C 		.ascii	"CYBLE_EVT_CTSC_READ_DESCR_RESPONSE\000"
 4986      455F4556 
 4986      545F4354 
 4986      53435F52 
 4986      4541445F 
 4987              	.LASF126:
 4988 2832 4359424C 		.ascii	"CYBLE_GATT_ERR_MISSING_CRC\000"
 4988      455F4741 
 4988      54545F45 
 4988      52525F4D 
 4988      49535349 
 4989              	.LASF100:
 4990 284d 4359424C 		.ascii	"CYBLE_ERROR_INVALID_STATE\000"
 4990      455F4552 
 4990      524F525F 
 4990      494E5641 
 4990      4C49445F 
 4991              	.LASF139:
 4992 2867 4359424C 		.ascii	"CYBLE_GATT_DB_ATTR_HANDLE_T\000"
 4992      455F4741 
 4992      54545F44 
 4992      425F4154 
ARM GAS  C:\Users\Henny\AppData\Local\Temp\ccRrnRtI.s 			page 123


 4992      54525F48 
 4993              	.LASF66:
 4994 2883 4359424C 		.ascii	"CYBLE_EVT_L2CAP_CBFC_DATA_READ\000"
 4994      455F4556 
 4994      545F4C32 
 4994      4341505F 
 4994      43424643 
 4995              	.LASF102:
 4996 28a2 4359424C 		.ascii	"CYBLE_GATT_ERR_NONE\000"
 4996      455F4741 
 4996      54545F45 
 4996      52525F4E 
 4996      4F4E4500 
 4997              	.LASF145:
 4998 28b6 76616C75 		.ascii	"value\000"
 4998      6500
 4999              	.LASF278:
 5000 28bc 4359424C 		.ascii	"CYBLE_EVT_CPSC_NOTIFICATION\000"
 5000      455F4556 
 5000      545F4350 
 5000      53435F4E 
 5000      4F544946 
 5001              	.LASF253:
 5002 28d8 4359424C 		.ascii	"CYBLE_EVT_BLSC_WRITE_DESCR_RESPONSE\000"
 5002      455F4556 
 5002      545F424C 
 5002      53435F57 
 5002      52495445 
 5003              	.LASF179:
 5004 28fc 4359424C 		.ascii	"CYBLE_HTS_TEMP_TYPE\000"
 5004      455F4854 
 5004      535F5445 
 5004      4D505F54 
 5004      59504500 
 5005              	.LASF165:
 5006 2910 61747456 		.ascii	"attValue\000"
 5006      616C7565 
 5006      00
 5007              	.LASF375:
 5008 2919 4359424C 		.ascii	"CYBLE_EVT_LNSC_NOTIFICATION\000"
 5008      455F4556 
 5008      545F4C4E 
 5008      53435F4E 
 5008      4F544946 
 5009              	.LASF300:
 5010 2935 4359424C 		.ascii	"CYBLE_EVT_CTSC_NOTIFICATION\000"
 5010      455F4556 
 5010      545F4354 
 5010      53435F4E 
 5010      4F544946 
 5011              	.LASF138:
 5012 2951 4359424C 		.ascii	"CYBLE_GATT_ERR_CODE_T\000"
 5012      455F4741 
 5012      54545F45 
 5012      52525F43 
 5012      4F44455F 
 5013              	.LASF321:
ARM GAS  C:\Users\Henny\AppData\Local\Temp\ccRrnRtI.s 			page 124


 5014 2967 4359424C 		.ascii	"CYBLE_EVT_GLSS_INDICATION_DISABLED\000"
 5014      455F4556 
 5014      545F474C 
 5014      53535F49 
 5014      4E444943 
 5015              	.LASF123:
 5016 298a 4359424C 		.ascii	"CYBLE_GATT_ERR_HTS_OUT_OF_RANGE\000"
 5016      455F4741 
 5016      54545F45 
 5016      52525F48 
 5016      54535F4F 
 5017              	.LASF207:
 5018 29aa 4359424C 		.ascii	"CYBLE_EVT_GATTC_SRVC_DUPLICATION\000"
 5018      455F4556 
 5018      545F4741 
 5018      5454435F 
 5018      53525643 
 5019              	.LASF368:
 5020 29cb 4359424C 		.ascii	"CYBLE_EVT_LNSS_INDICATION_ENABLED\000"
 5020      455F4556 
 5020      545F4C4E 
 5020      53535F49 
 5020      4E444943 
 5021              	.LASF486:
 5022 29ed 474E5520 		.ascii	"GNU C 4.9.3 20150303 (release) [ARM/embedded-4_9-br"
 5022      4320342E 
 5022      392E3320 
 5022      32303135 
 5022      30333033 
 5023 2a20 616E6368 		.ascii	"anch revision 221220] -mcpu=cortex-m0 -mthumb -g -O"
 5023      20726576 
 5023      6973696F 
 5023      6E203232 
 5023      31323230 
 5024 2a53 30202D66 		.ascii	"0 -ffunction-sections -ffat-lto-objects\000"
 5024      66756E63 
 5024      74696F6E 
 5024      2D736563 
 5024      74696F6E 
 5025              	.LASF215:
 5026 2a7b 4359424C 		.ascii	"CYBLE_EVT_ANCSS_NOTIFICATION_DISABLED\000"
 5026      455F4556 
 5026      545F414E 
 5026      4353535F 
 5026      4E4F5449 
 5027              	.LASF481:
 5028 2aa1 6379426C 		.ascii	"cyBle_htssReqHandle\000"
 5028      655F6874 
 5028      73735265 
 5028      7148616E 
 5028      646C6500 
 5029              	.LASF149:
 5030 2ab5 636F6E6E 		.ascii	"connHandle\000"
 5030      48616E64 
 5030      6C6500
 5031              	.LASF489:
 5032 2ac0 4379426C 		.ascii	"CyBle_HtsInit\000"
ARM GAS  C:\Users\Henny\AppData\Local\Temp\ccRrnRtI.s 			page 125


 5032      655F4874 
 5032      73496E69 
 5032      7400
 5033              	.LASF152:
 5034 2ace 61637475 		.ascii	"actualLength\000"
 5034      616C4C65 
 5034      6E677468 
 5034      00
 5035              	.LASF232:
 5036 2adb 4359424C 		.ascii	"CYBLE_EVT_BASS_NOTIFICATION_DISABLED\000"
 5036      455F4556 
 5036      545F4241 
 5036      53535F4E 
 5036      4F544946 
 5037              	.LASF484:
 5038 2b00 6379426C 		.ascii	"cyBle_htss\000"
 5038      655F6874 
 5038      737300
 5039              	.LASF270:
 5040 2b0b 4359424C 		.ascii	"CYBLE_EVT_CPSS_NOTIFICATION_ENABLED\000"
 5040      455F4556 
 5040      545F4350 
 5040      53535F4E 
 5040      4F544946 
 5041              	.LASF413:
 5042 2b2f 4359424C 		.ascii	"CYBLE_EVT_TPSC_READ_DESCR_RESPONSE\000"
 5042      455F4556 
 5042      545F5450 
 5042      53435F52 
 5042      4541445F 
 5043              	.LASF428:
 5044 2b52 4359424C 		.ascii	"CYBLE_EVT_UDSC_ERROR_RESPONSE\000"
 5044      455F4556 
 5044      545F5544 
 5044      53435F45 
 5044      52524F52 
 5045              	.LASF42:
 5046 2b70 4359424C 		.ascii	"CYBLE_EVT_GATTC_FIND_INFO_RSP\000"
 5046      455F4556 
 5046      545F4741 
 5046      5454435F 
 5046      46494E44 
 5047              	.LASF41:
 5048 2b8e 4359424C 		.ascii	"CYBLE_EVT_GATTC_READ_BY_TYPE_RSP\000"
 5048      455F4556 
 5048      545F4741 
 5048      5454435F 
 5048      52454144 
 5049              	.LASF382:
 5050 2baf 4359424C 		.ascii	"CYBLE_EVT_PASSS_NOTIFICATION_DISABLED\000"
 5050      455F4556 
 5050      545F5041 
 5050      5353535F 
 5050      4E4F5449 
 5051              	.LASF268:
 5052 2bd5 4359424C 		.ascii	"CYBLE_EVT_CGMSC_READ_DESCR_RESPONSE\000"
 5052      455F4556 
ARM GAS  C:\Users\Henny\AppData\Local\Temp\ccRrnRtI.s 			page 126


 5052      545F4347 
 5052      4D53435F 
 5052      52454144 
 5053              	.LASF340:
 5054 2bf9 4359424C 		.ascii	"CYBLE_EVT_HIDSC_READ_CHAR_RESPONSE\000"
 5054      455F4556 
 5054      545F4849 
 5054      4453435F 
 5054      52454144 
 5055              	.LASF128:
 5056 2c1c 4359424C 		.ascii	"CYBLE_GATTS_ERR_OPERATION_FAILED\000"
 5056      455F4741 
 5056      5454535F 
 5056      4552525F 
 5056      4F504552 
 5057              	.LASF458:
 5058 2c3d 61706952 		.ascii	"apiResult\000"
 5058      6573756C 
 5058      7400
 5059              	.LASF485:
 5060 2c47 6379426C 		.ascii	"cyBle_state\000"
 5060      655F7374 
 5060      61746500 
 5061              	.LASF410:
 5062 2c53 4359424C 		.ascii	"CYBLE_EVT_TPSS_NOTIFICATION_DISABLED\000"
 5062      455F4556 
 5062      545F5450 
 5062      53535F4E 
 5062      4F544946 
 5063              	.LASF407:
 5064 2c78 4359424C 		.ascii	"CYBLE_EVT_SCPSC_READ_DESCR_RESPONSE\000"
 5064      455F4556 
 5064      545F5343 
 5064      5053435F 
 5064      52454144 
 5065              	.LASF351:
 5066 2c9c 4359424C 		.ascii	"CYBLE_EVT_HRSC_WRITE_DESCR_RESPONSE\000"
 5066      455F4556 
 5066      545F4852 
 5066      53435F57 
 5066      52495445 
 5067              	.LASF477:
 5068 2cc0 4379426C 		.ascii	"CyBle_HtssSendIndication\000"
 5068      655F4874 
 5068      73735365 
 5068      6E64496E 
 5068      64696361 
 5069              	.LASF373:
 5070 2cd9 4359424C 		.ascii	"CYBLE_EVT_LNSS_WRITE_CHAR\000"
 5070      455F4556 
 5070      545F4C4E 
 5070      53535F57 
 5070      52495445 
 5071              	.LASF311:
 5072 2cf3 4359424C 		.ascii	"CYBLE_EVT_ESSS_CHAR_WRITE\000"
 5072      455F4556 
 5072      545F4553 
ARM GAS  C:\Users\Henny\AppData\Local\Temp\ccRrnRtI.s 			page 127


 5072      53535F43 
 5072      4841525F 
 5073              	.LASF48:
 5074 2d0d 4359424C 		.ascii	"CYBLE_EVT_GATTC_WRITE_RSP\000"
 5074      455F4556 
 5074      545F4741 
 5074      5454435F 
 5074      57524954 
 5075              	.LASF306:
 5076 2d27 4359424C 		.ascii	"CYBLE_EVT_ESSS_NOTIFICATION_ENABLED\000"
 5076      455F4556 
 5076      545F4553 
 5076      53535F4E 
 5076      4F544946 
 5077              	.LASF453:
 5078 2d4b 4359424C 		.ascii	"CYBLE_STATE_DISCONNECTED\000"
 5078      455F5354 
 5078      4154455F 
 5078      44495343 
 5078      4F4E4E45 
 5079              	.LASF160:
 5080 2d64 4359424C 		.ascii	"CYBLE_GATTS_ATT_VALUE_T\000"
 5080      455F4741 
 5080      5454535F 
 5080      4154545F 
 5080      56414C55 
 5081              	.LASF395:
 5082 2d7c 4359424C 		.ascii	"CYBLE_EVT_RSCSC_NOTIFICATION\000"
 5082      455F4556 
 5082      545F5253 
 5082      4353435F 
 5082      4E4F5449 
 5083              	.LASF157:
 5084 2d99 4359424C 		.ascii	"CYBLE_GATTS_ATT_PACK_VAL_LEN_T\000"
 5084      455F4741 
 5084      5454535F 
 5084      4154545F 
 5084      5041434B 
 5085              	.LASF28:
 5086 2db8 4359424C 		.ascii	"CYBLE_EVT_GAPP_ADVERTISEMENT_START_STOP\000"
 5086      455F4556 
 5086      545F4741 
 5086      50505F41 
 5086      44564552 
 5087              	.LASF246:
 5088 2de0 4359424C 		.ascii	"CYBLE_EVT_BLSS_INDICATION_CONFIRMED\000"
 5088      455F4556 
 5088      545F424C 
 5088      53535F49 
 5088      4E444943 
 5089              	.LASF439:
 5090 2e04 4359424C 		.ascii	"CYBLE_EVT_WPTSC_READ_DESCR_RESPONSE\000"
 5090      455F4556 
 5090      545F5750 
 5090      5453435F 
 5090      52454144 
 5091              	.LASF217:
ARM GAS  C:\Users\Henny\AppData\Local\Temp\ccRrnRtI.s 			page 128


 5092 2e28 4359424C 		.ascii	"CYBLE_EVT_ANCSC_NOTIFICATION\000"
 5092      455F4556 
 5092      545F414E 
 5092      4353435F 
 5092      4E4F5449 
 5093              	.LASF153:
 5094 2e45 61747447 		.ascii	"attGenericVal\000"
 5094      656E6572 
 5094      69635661 
 5094      6C00
 5095              	.LASF188:
 5096 2e53 63686172 		.ascii	"charHandle\000"
 5096      48616E64 
 5096      6C6500
 5097              	.LASF267:
 5098 2e5e 4359424C 		.ascii	"CYBLE_EVT_CGMSC_WRITE_CHAR_RESPONSE\000"
 5098      455F4556 
 5098      545F4347 
 5098      4D53435F 
 5098      57524954 
 5099              	.LASF9:
 5100 2e82 75696E74 		.ascii	"uint8\000"
 5100      3800
 5101              	.LASF360:
 5102 2e88 4359424C 		.ascii	"CYBLE_EVT_HTSC_READ_CHAR_RESPONSE\000"
 5102      455F4556 
 5102      545F4854 
 5102      53435F52 
 5102      4541445F 
 5103              	.LASF388:
 5104 2eaa 4359424C 		.ascii	"CYBLE_EVT_PASSC_WRITE_DESCR_RESPONSE\000"
 5104      455F4556 
 5104      545F5041 
 5104      5353435F 
 5104      57524954 
 5105              	.LASF2:
 5106 2ecf 73686F72 		.ascii	"short int\000"
 5106      7420696E 
 5106      7400
 5107              	.LASF150:
 5108 2ed9 68616E64 		.ascii	"handleValPair\000"
 5108      6C655661 
 5108      6C506169 
 5108      7200
 5109              	.LASF254:
 5110 2ee7 4359424C 		.ascii	"CYBLE_EVT_BMSS_WRITE_CHAR\000"
 5110      455F4556 
 5110      545F424D 
 5110      53535F57 
 5110      52495445 
 5111              	.LASF156:
 5112 2f01 61747447 		.ascii	"attGenericValLen\000"
 5112      656E6572 
 5112      69635661 
 5112      6C4C656E 
 5112      00
 5113              	.LASF158:
ARM GAS  C:\Users\Henny\AppData\Local\Temp\ccRrnRtI.s 			page 129


 5114 2f12 61747446 		.ascii	"attFormatValue\000"
 5114      6F726D61 
 5114      7456616C 
 5114      756500
 5115              	.LASF122:
 5116 2f21 4359424C 		.ascii	"CYBLE_GATT_ERR_CPS_INAPPROPRIATE_CONNECTION_PARAMET"
 5116      455F4741 
 5116      54545F45 
 5116      52525F43 
 5116      50535F49 
 5117 2f54 45525300 		.ascii	"ERS\000"
 5118              	.LASF265:
 5119 2f58 4359424C 		.ascii	"CYBLE_EVT_CGMSC_NOTIFICATION\000"
 5119      455F4556 
 5119      545F4347 
 5119      4D53435F 
 5119      4E4F5449 
 5120              	.LASF108:
 5121 2f75 4359424C 		.ascii	"CYBLE_GATT_ERR_REQUEST_NOT_SUPPORTED\000"
 5121      455F4741 
 5121      54545F45 
 5121      52525F52 
 5121      45515545 
 5122              	.LASF178:
 5123 2f9a 4359424C 		.ascii	"CYBLE_HTS_TEMP_MEASURE\000"
 5123      455F4854 
 5123      535F5445 
 5123      4D505F4D 
 5123      45415355 
 5124              	.LASF35:
 5125 2fb1 4359424C 		.ascii	"CYBLE_EVT_GATTC_ERROR_RSP\000"
 5125      455F4556 
 5125      545F4741 
 5125      5454435F 
 5125      4552524F 
 5126              	.LASF317:
 5127 2fcb 4359424C 		.ascii	"CYBLE_EVT_ESSC_WRITE_CHAR_RESPONSE\000"
 5127      455F4556 
 5127      545F4553 
 5127      53435F57 
 5127      52495445 
 5128              	.LASF222:
 5129 2fee 4359424C 		.ascii	"CYBLE_EVT_ANCSC_ERROR_RESPONSE\000"
 5129      455F4556 
 5129      545F414E 
 5129      4353435F 
 5129      4552524F 
 5130              	.LASF236:
 5131 300d 4359424C 		.ascii	"CYBLE_EVT_BASC_WRITE_DESCR_RESPONSE\000"
 5131      455F4556 
 5131      545F4241 
 5131      53435F57 
 5131      52495445 
 5132              	.LASF203:
 5133 3031 4359424C 		.ascii	"CYBLE_EVT_GATTC_SRVC_DISCOVERY_FAILED\000"
 5133      455F4556 
 5133      545F4741 
ARM GAS  C:\Users\Henny\AppData\Local\Temp\ccRrnRtI.s 			page 130


 5133      5454435F 
 5133      53525643 
 5134              	.LASF320:
 5135 3057 4359424C 		.ascii	"CYBLE_EVT_GLSS_INDICATION_ENABLED\000"
 5135      455F4556 
 5135      545F474C 
 5135      53535F49 
 5135      4E444943 
 5136              	.LASF225:
 5137 3079 4359424C 		.ascii	"CYBLE_EVT_ANSS_CHAR_WRITE\000"
 5137      455F4556 
 5137      545F414E 
 5137      53535F43 
 5137      4841525F 
 5138              	.LASF62:
 5139 3093 4359424C 		.ascii	"CYBLE_EVT_L2CAP_CBFC_CONN_IND\000"
 5139      455F4556 
 5139      545F4C32 
 5139      4341505F 
 5139      43424643 
 5140              	.LASF51:
 5141 30b1 4359424C 		.ascii	"CYBLE_EVT_GATTS_EXEC_WRITE_REQ\000"
 5141      455F4556 
 5141      545F4741 
 5141      5454535F 
 5141      45584543 
 5142              	.LASF22:
 5143 30d0 4359424C 		.ascii	"CYBLE_EVT_GAPC_SCAN_PROGRESS_RESULT\000"
 5143      455F4556 
 5143      545F4741 
 5143      50435F53 
 5143      43414E5F 
 5144              	.LASF299:
 5145 30f4 4359424C 		.ascii	"CYBLE_EVT_CTSS_CHAR_WRITE\000"
 5145      455F4556 
 5145      545F4354 
 5145      53535F43 
 5145      4841525F 
 5146              	.LASF415:
 5147 310e 4359424C 		.ascii	"CYBLE_EVT_UDSS_INDICATION_ENABLED\000"
 5147      455F4556 
 5147      545F5544 
 5147      53535F49 
 5147      4E444943 
 5148              	.LASF133:
 5149 3130 4359424C 		.ascii	"CYBLE_GATT_ERR_ANCS_INVALID_PARAMETER\000"
 5149      455F4741 
 5149      54545F45 
 5149      52525F41 
 5149      4E43535F 
 5150              	.LASF82:
 5151 3156 4359424C 		.ascii	"CYBLE_ERROR_GAP_ROLE\000"
 5151      455F4552 
 5151      524F525F 
 5151      4741505F 
 5151      524F4C45 
 5152              	.LASF354:
ARM GAS  C:\Users\Henny\AppData\Local\Temp\ccRrnRtI.s 			page 131


 5153 316b 4359424C 		.ascii	"CYBLE_EVT_HTSS_INDICATION_ENABLED\000"
 5153      455F4556 
 5153      545F4854 
 5153      53535F49 
 5153      4E444943 
 5154              	.LASF426:
 5155 318d 4359424C 		.ascii	"CYBLE_EVT_UDSC_READ_DESCR_RESPONSE\000"
 5155      455F4556 
 5155      545F5544 
 5155      53435F52 
 5155      4541445F 
 5156              	.LASF234:
 5157 31b0 4359424C 		.ascii	"CYBLE_EVT_BASC_READ_CHAR_RESPONSE\000"
 5157      455F4556 
 5157      545F4241 
 5157      53435F52 
 5157      4541445F 
 5158              	.LASF327:
 5159 31d2 4359424C 		.ascii	"CYBLE_EVT_GLSC_NOTIFICATION\000"
 5159      455F4556 
 5159      545F474C 
 5159      53435F4E 
 5159      4F544946 
 5160              	.LASF130:
 5161 31ee 4359424C 		.ascii	"CYBLE_GATT_ERR_ANS_COMMAND_NOT_SUPPORTED\000"
 5161      455F4741 
 5161      54545F45 
 5161      52525F41 
 5161      4E535F43 
 5162              	.LASF405:
 5163 3217 4359424C 		.ascii	"CYBLE_EVT_SCPSS_SCAN_INT_WIN_CHAR_WRITE\000"
 5163      455F4556 
 5163      545F5343 
 5163      5053535F 
 5163      5343414E 
 5164              	.LASF488:
 5165 323f 443A5C48 		.ascii	"D:\\Henny\\magisterka\\CY8KIT\\BLE\\BLE\\BLE_Temper"
 5165      656E6E79 
 5165      5C6D6167 
 5165      69737465 
 5165      726B615C 
 5166 326c 61747572 		.ascii	"ature_Measurement01.cydsn\000"
 5166      655F4D65 
 5166      61737572 
 5166      656D656E 
 5166      7430312E 
 5167              	.LASF482:
 5168 3286 6379426C 		.ascii	"cyBle_eventHandlerFlag\000"
 5168      655F6576 
 5168      656E7448 
 5168      616E646C 
 5168      6572466C 
 5169              	.LASF192:
 5170 329d 63686172 		.ascii	"charInfo\000"
 5170      496E666F 
 5170      00
 5171              	.LASF79:
ARM GAS  C:\Users\Henny\AppData\Local\Temp\ccRrnRtI.s 			page 132


 5172 32a6 4359424C 		.ascii	"CYBLE_ERROR_NO_CONNECTION\000"
 5172      455F4552 
 5172      524F525F 
 5172      4E4F5F43 
 5172      4F4E4E45 
 5173              	.LASF288:
 5174 32c0 4359424C 		.ascii	"CYBLE_EVT_CSCSS_INDICATION_DISABLED\000"
 5174      455F4556 
 5174      545F4353 
 5174      4353535F 
 5174      494E4449 
 5175              	.LASF257:
 5176 32e4 4359424C 		.ascii	"CYBLE_EVT_BMSC_READ_DESCR_RESPONSE\000"
 5176      455F4556 
 5176      545F424D 
 5176      53435F52 
 5176      4541445F 
 5177              	.LASF71:
 5178 3307 4359424C 		.ascii	"CYBLE_EVT_LE_PING_AUTH_TIMEOUT\000"
 5178      455F4556 
 5178      545F4C45 
 5178      5F50494E 
 5178      475F4155 
 5179              	.LASF101:
 5180 3326 4359424C 		.ascii	"CYBLE_API_RESULT_T\000"
 5180      455F4150 
 5180      495F5245 
 5180      53554C54 
 5180      5F5400
 5181              	.LASF259:
 5182 3339 4359424C 		.ascii	"CYBLE_EVT_CGMSS_INDICATION_DISABLED\000"
 5182      455F4556 
 5182      545F4347 
 5182      4D53535F 
 5182      494E4449 
 5183              	.LASF213:
 5184 335d 4359424C 		.ascii	"CYBLE_EVT_GATTC_DISCOVERY_COMPLETE\000"
 5184      455F4556 
 5184      545F4741 
 5184      5454435F 
 5184      44495343 
 5185              	.LASF263:
 5186 3380 4359424C 		.ascii	"CYBLE_EVT_CGMSS_WRITE_CHAR\000"
 5186      455F4556 
 5186      545F4347 
 5186      4D53535F 
 5186      57524954 
 5187              	.LASF331:
 5188 339b 4359424C 		.ascii	"CYBLE_EVT_GLSC_WRITE_DESCR_RESPONSE\000"
 5188      455F4556 
 5188      545F474C 
 5188      53435F57 
 5188      52495445 
 5189              	.LASF54:
 5190 33bf 4359424C 		.ascii	"CYBLE_EVT_GATTC_HANDLE_VALUE_IND\000"
 5190      455F4556 
 5190      545F4741 
ARM GAS  C:\Users\Henny\AppData\Local\Temp\ccRrnRtI.s 			page 133


 5190      5454435F 
 5190      48414E44 
 5191              	.LASF284:
 5192 33e0 4359424C 		.ascii	"CYBLE_EVT_CPSC_SCAN_PROGRESS_RESULT\000"
 5192      455F4556 
 5192      545F4350 
 5192      53435F53 
 5192      43414E5F 
 5193              	.LASF399:
 5194 3404 4359424C 		.ascii	"CYBLE_EVT_RSCSC_READ_DESCR_RESPONSE\000"
 5194      455F4556 
 5194      545F5253 
 5194      4353435F 
 5194      52454144 
 5195              	.LASF85:
 5196 3428 4359424C 		.ascii	"CYBLE_ERROR_SEC_FAILED\000"
 5196      455F4552 
 5196      524F525F 
 5196      5345435F 
 5196      4641494C 
 5197              	.LASF21:
 5198 343f 4359424C 		.ascii	"CYBLE_EVT_STACK_BUSY_STATUS\000"
 5198      455F4556 
 5198      545F5354 
 5198      41434B5F 
 5198      42555359 
 5199              	.LASF363:
 5200 345b 4359424C 		.ascii	"CYBLE_EVT_HTSC_WRITE_DESCR_RESPONSE\000"
 5200      455F4556 
 5200      545F4854 
 5200      53435F57 
 5200      52495445 
 5201              	.LASF34:
 5202 347f 4359424C 		.ascii	"CYBLE_EVT_GAP_KEYINFO_EXCHNGE_CMPLT\000"
 5202      455F4556 
 5202      545F4741 
 5202      505F4B45 
 5202      59494E46 
 5203              	.LASF476:
 5204 34a3 6E746652 		.ascii	"ntfReqParam\000"
 5204      65715061 
 5204      72616D00 
 5205              	.LASF440:
 5206 34af 4359424C 		.ascii	"CYBLE_EVT_WPTSC_WRITE_DESCR_RESPONSE\000"
 5206      455F4556 
 5206      545F5750 
 5206      5453435F 
 5206      57524954 
 5207              	.LASF59:
 5208 34d4 4359424C 		.ascii	"CYBLE_EVT_L2CAP_CONN_PARAM_UPDATE_REQ\000"
 5208      455F4556 
 5208      545F4C32 
 5208      4341505F 
 5208      434F4E4E 
 5209              	.LASF262:
 5210 34fa 4359424C 		.ascii	"CYBLE_EVT_CGMSS_NOTIFICATION_DISABLED\000"
 5210      455F4556 
ARM GAS  C:\Users\Henny\AppData\Local\Temp\ccRrnRtI.s 			page 134


 5210      545F4347 
 5210      4D53535F 
 5210      4E4F5449 
 5211              	.LASF193:
 5212 3520 4359424C 		.ascii	"CYBLE_HTSS_T\000"
 5212      455F4854 
 5212      53535F54 
 5212      00
 5213              	.LASF469:
 5214 352d 67617474 		.ascii	"gattErr\000"
 5214      45727200 
 5215              	.LASF204:
 5216 3535 4359424C 		.ascii	"CYBLE_EVT_GATTC_INCL_DISCOVERY_FAILED\000"
 5216      455F4556 
 5216      545F4741 
 5216      5454435F 
 5216      494E434C 
 5217              	.LASF105:
 5218 355b 4359424C 		.ascii	"CYBLE_GATT_ERR_WRITE_NOT_PERMITTED\000"
 5218      455F4741 
 5218      54545F45 
 5218      52525F57 
 5218      52495445 
 5219              	.LASF201:
 5220 357e 4359424C 		.ascii	"CYBLE_EVT_GATTS_INDICATION_DISABLED\000"
 5220      455F4556 
 5220      545F4741 
 5220      5454535F 
 5220      494E4449 
 5221              	.LASF3:
 5222 35a2 73686F72 		.ascii	"short unsigned int\000"
 5222      7420756E 
 5222      7369676E 
 5222      65642069 
 5222      6E7400
 5223              	.LASF117:
 5224 35b5 4359424C 		.ascii	"CYBLE_GATT_ERR_INSUFFICIENT_ENCRYPTION\000"
 5224      455F4741 
 5224      54545F45 
 5224      52525F49 
 5224      4E535546 
 5225              	.LASF329:
 5226 35dc 4359424C 		.ascii	"CYBLE_EVT_GLSC_WRITE_CHAR_RESPONSE\000"
 5226      455F4556 
 5226      545F474C 
 5226      53435F57 
 5226      52495445 
 5227              	.LASF378:
 5228 35ff 4359424C 		.ascii	"CYBLE_EVT_LNSC_READ_DESCR_RESPONSE\000"
 5228      455F4556 
 5228      545F4C4E 
 5228      53435F52 
 5228      4541445F 
 5229              	.LASF451:
 5230 3622 4359424C 		.ascii	"CYBLE_STATE_CONNECTED\000"
 5230      455F5354 
 5230      4154455F 
ARM GAS  C:\Users\Henny\AppData\Local\Temp\ccRrnRtI.s 			page 135


 5230      434F4E4E 
 5230      45435445 
 5231              	.LASF143:
 5232 3638 61637475 		.ascii	"actualLen\000"
 5232      616C4C65 
 5232      6E00
 5233              	.LASF216:
 5234 3642 4359424C 		.ascii	"CYBLE_EVT_ANCSS_WRITE_CHAR\000"
 5234      455F4556 
 5234      545F414E 
 5234      4353535F 
 5234      57524954 
 5235              	.LASF326:
 5236 365d 4359424C 		.ascii	"CYBLE_EVT_GLSC_INDICATION\000"
 5236      455F4556 
 5236      545F474C 
 5236      53435F49 
 5236      4E444943 
 5237              	.LASF276:
 5238 3677 4359424C 		.ascii	"CYBLE_EVT_CPSS_BROADCAST_DISABLED\000"
 5238      455F4556 
 5238      545F4350 
 5238      53535F42 
 5238      524F4144 
 5239              	.LASF141:
 5240 3699 61747449 		.ascii	"attId\000"
 5240      6400
 5241              	.LASF75:
 5242 369f 4359424C 		.ascii	"CYBLE_ERROR_INVALID_OPERATION\000"
 5242      455F4552 
 5242      524F525F 
 5242      494E5641 
 5242      4C49445F 
 5243              	.LASF20:
 5244 36bd 4359424C 		.ascii	"CYBLE_EVT_HCI_STATUS\000"
 5244      455F4556 
 5244      545F4843 
 5244      495F5354 
 5244      41545553 
 5245              	.LASF37:
 5246 36d2 4359424C 		.ascii	"CYBLE_EVT_GATT_DISCONNECT_IND\000"
 5246      455F4556 
 5246      545F4741 
 5246      54545F44 
 5246      4953434F 
 5247              	.LASF199:
 5248 36f0 4359424C 		.ascii	"CYBLE_KEY_EXCHANGE_INFO_REQUEST_REPLY\000"
 5248      455F4B45 
 5248      595F4558 
 5248      4348414E 
 5248      47455F49 
 5249              	.LASF69:
 5250 3716 4359424C 		.ascii	"CYBLE_EVT_L2CAP_CBFC_DATA_WRITE_IND\000"
 5250      455F4556 
 5250      545F4C32 
 5250      4341505F 
 5250      43424643 
ARM GAS  C:\Users\Henny\AppData\Local\Temp\ccRrnRtI.s 			page 136


 5251              	.LASF197:
 5252 373a 4359424C 		.ascii	"CYBLE_PASSKEY_ENTRY_REQUEST_REPLY\000"
 5252      455F5041 
 5252      53534B45 
 5252      595F454E 
 5252      5452595F 
 5253              	.LASF243:
 5254 375c 4359424C 		.ascii	"CYBLE_EVT_BCSC_WRITE_DESCR_RESPONSE\000"
 5254      455F4556 
 5254      545F4243 
 5254      53435F57 
 5254      52495445 
 5255              	.LASF445:
 5256 3780 4359424C 		.ascii	"CYBLE_EVT_WSSC_READ_CHAR_RESPONSE\000"
 5256      455F4556 
 5256      545F5753 
 5256      53435F52 
 5256      4541445F 
 5257              	.LASF226:
 5258 37a2 4359424C 		.ascii	"CYBLE_EVT_ANSC_NOTIFICATION\000"
 5258      455F4556 
 5258      545F414E 
 5258      53435F4E 
 5258      4F544946 
 5259              	.LASF30:
 5260 37be 4359424C 		.ascii	"CYBLE_EVT_GAP_DEVICE_DISCONNECTED\000"
 5260      455F4556 
 5260      545F4741 
 5260      505F4445 
 5260      56494345 
 5261              	.LASF334:
 5262 37e0 4359424C 		.ascii	"CYBLE_EVT_HIDSS_BOOT_MODE_ENTER\000"
 5262      455F4556 
 5262      545F4849 
 5262      4453535F 
 5262      424F4F54 
 5263              	.LASF55:
 5264 3800 4359424C 		.ascii	"CYBLE_EVT_GATTS_HANDLE_VALUE_CNF\000"
 5264      455F4556 
 5264      545F4741 
 5264      5454535F 
 5264      48414E44 
 5265              	.LASF295:
 5266 3821 4359424C 		.ascii	"CYBLE_EVT_CSCSC_READ_DESCR_RESPONSE\000"
 5266      455F4556 
 5266      545F4353 
 5266      4353435F 
 5266      52454144 
 5267              	.LASF10:
 5268 3845 75696E74 		.ascii	"uint16\000"
 5268      313600
 5269              	.LASF219:
 5270 384c 4359424C 		.ascii	"CYBLE_EVT_ANCSC_WRITE_CHAR_RESPONSE\000"
 5270      455F4556 
 5270      545F414E 
 5270      4353435F 
 5270      57524954 
ARM GAS  C:\Users\Henny\AppData\Local\Temp\ccRrnRtI.s 			page 137


 5271              	.LASF83:
 5272 3870 4359424C 		.ascii	"CYBLE_ERROR_TX_POWER_READ\000"
 5272      455F4552 
 5272      524F525F 
 5272      54585F50 
 5272      4F574552 
 5273              	.LASF389:
 5274 388a 4359424C 		.ascii	"CYBLE_EVT_RSCSS_NOTIFICATION_ENABLED\000"
 5274      455F4556 
 5274      545F5253 
 5274      4353535F 
 5274      4E4F5449 
 5275              	.LASF224:
 5276 38af 4359424C 		.ascii	"CYBLE_EVT_ANSS_NOTIFICATION_DISABLED\000"
 5276      455F4556 
 5276      545F414E 
 5276      53535F4E 
 5276      4F544946 
 5277              	.LASF359:
 5278 38d4 4359424C 		.ascii	"CYBLE_EVT_HTSC_INDICATION\000"
 5278      455F4556 
 5278      545F4854 
 5278      53435F49 
 5278      4E444943 
 5279              	.LASF332:
 5280 38ee 4359424C 		.ascii	"CYBLE_EVT_HIDSS_NOTIFICATION_ENABLED\000"
 5280      455F4556 
 5280      545F4849 
 5280      4453535F 
 5280      4E4F5449 
 5281              	.LASF356:
 5282 3913 4359424C 		.ascii	"CYBLE_EVT_HTSS_INDICATION_CONFIRMED\000"
 5282      455F4556 
 5282      545F4854 
 5282      53535F49 
 5282      4E444943 
 5283              	.LASF433:
 5284 3937 4359424C 		.ascii	"CYBLE_EVT_WPTSS_INDICATION_CONFIRMED\000"
 5284      455F4556 
 5284      545F5750 
 5284      5453535F 
 5284      494E4449 
 5285              	.LASF346:
 5286 395c 4359424C 		.ascii	"CYBLE_EVT_HRSS_NOTIFICATION_DISABLED\000"
 5286      455F4556 
 5286      545F4852 
 5286      53535F4E 
 5286      4F544946 
 5287              		.ident	"GCC: (GNU Tools for ARM Embedded Processors) 4.9.3 20150303 (release) [ARM/embedded-4_9-br
