ARM GAS  C:\Users\Henny\AppData\Local\Temp\ccRrnRtI.s 			page 1


   1              		.cpu cortex-m0
   2              		.fpu softvfp
   3              		.eabi_attribute 20, 1
   4              		.eabi_attribute 21, 1
   5              		.eabi_attribute 23, 3
   6              		.eabi_attribute 24, 1
   7              		.eabi_attribute 25, 1
   8              		.eabi_attribute 26, 1
   9              		.eabi_attribute 30, 6
  10              		.eabi_attribute 34, 0
  11              		.eabi_attribute 18, 4
  12              		.code	16
  13              		.file	"BLE_hts.c"
  14              		.text
  15              	.Ltext0:
  16              		.cfi_sections	.debug_frame
  17              		.bss
  18              		.align	2
  19              	CyBle_HtsApplCallback:
  20 0000 00000000 		.space	4
  21              		.global	cyBle_htss
  22              		.section	.rodata
  23              		.align	2
  24              		.type	cyBle_htss, %object
  25              		.size	cyBle_htss, 26
  26              	cyBle_htss:
  27 0000 0C00     		.short	12
  28 0002 0E00     		.short	14
  29 0004 0F00     		.short	15
  30 0006 0000     		.short	0
  31 0008 1100     		.short	17
  32 000a 0000     		.short	0
  33 000c 0000     		.short	0
  34 000e 0000     		.short	0
  35 0010 0000     		.short	0
  36 0012 0000     		.short	0
  37 0014 1300     		.short	19
  38 0016 0000     		.short	0
  39 0018 1400     		.short	20
  40 001a 0000     		.bss
  41              		.align	1
  42              	cyBle_htssReqHandle:
  43 0004 0000     		.space	2
  44 0006 0000     		.section	.text.CyBle_HtsInit,"ax",%progbits
  45              		.align	2
  46              		.global	CyBle_HtsInit
  47              		.code	16
  48              		.thumb_func
  49              		.type	CyBle_HtsInit, %function
  50              	CyBle_HtsInit:
  51              	.LFB2:
  52              		.file 1 ".\\Generated_Source\\PSoC4\\BLE_hts.c"
   1:.\Generated_Source\PSoC4/BLE_hts.c **** /***************************************************************************//**
   2:.\Generated_Source\PSoC4/BLE_hts.c **** * \file CYBLE_hts.c
   3:.\Generated_Source\PSoC4/BLE_hts.c **** * \version 2.30
   4:.\Generated_Source\PSoC4/BLE_hts.c **** * 
   5:.\Generated_Source\PSoC4/BLE_hts.c **** * \brief
ARM GAS  C:\Users\Henny\AppData\Local\Temp\ccRrnRtI.s 			page 2


   6:.\Generated_Source\PSoC4/BLE_hts.c **** *  Contains the source code for Health Thermometer Service.
   7:.\Generated_Source\PSoC4/BLE_hts.c **** * 
   8:.\Generated_Source\PSoC4/BLE_hts.c **** ********************************************************************************
   9:.\Generated_Source\PSoC4/BLE_hts.c **** * \copyright
  10:.\Generated_Source\PSoC4/BLE_hts.c **** * Copyright 2014-2015, Cypress Semiconductor Corporation.  All rights reserved.
  11:.\Generated_Source\PSoC4/BLE_hts.c **** * You may use this file only in accordance with the license, terms, conditions,
  12:.\Generated_Source\PSoC4/BLE_hts.c **** * disclaimers, and limitations in the end user license agreement accompanying
  13:.\Generated_Source\PSoC4/BLE_hts.c **** * the software package with which this file was provided.
  14:.\Generated_Source\PSoC4/BLE_hts.c **** *******************************************************************************/
  15:.\Generated_Source\PSoC4/BLE_hts.c **** 
  16:.\Generated_Source\PSoC4/BLE_hts.c **** 
  17:.\Generated_Source\PSoC4/BLE_hts.c **** #include "BLE_eventHandler.h"
  18:.\Generated_Source\PSoC4/BLE_hts.c **** 
  19:.\Generated_Source\PSoC4/BLE_hts.c **** static CYBLE_CALLBACK_T CyBle_HtsApplCallback = NULL;
  20:.\Generated_Source\PSoC4/BLE_hts.c **** 
  21:.\Generated_Source\PSoC4/BLE_hts.c **** #ifdef CYBLE_HTS_SERVER
  22:.\Generated_Source\PSoC4/BLE_hts.c **** 
  23:.\Generated_Source\PSoC4/BLE_hts.c **** const CYBLE_HTSS_T cyBle_htss =
  24:.\Generated_Source\PSoC4/BLE_hts.c **** {
  25:.\Generated_Source\PSoC4/BLE_hts.c ****     0x000Cu,    /* Handle of the HTS service */
  26:.\Generated_Source\PSoC4/BLE_hts.c ****     {
  27:.\Generated_Source\PSoC4/BLE_hts.c ****         
  28:.\Generated_Source\PSoC4/BLE_hts.c ****         /* Temperature Measurement characteristic */
  29:.\Generated_Source\PSoC4/BLE_hts.c ****         {
  30:.\Generated_Source\PSoC4/BLE_hts.c ****             0x000Eu, /* Handle of the Temperature Measurement characteristic */ 
  31:.\Generated_Source\PSoC4/BLE_hts.c ****             
  32:.\Generated_Source\PSoC4/BLE_hts.c ****             /* Array of Descriptors handles */
  33:.\Generated_Source\PSoC4/BLE_hts.c ****             {
  34:.\Generated_Source\PSoC4/BLE_hts.c ****                 0x000Fu, /* Handle of the Client Characteristic Configuration descriptor */ 
  35:.\Generated_Source\PSoC4/BLE_hts.c ****                 CYBLE_GATT_INVALID_ATTR_HANDLE_VALUE, 
  36:.\Generated_Source\PSoC4/BLE_hts.c ****             }, 
  37:.\Generated_Source\PSoC4/BLE_hts.c ****         }, 
  38:.\Generated_Source\PSoC4/BLE_hts.c ****         
  39:.\Generated_Source\PSoC4/BLE_hts.c ****         /* Temperature Type characteristic */
  40:.\Generated_Source\PSoC4/BLE_hts.c ****         {
  41:.\Generated_Source\PSoC4/BLE_hts.c ****             0x0011u, /* Handle of the Temperature Type characteristic */ 
  42:.\Generated_Source\PSoC4/BLE_hts.c ****             
  43:.\Generated_Source\PSoC4/BLE_hts.c ****             /* Array of Descriptors handles */
  44:.\Generated_Source\PSoC4/BLE_hts.c ****             {
  45:.\Generated_Source\PSoC4/BLE_hts.c ****                 CYBLE_GATT_INVALID_ATTR_HANDLE_VALUE, 
  46:.\Generated_Source\PSoC4/BLE_hts.c ****                 CYBLE_GATT_INVALID_ATTR_HANDLE_VALUE, 
  47:.\Generated_Source\PSoC4/BLE_hts.c ****             }, 
  48:.\Generated_Source\PSoC4/BLE_hts.c ****         }, 
  49:.\Generated_Source\PSoC4/BLE_hts.c ****         
  50:.\Generated_Source\PSoC4/BLE_hts.c ****         /* Intermediate Temperature characteristic */
  51:.\Generated_Source\PSoC4/BLE_hts.c ****         {
  52:.\Generated_Source\PSoC4/BLE_hts.c ****             CYBLE_GATT_INVALID_ATTR_HANDLE_VALUE, /* Handle of the Intermediate Temperature charact
  53:.\Generated_Source\PSoC4/BLE_hts.c ****             
  54:.\Generated_Source\PSoC4/BLE_hts.c ****             /* Array of Descriptors handles */
  55:.\Generated_Source\PSoC4/BLE_hts.c ****             {
  56:.\Generated_Source\PSoC4/BLE_hts.c ****                 CYBLE_GATT_INVALID_ATTR_HANDLE_VALUE, /* Handle of the Client Characteristic Config
  57:.\Generated_Source\PSoC4/BLE_hts.c ****                 CYBLE_GATT_INVALID_ATTR_HANDLE_VALUE, 
  58:.\Generated_Source\PSoC4/BLE_hts.c ****             }, 
  59:.\Generated_Source\PSoC4/BLE_hts.c ****         }, 
  60:.\Generated_Source\PSoC4/BLE_hts.c ****         
  61:.\Generated_Source\PSoC4/BLE_hts.c ****         /* Measurement Interval characteristic */
  62:.\Generated_Source\PSoC4/BLE_hts.c ****         {
ARM GAS  C:\Users\Henny\AppData\Local\Temp\ccRrnRtI.s 			page 3


  63:.\Generated_Source\PSoC4/BLE_hts.c ****             0x0013u, /* Handle of the Measurement Interval characteristic */ 
  64:.\Generated_Source\PSoC4/BLE_hts.c ****             
  65:.\Generated_Source\PSoC4/BLE_hts.c ****             /* Array of Descriptors handles */
  66:.\Generated_Source\PSoC4/BLE_hts.c ****             {
  67:.\Generated_Source\PSoC4/BLE_hts.c ****                 CYBLE_GATT_INVALID_ATTR_HANDLE_VALUE, /* Handle of the Client Characteristic Config
  68:.\Generated_Source\PSoC4/BLE_hts.c ****                 0x0014u, /* Handle of the Valid Range descriptor */ 
  69:.\Generated_Source\PSoC4/BLE_hts.c ****             }, 
  70:.\Generated_Source\PSoC4/BLE_hts.c ****         }, 
  71:.\Generated_Source\PSoC4/BLE_hts.c ****     },
  72:.\Generated_Source\PSoC4/BLE_hts.c **** };
  73:.\Generated_Source\PSoC4/BLE_hts.c **** static CYBLE_GATT_DB_ATTR_HANDLE_T cyBle_htssReqHandle;
  74:.\Generated_Source\PSoC4/BLE_hts.c ****     
  75:.\Generated_Source\PSoC4/BLE_hts.c **** #endif /* CYBLE_HTS_SERVER */
  76:.\Generated_Source\PSoC4/BLE_hts.c **** 
  77:.\Generated_Source\PSoC4/BLE_hts.c **** #ifdef CYBLE_HTS_CLIENT
  78:.\Generated_Source\PSoC4/BLE_hts.c **** 
  79:.\Generated_Source\PSoC4/BLE_hts.c **** CYBLE_HTSC_T cyBle_htsc;
  80:.\Generated_Source\PSoC4/BLE_hts.c **** static CYBLE_GATT_DB_ATTR_HANDLE_T cyBle_htscReqHandle;
  81:.\Generated_Source\PSoC4/BLE_hts.c **** 
  82:.\Generated_Source\PSoC4/BLE_hts.c **** #endif /* (CYBLE_HTS_CLIENT) */
  83:.\Generated_Source\PSoC4/BLE_hts.c **** 
  84:.\Generated_Source\PSoC4/BLE_hts.c **** 
  85:.\Generated_Source\PSoC4/BLE_hts.c **** /****************************************************************************** 
  86:.\Generated_Source\PSoC4/BLE_hts.c **** * Function Name: CyBle_HtsInit
  87:.\Generated_Source\PSoC4/BLE_hts.c **** ***************************************************************************//**
  88:.\Generated_Source\PSoC4/BLE_hts.c **** * 
  89:.\Generated_Source\PSoC4/BLE_hts.c **** *  This function initializes HTS Service.
  90:.\Generated_Source\PSoC4/BLE_hts.c **** * 
  91:.\Generated_Source\PSoC4/BLE_hts.c **** * \return
  92:.\Generated_Source\PSoC4/BLE_hts.c **** *  None
  93:.\Generated_Source\PSoC4/BLE_hts.c **** * 
  94:.\Generated_Source\PSoC4/BLE_hts.c **** ******************************************************************************/
  95:.\Generated_Source\PSoC4/BLE_hts.c **** void CyBle_HtsInit(void)
  96:.\Generated_Source\PSoC4/BLE_hts.c **** {
  53              		.loc 1 96 0
  54              		.cfi_startproc
  55 0000 80B5     		push	{r7, lr}
  56              		.cfi_def_cfa_offset 8
  57              		.cfi_offset 7, -8
  58              		.cfi_offset 14, -4
  59 0002 00AF     		add	r7, sp, #0
  60              		.cfi_def_cfa_register 7
  97:.\Generated_Source\PSoC4/BLE_hts.c **** 
  98:.\Generated_Source\PSoC4/BLE_hts.c **** #ifdef CYBLE_HTS_SERVER
  99:.\Generated_Source\PSoC4/BLE_hts.c **** 
 100:.\Generated_Source\PSoC4/BLE_hts.c ****     cyBle_htssReqHandle = CYBLE_GATT_INVALID_ATTR_HANDLE_VALUE;
  61              		.loc 1 100 0
  62 0004 024B     		ldr	r3, .L2
  63 0006 0022     		mov	r2, #0
  64 0008 1A80     		strh	r2, [r3]
 101:.\Generated_Source\PSoC4/BLE_hts.c ****     
 102:.\Generated_Source\PSoC4/BLE_hts.c **** #endif /* CYBLE_HTS_SERVER */
 103:.\Generated_Source\PSoC4/BLE_hts.c **** 
 104:.\Generated_Source\PSoC4/BLE_hts.c **** #ifdef CYBLE_HTS_CLIENT
 105:.\Generated_Source\PSoC4/BLE_hts.c **** 
 106:.\Generated_Source\PSoC4/BLE_hts.c ****     (void)memset(&cyBle_htsc, 0, sizeof(cyBle_htsc));
 107:.\Generated_Source\PSoC4/BLE_hts.c ****     cyBle_htscReqHandle = CYBLE_GATT_INVALID_ATTR_HANDLE_VALUE;
ARM GAS  C:\Users\Henny\AppData\Local\Temp\ccRrnRtI.s 			page 4


 108:.\Generated_Source\PSoC4/BLE_hts.c **** 
 109:.\Generated_Source\PSoC4/BLE_hts.c **** #endif /* CYBLE_HTS_CLIENT */
 110:.\Generated_Source\PSoC4/BLE_hts.c **** }
  65              		.loc 1 110 0
  66 000a BD46     		mov	sp, r7
  67              		@ sp needed
  68 000c 80BD     		pop	{r7, pc}
  69              	.L3:
  70 000e C046     		.align	2
  71              	.L2:
  72 0010 04000000 		.word	cyBle_htssReqHandle
  73              		.cfi_endproc
  74              	.LFE2:
  75              		.size	CyBle_HtsInit, .-CyBle_HtsInit
  76              		.section	.text.CyBle_HtsRegisterAttrCallback,"ax",%progbits
  77              		.align	2
  78              		.global	CyBle_HtsRegisterAttrCallback
  79              		.code	16
  80              		.thumb_func
  81              		.type	CyBle_HtsRegisterAttrCallback, %function
  82              	CyBle_HtsRegisterAttrCallback:
  83              	.LFB3:
 111:.\Generated_Source\PSoC4/BLE_hts.c **** 
 112:.\Generated_Source\PSoC4/BLE_hts.c **** 
 113:.\Generated_Source\PSoC4/BLE_hts.c **** /******************************************************************************
 114:.\Generated_Source\PSoC4/BLE_hts.c **** * Function Name: CyBle_HtsRegisterAttrCallback
 115:.\Generated_Source\PSoC4/BLE_hts.c **** ***************************************************************************//**
 116:.\Generated_Source\PSoC4/BLE_hts.c **** * 
 117:.\Generated_Source\PSoC4/BLE_hts.c **** *  Registers a callback function for service specific attribute operations.
 118:.\Generated_Source\PSoC4/BLE_hts.c **** *  Service specific write requests from peer device will not be handled with
 119:.\Generated_Source\PSoC4/BLE_hts.c **** *  unregistered callback function.
 120:.\Generated_Source\PSoC4/BLE_hts.c **** * 
 121:.\Generated_Source\PSoC4/BLE_hts.c **** *  \param callbackFunc: An application layer event callback function to receive 
 122:.\Generated_Source\PSoC4/BLE_hts.c **** *                     events from the BLE Component. The definition of 
 123:.\Generated_Source\PSoC4/BLE_hts.c **** *                     CYBLE_CALLBACK_T for HTS Service is:\n
 124:.\Generated_Source\PSoC4/BLE_hts.c **** *                     typedef void (* CYBLE_CALLBACK_T) (uint32 eventCode, 
 125:.\Generated_Source\PSoC4/BLE_hts.c **** *                                                        void *eventParam)
 126:.\Generated_Source\PSoC4/BLE_hts.c **** *                     * eventCode indicates the event that triggered this 
 127:.\Generated_Source\PSoC4/BLE_hts.c **** *                       callback (e.g. CYBLE_EVT_HTSS_NOTIFICATION_ENABLED).
 128:.\Generated_Source\PSoC4/BLE_hts.c **** *                     * eventParam contains the parameters corresponding to the 
 129:.\Generated_Source\PSoC4/BLE_hts.c **** *                       current event. (e.g. pointer to CYBLE_HTS_CHAR_VALUE_T
 130:.\Generated_Source\PSoC4/BLE_hts.c **** *                       structure that contains details of the characteristic 
 131:.\Generated_Source\PSoC4/BLE_hts.c **** *                       for which notification enabled event was triggered).
 132:.\Generated_Source\PSoC4/BLE_hts.c **** * 
 133:.\Generated_Source\PSoC4/BLE_hts.c **** * \return
 134:.\Generated_Source\PSoC4/BLE_hts.c **** *  None
 135:.\Generated_Source\PSoC4/BLE_hts.c **** *
 136:.\Generated_Source\PSoC4/BLE_hts.c **** * \events
 137:.\Generated_Source\PSoC4/BLE_hts.c **** *  None
 138:.\Generated_Source\PSoC4/BLE_hts.c **** *
 139:.\Generated_Source\PSoC4/BLE_hts.c **** ******************************************************************************/
 140:.\Generated_Source\PSoC4/BLE_hts.c **** void CyBle_HtsRegisterAttrCallback(CYBLE_CALLBACK_T callbackFunc)
 141:.\Generated_Source\PSoC4/BLE_hts.c **** {
  84              		.loc 1 141 0
  85              		.cfi_startproc
  86 0000 80B5     		push	{r7, lr}
  87              		.cfi_def_cfa_offset 8
ARM GAS  C:\Users\Henny\AppData\Local\Temp\ccRrnRtI.s 			page 5


  88              		.cfi_offset 7, -8
  89              		.cfi_offset 14, -4
  90 0002 82B0     		sub	sp, sp, #8
  91              		.cfi_def_cfa_offset 16
  92 0004 00AF     		add	r7, sp, #0
  93              		.cfi_def_cfa_register 7
  94 0006 7860     		str	r0, [r7, #4]
 142:.\Generated_Source\PSoC4/BLE_hts.c ****     CyBle_HtsApplCallback = callbackFunc;
  95              		.loc 1 142 0
  96 0008 024B     		ldr	r3, .L5
  97 000a 7A68     		ldr	r2, [r7, #4]
  98 000c 1A60     		str	r2, [r3]
 143:.\Generated_Source\PSoC4/BLE_hts.c **** }
  99              		.loc 1 143 0
 100 000e BD46     		mov	sp, r7
 101 0010 02B0     		add	sp, sp, #8
 102              		@ sp needed
 103 0012 80BD     		pop	{r7, pc}
 104              	.L6:
 105              		.align	2
 106              	.L5:
 107 0014 00000000 		.word	CyBle_HtsApplCallback
 108              		.cfi_endproc
 109              	.LFE3:
 110              		.size	CyBle_HtsRegisterAttrCallback, .-CyBle_HtsRegisterAttrCallback
 111              		.section	.text.CyBle_HtssSetCharacteristicValue,"ax",%progbits
 112              		.align	2
 113              		.global	CyBle_HtssSetCharacteristicValue
 114              		.code	16
 115              		.thumb_func
 116              		.type	CyBle_HtssSetCharacteristicValue, %function
 117              	CyBle_HtssSetCharacteristicValue:
 118              	.LFB4:
 144:.\Generated_Source\PSoC4/BLE_hts.c **** 
 145:.\Generated_Source\PSoC4/BLE_hts.c **** #ifdef CYBLE_HTS_SERVER
 146:.\Generated_Source\PSoC4/BLE_hts.c **** 
 147:.\Generated_Source\PSoC4/BLE_hts.c **** 
 148:.\Generated_Source\PSoC4/BLE_hts.c **** /******************************************************************************
 149:.\Generated_Source\PSoC4/BLE_hts.c **** * Function Name: CyBle_HtssSetCharacteristicValue
 150:.\Generated_Source\PSoC4/BLE_hts.c **** ***************************************************************************//**
 151:.\Generated_Source\PSoC4/BLE_hts.c **** * 
 152:.\Generated_Source\PSoC4/BLE_hts.c **** *  Sets the characteristic value of the service in the local database.
 153:.\Generated_Source\PSoC4/BLE_hts.c **** * 
 154:.\Generated_Source\PSoC4/BLE_hts.c **** *  \param charIndex: The index of the service characteristic.
 155:.\Generated_Source\PSoC4/BLE_hts.c **** *  \param attrSize: The size (in Bytes) of the characteristic value attribute.
 156:.\Generated_Source\PSoC4/BLE_hts.c **** *  \param attrValue: The pointer to the characteristic value data that should be
 157:.\Generated_Source\PSoC4/BLE_hts.c **** *               stored in the GATT database.
 158:.\Generated_Source\PSoC4/BLE_hts.c **** * 
 159:.\Generated_Source\PSoC4/BLE_hts.c **** * \return
 160:.\Generated_Source\PSoC4/BLE_hts.c **** *  Return value is of type CYBLE_API_RESULT_T.
 161:.\Generated_Source\PSoC4/BLE_hts.c **** *  * CYBLE_ERROR_OK - The request handled successfully
 162:.\Generated_Source\PSoC4/BLE_hts.c **** *  * CYBLE_ERROR_INVALID_PARAMETER - Validation of the input parameter failed
 163:.\Generated_Source\PSoC4/BLE_hts.c **** *
 164:.\Generated_Source\PSoC4/BLE_hts.c **** * \events
 165:.\Generated_Source\PSoC4/BLE_hts.c **** *  None
 166:.\Generated_Source\PSoC4/BLE_hts.c **** *
 167:.\Generated_Source\PSoC4/BLE_hts.c **** ******************************************************************************/
ARM GAS  C:\Users\Henny\AppData\Local\Temp\ccRrnRtI.s 			page 6


 168:.\Generated_Source\PSoC4/BLE_hts.c **** CYBLE_API_RESULT_T CyBle_HtssSetCharacteristicValue(CYBLE_HTS_CHAR_INDEX_T charIndex,
 169:.\Generated_Source\PSoC4/BLE_hts.c ****     uint8 attrSize, uint8 *attrValue)
 170:.\Generated_Source\PSoC4/BLE_hts.c **** {
 119              		.loc 1 170 0
 120              		.cfi_startproc
 121 0000 80B5     		push	{r7, lr}
 122              		.cfi_def_cfa_offset 8
 123              		.cfi_offset 7, -8
 124              		.cfi_offset 14, -4
 125 0002 86B0     		sub	sp, sp, #24
 126              		.cfi_def_cfa_offset 32
 127 0004 00AF     		add	r7, sp, #0
 128              		.cfi_def_cfa_register 7
 129 0006 3A60     		str	r2, [r7]
 130 0008 FB1D     		add	r3, r7, #7
 131 000a 021C     		add	r2, r0, #0
 132 000c 1A70     		strb	r2, [r3]
 133 000e BB1D     		add	r3, r7, #6
 134 0010 0A1C     		add	r2, r1, #0
 135 0012 1A70     		strb	r2, [r3]
 171:.\Generated_Source\PSoC4/BLE_hts.c ****     CYBLE_API_RESULT_T apiResult = CYBLE_ERROR_OK;
 136              		.loc 1 171 0
 137 0014 1623     		mov	r3, #22
 138 0016 FB18     		add	r3, r7, r3
 139 0018 0022     		mov	r2, #0
 140 001a 1A80     		strh	r2, [r3]
 172:.\Generated_Source\PSoC4/BLE_hts.c ****     CYBLE_GATT_HANDLE_VALUE_PAIR_T locHandleValuePair;
 173:.\Generated_Source\PSoC4/BLE_hts.c **** 
 174:.\Generated_Source\PSoC4/BLE_hts.c ****     if(charIndex >= CYBLE_HTS_CHAR_COUNT)
 141              		.loc 1 174 0
 142 001c FB1D     		add	r3, r7, #7
 143 001e 1B78     		ldrb	r3, [r3]
 144 0020 032B     		cmp	r3, #3
 145 0022 04D9     		bls	.L8
 175:.\Generated_Source\PSoC4/BLE_hts.c ****     {
 176:.\Generated_Source\PSoC4/BLE_hts.c ****         apiResult = CYBLE_ERROR_INVALID_PARAMETER;
 146              		.loc 1 176 0
 147 0024 1623     		mov	r3, #22
 148 0026 FB18     		add	r3, r7, r3
 149 0028 0122     		mov	r2, #1
 150 002a 1A80     		strh	r2, [r3]
 151 002c 23E0     		b	.L9
 152              	.L8:
 177:.\Generated_Source\PSoC4/BLE_hts.c ****     }
 178:.\Generated_Source\PSoC4/BLE_hts.c ****     else
 179:.\Generated_Source\PSoC4/BLE_hts.c ****     {
 180:.\Generated_Source\PSoC4/BLE_hts.c ****         /* Store data in database */
 181:.\Generated_Source\PSoC4/BLE_hts.c ****         locHandleValuePair.attrHandle = cyBle_htss.charInfo[charIndex].charHandle;
 153              		.loc 1 181 0
 154 002e FB1D     		add	r3, r7, #7
 155 0030 1A78     		ldrb	r2, [r3]
 156 0032 1449     		ldr	r1, .L11
 157 0034 131C     		mov	r3, r2
 158 0036 5B00     		lsl	r3, r3, #1
 159 0038 9B18     		add	r3, r3, r2
 160 003a 5B00     		lsl	r3, r3, #1
 161 003c CB18     		add	r3, r1, r3
ARM GAS  C:\Users\Henny\AppData\Local\Temp\ccRrnRtI.s 			page 7


 162 003e 5A88     		ldrh	r2, [r3, #2]
 163 0040 0823     		mov	r3, #8
 164 0042 FB18     		add	r3, r7, r3
 165 0044 1A81     		strh	r2, [r3, #8]
 182:.\Generated_Source\PSoC4/BLE_hts.c ****         locHandleValuePair.value.len = attrSize;
 166              		.loc 1 182 0
 167 0046 BB1D     		add	r3, r7, #6
 168 0048 1B78     		ldrb	r3, [r3]
 169 004a 9AB2     		uxth	r2, r3
 170 004c 0823     		mov	r3, #8
 171 004e FB18     		add	r3, r7, r3
 172 0050 9A80     		strh	r2, [r3, #4]
 183:.\Generated_Source\PSoC4/BLE_hts.c ****         locHandleValuePair.value.val = attrValue;
 173              		.loc 1 183 0
 174 0052 0823     		mov	r3, #8
 175 0054 FB18     		add	r3, r7, r3
 176 0056 3A68     		ldr	r2, [r7]
 177 0058 1A60     		str	r2, [r3]
 184:.\Generated_Source\PSoC4/BLE_hts.c ****         if(CYBLE_GATT_ERR_NONE !=
 185:.\Generated_Source\PSoC4/BLE_hts.c ****             CyBle_GattsWriteAttributeValue(&locHandleValuePair, 0u, NULL, CYBLE_GATT_DB_LOCALLY_INI
 178              		.loc 1 185 0
 179 005a 0823     		mov	r3, #8
 180 005c FB18     		add	r3, r7, r3
 181 005e 181C     		mov	r0, r3
 182 0060 0021     		mov	r1, #0
 183 0062 0022     		mov	r2, #0
 184 0064 0023     		mov	r3, #0
 185 0066 FFF7FEFF 		bl	CyBle_GattsWriteAttributeValue
 186 006a 031E     		sub	r3, r0, #0
 184:.\Generated_Source\PSoC4/BLE_hts.c ****         if(CYBLE_GATT_ERR_NONE !=
 187              		.loc 1 184 0
 188 006c 03D0     		beq	.L9
 186:.\Generated_Source\PSoC4/BLE_hts.c ****         {
 187:.\Generated_Source\PSoC4/BLE_hts.c ****             apiResult = CYBLE_ERROR_INVALID_PARAMETER;
 189              		.loc 1 187 0
 190 006e 1623     		mov	r3, #22
 191 0070 FB18     		add	r3, r7, r3
 192 0072 0122     		mov	r2, #1
 193 0074 1A80     		strh	r2, [r3]
 194              	.L9:
 188:.\Generated_Source\PSoC4/BLE_hts.c ****         }
 189:.\Generated_Source\PSoC4/BLE_hts.c ****     }
 190:.\Generated_Source\PSoC4/BLE_hts.c ****     return (apiResult);
 195              		.loc 1 190 0
 196 0076 1623     		mov	r3, #22
 197 0078 FB18     		add	r3, r7, r3
 198 007a 1B88     		ldrh	r3, [r3]
 191:.\Generated_Source\PSoC4/BLE_hts.c **** }
 199              		.loc 1 191 0
 200 007c 181C     		mov	r0, r3
 201 007e BD46     		mov	sp, r7
 202 0080 06B0     		add	sp, sp, #24
 203              		@ sp needed
 204 0082 80BD     		pop	{r7, pc}
 205              	.L12:
 206              		.align	2
 207              	.L11:
ARM GAS  C:\Users\Henny\AppData\Local\Temp\ccRrnRtI.s 			page 8


 208 0084 00000000 		.word	cyBle_htss
 209              		.cfi_endproc
 210              	.LFE4:
 211              		.size	CyBle_HtssSetCharacteristicValue, .-CyBle_HtssSetCharacteristicValue
 212              		.section	.text.CyBle_HtssGetCharacteristicValue,"ax",%progbits
 213              		.align	2
 214              		.global	CyBle_HtssGetCharacteristicValue
 215              		.code	16
 216              		.thumb_func
 217              		.type	CyBle_HtssGetCharacteristicValue, %function
 218              	CyBle_HtssGetCharacteristicValue:
 219              	.LFB5:
 192:.\Generated_Source\PSoC4/BLE_hts.c **** 
 193:.\Generated_Source\PSoC4/BLE_hts.c **** 
 194:.\Generated_Source\PSoC4/BLE_hts.c **** /******************************************************************************
 195:.\Generated_Source\PSoC4/BLE_hts.c **** * Function Name: CyBle_HtssGetCharacteristicValue
 196:.\Generated_Source\PSoC4/BLE_hts.c **** ***************************************************************************//**
 197:.\Generated_Source\PSoC4/BLE_hts.c **** * 
 198:.\Generated_Source\PSoC4/BLE_hts.c **** *  Gets the characteristic value of the service, which is a value identified by
 199:.\Generated_Source\PSoC4/BLE_hts.c **** *  charIndex.
 200:.\Generated_Source\PSoC4/BLE_hts.c **** * 
 201:.\Generated_Source\PSoC4/BLE_hts.c **** *  \param charIndex: The index of the service characteristic.
 202:.\Generated_Source\PSoC4/BLE_hts.c **** *  \param attrSize: The size of the characteristic value attribute.
 203:.\Generated_Source\PSoC4/BLE_hts.c **** *  \param attrValue: The pointer to the location where characteristic value data
 204:.\Generated_Source\PSoC4/BLE_hts.c **** *               should be stored.
 205:.\Generated_Source\PSoC4/BLE_hts.c **** * 
 206:.\Generated_Source\PSoC4/BLE_hts.c **** * \return
 207:.\Generated_Source\PSoC4/BLE_hts.c **** *  Return value is of type CYBLE_API_RESULT_T.
 208:.\Generated_Source\PSoC4/BLE_hts.c **** *  * CYBLE_ERROR_OK - The request handled successfully
 209:.\Generated_Source\PSoC4/BLE_hts.c **** *  * CYBLE_ERROR_INVALID_PARAMETER - Validation of the input parameter failed
 210:.\Generated_Source\PSoC4/BLE_hts.c **** *
 211:.\Generated_Source\PSoC4/BLE_hts.c **** * \events
 212:.\Generated_Source\PSoC4/BLE_hts.c **** *  None
 213:.\Generated_Source\PSoC4/BLE_hts.c **** *
 214:.\Generated_Source\PSoC4/BLE_hts.c **** ******************************************************************************/
 215:.\Generated_Source\PSoC4/BLE_hts.c **** CYBLE_API_RESULT_T CyBle_HtssGetCharacteristicValue(CYBLE_HTS_CHAR_INDEX_T charIndex,
 216:.\Generated_Source\PSoC4/BLE_hts.c ****     uint8 attrSize, uint8 *attrValue)
 217:.\Generated_Source\PSoC4/BLE_hts.c **** {
 220              		.loc 1 217 0
 221              		.cfi_startproc
 222 0000 80B5     		push	{r7, lr}
 223              		.cfi_def_cfa_offset 8
 224              		.cfi_offset 7, -8
 225              		.cfi_offset 14, -4
 226 0002 86B0     		sub	sp, sp, #24
 227              		.cfi_def_cfa_offset 32
 228 0004 00AF     		add	r7, sp, #0
 229              		.cfi_def_cfa_register 7
 230 0006 3A60     		str	r2, [r7]
 231 0008 FB1D     		add	r3, r7, #7
 232 000a 021C     		add	r2, r0, #0
 233 000c 1A70     		strb	r2, [r3]
 234 000e BB1D     		add	r3, r7, #6
 235 0010 0A1C     		add	r2, r1, #0
 236 0012 1A70     		strb	r2, [r3]
 218:.\Generated_Source\PSoC4/BLE_hts.c ****     CYBLE_API_RESULT_T apiResult = CYBLE_ERROR_OK;
 237              		.loc 1 218 0
ARM GAS  C:\Users\Henny\AppData\Local\Temp\ccRrnRtI.s 			page 9


 238 0014 1623     		mov	r3, #22
 239 0016 FB18     		add	r3, r7, r3
 240 0018 0022     		mov	r2, #0
 241 001a 1A80     		strh	r2, [r3]
 219:.\Generated_Source\PSoC4/BLE_hts.c ****     CYBLE_GATT_HANDLE_VALUE_PAIR_T locHandleValuePair;
 220:.\Generated_Source\PSoC4/BLE_hts.c **** 
 221:.\Generated_Source\PSoC4/BLE_hts.c ****     if(charIndex >= CYBLE_HTS_CHAR_COUNT)
 242              		.loc 1 221 0
 243 001c FB1D     		add	r3, r7, #7
 244 001e 1B78     		ldrb	r3, [r3]
 245 0020 032B     		cmp	r3, #3
 246 0022 04D9     		bls	.L14
 222:.\Generated_Source\PSoC4/BLE_hts.c ****     {
 223:.\Generated_Source\PSoC4/BLE_hts.c ****         apiResult = CYBLE_ERROR_INVALID_PARAMETER;
 247              		.loc 1 223 0
 248 0024 1623     		mov	r3, #22
 249 0026 FB18     		add	r3, r7, r3
 250 0028 0122     		mov	r2, #1
 251 002a 1A80     		strh	r2, [r3]
 252 002c 22E0     		b	.L15
 253              	.L14:
 224:.\Generated_Source\PSoC4/BLE_hts.c ****     }
 225:.\Generated_Source\PSoC4/BLE_hts.c ****     else
 226:.\Generated_Source\PSoC4/BLE_hts.c ****     {
 227:.\Generated_Source\PSoC4/BLE_hts.c ****         /* Read characteristic value from database */
 228:.\Generated_Source\PSoC4/BLE_hts.c ****         locHandleValuePair.attrHandle = cyBle_htss.charInfo[charIndex].charHandle;
 254              		.loc 1 228 0
 255 002e FB1D     		add	r3, r7, #7
 256 0030 1A78     		ldrb	r2, [r3]
 257 0032 1449     		ldr	r1, .L17
 258 0034 131C     		mov	r3, r2
 259 0036 5B00     		lsl	r3, r3, #1
 260 0038 9B18     		add	r3, r3, r2
 261 003a 5B00     		lsl	r3, r3, #1
 262 003c CB18     		add	r3, r1, r3
 263 003e 5A88     		ldrh	r2, [r3, #2]
 264 0040 0823     		mov	r3, #8
 265 0042 FB18     		add	r3, r7, r3
 266 0044 1A81     		strh	r2, [r3, #8]
 229:.\Generated_Source\PSoC4/BLE_hts.c ****         locHandleValuePair.value.len = attrSize;
 267              		.loc 1 229 0
 268 0046 BB1D     		add	r3, r7, #6
 269 0048 1B78     		ldrb	r3, [r3]
 270 004a 9AB2     		uxth	r2, r3
 271 004c 0823     		mov	r3, #8
 272 004e FB18     		add	r3, r7, r3
 273 0050 9A80     		strh	r2, [r3, #4]
 230:.\Generated_Source\PSoC4/BLE_hts.c ****         locHandleValuePair.value.val = attrValue;
 274              		.loc 1 230 0
 275 0052 0823     		mov	r3, #8
 276 0054 FB18     		add	r3, r7, r3
 277 0056 3A68     		ldr	r2, [r7]
 278 0058 1A60     		str	r2, [r3]
 231:.\Generated_Source\PSoC4/BLE_hts.c ****         if(CYBLE_GATT_ERR_NONE !=
 232:.\Generated_Source\PSoC4/BLE_hts.c ****             CyBle_GattsReadAttributeValue(&locHandleValuePair, NULL, CYBLE_GATT_DB_LOCALLY_INITIATE
 279              		.loc 1 232 0
 280 005a 0823     		mov	r3, #8
ARM GAS  C:\Users\Henny\AppData\Local\Temp\ccRrnRtI.s 			page 10


 281 005c FB18     		add	r3, r7, r3
 282 005e 181C     		mov	r0, r3
 283 0060 0021     		mov	r1, #0
 284 0062 0022     		mov	r2, #0
 285 0064 FFF7FEFF 		bl	CyBle_GattsReadAttributeValue
 286 0068 031E     		sub	r3, r0, #0
 231:.\Generated_Source\PSoC4/BLE_hts.c ****         if(CYBLE_GATT_ERR_NONE !=
 287              		.loc 1 231 0
 288 006a 03D0     		beq	.L15
 233:.\Generated_Source\PSoC4/BLE_hts.c ****         {
 234:.\Generated_Source\PSoC4/BLE_hts.c ****             apiResult = CYBLE_ERROR_INVALID_PARAMETER;
 289              		.loc 1 234 0
 290 006c 1623     		mov	r3, #22
 291 006e FB18     		add	r3, r7, r3
 292 0070 0122     		mov	r2, #1
 293 0072 1A80     		strh	r2, [r3]
 294              	.L15:
 235:.\Generated_Source\PSoC4/BLE_hts.c ****         }
 236:.\Generated_Source\PSoC4/BLE_hts.c ****     }
 237:.\Generated_Source\PSoC4/BLE_hts.c ****     return (apiResult);
 295              		.loc 1 237 0
 296 0074 1623     		mov	r3, #22
 297 0076 FB18     		add	r3, r7, r3
 298 0078 1B88     		ldrh	r3, [r3]
 238:.\Generated_Source\PSoC4/BLE_hts.c **** }
 299              		.loc 1 238 0
 300 007a 181C     		mov	r0, r3
 301 007c BD46     		mov	sp, r7
 302 007e 06B0     		add	sp, sp, #24
 303              		@ sp needed
 304 0080 80BD     		pop	{r7, pc}
 305              	.L18:
 306 0082 C046     		.align	2
 307              	.L17:
 308 0084 00000000 		.word	cyBle_htss
 309              		.cfi_endproc
 310              	.LFE5:
 311              		.size	CyBle_HtssGetCharacteristicValue, .-CyBle_HtssGetCharacteristicValue
 312              		.section	.text.CyBle_HtssSetCharacteristicDescriptor,"ax",%progbits
 313              		.align	2
 314              		.global	CyBle_HtssSetCharacteristicDescriptor
 315              		.code	16
 316              		.thumb_func
 317              		.type	CyBle_HtssSetCharacteristicDescriptor, %function
 318              	CyBle_HtssSetCharacteristicDescriptor:
 319              	.LFB6:
 239:.\Generated_Source\PSoC4/BLE_hts.c **** 
 240:.\Generated_Source\PSoC4/BLE_hts.c **** 
 241:.\Generated_Source\PSoC4/BLE_hts.c **** /******************************************************************************
 242:.\Generated_Source\PSoC4/BLE_hts.c **** * Function Name: CyBle_HtssSetCharacteristicDescriptor
 243:.\Generated_Source\PSoC4/BLE_hts.c **** ***************************************************************************//**
 244:.\Generated_Source\PSoC4/BLE_hts.c **** * 
 245:.\Generated_Source\PSoC4/BLE_hts.c **** *  Sets the characteristic descriptor of the specified characteristic.
 246:.\Generated_Source\PSoC4/BLE_hts.c **** * 
 247:.\Generated_Source\PSoC4/BLE_hts.c **** *  \param charIndex:  The index of the service characteristic.
 248:.\Generated_Source\PSoC4/BLE_hts.c **** *  \param descrIndex: The index of the service characteristic descriptor.
 249:.\Generated_Source\PSoC4/BLE_hts.c **** *  \param attrSize:   The size of the characteristic descriptor attribute.
ARM GAS  C:\Users\Henny\AppData\Local\Temp\ccRrnRtI.s 			page 11


 250:.\Generated_Source\PSoC4/BLE_hts.c **** *  \param attrValue: The pointer to the descriptor value data that should 
 251:.\Generated_Source\PSoC4/BLE_hts.c **** *              be stored in the GATT database. 
 252:.\Generated_Source\PSoC4/BLE_hts.c **** * 
 253:.\Generated_Source\PSoC4/BLE_hts.c **** * \return
 254:.\Generated_Source\PSoC4/BLE_hts.c **** *  Return value is of type CYBLE_API_RESULT_T.
 255:.\Generated_Source\PSoC4/BLE_hts.c **** *  * CYBLE_ERROR_OK - The request handled successfully
 256:.\Generated_Source\PSoC4/BLE_hts.c **** *  * CYBLE_ERROR_INVALID_PARAMETER - Validation of the input parameter failed
 257:.\Generated_Source\PSoC4/BLE_hts.c **** *
 258:.\Generated_Source\PSoC4/BLE_hts.c **** * \events
 259:.\Generated_Source\PSoC4/BLE_hts.c **** *  None
 260:.\Generated_Source\PSoC4/BLE_hts.c **** *
 261:.\Generated_Source\PSoC4/BLE_hts.c **** ******************************************************************************/
 262:.\Generated_Source\PSoC4/BLE_hts.c **** CYBLE_API_RESULT_T CyBle_HtssSetCharacteristicDescriptor(CYBLE_HTS_CHAR_INDEX_T charIndex,
 263:.\Generated_Source\PSoC4/BLE_hts.c ****     CYBLE_HTS_DESCR_INDEX_T descrIndex, uint8 attrSize, uint8 *attrValue)
 264:.\Generated_Source\PSoC4/BLE_hts.c **** {
 320              		.loc 1 264 0
 321              		.cfi_startproc
 322 0000 90B5     		push	{r4, r7, lr}
 323              		.cfi_def_cfa_offset 12
 324              		.cfi_offset 4, -12
 325              		.cfi_offset 7, -8
 326              		.cfi_offset 14, -4
 327 0002 87B0     		sub	sp, sp, #28
 328              		.cfi_def_cfa_offset 40
 329 0004 00AF     		add	r7, sp, #0
 330              		.cfi_def_cfa_register 7
 331 0006 041C     		mov	r4, r0
 332 0008 081C     		mov	r0, r1
 333 000a 111C     		mov	r1, r2
 334 000c 3B60     		str	r3, [r7]
 335 000e FB1D     		add	r3, r7, #7
 336 0010 221C     		add	r2, r4, #0
 337 0012 1A70     		strb	r2, [r3]
 338 0014 BB1D     		add	r3, r7, #6
 339 0016 021C     		add	r2, r0, #0
 340 0018 1A70     		strb	r2, [r3]
 341 001a 7B1D     		add	r3, r7, #5
 342 001c 0A1C     		add	r2, r1, #0
 343 001e 1A70     		strb	r2, [r3]
 265:.\Generated_Source\PSoC4/BLE_hts.c ****     CYBLE_API_RESULT_T apiResult = CYBLE_ERROR_OK;
 344              		.loc 1 265 0
 345 0020 1623     		mov	r3, #22
 346 0022 FB18     		add	r3, r7, r3
 347 0024 0022     		mov	r2, #0
 348 0026 1A80     		strh	r2, [r3]
 266:.\Generated_Source\PSoC4/BLE_hts.c ****     CYBLE_GATT_HANDLE_VALUE_PAIR_T locHandleValuePair;
 267:.\Generated_Source\PSoC4/BLE_hts.c **** 
 268:.\Generated_Source\PSoC4/BLE_hts.c ****     if((charIndex >= CYBLE_HTS_CHAR_COUNT) || (descrIndex >= CYBLE_HTS_DESCR_COUNT))
 349              		.loc 1 268 0
 350 0028 FB1D     		add	r3, r7, #7
 351 002a 1B78     		ldrb	r3, [r3]
 352 002c 032B     		cmp	r3, #3
 353 002e 03D8     		bhi	.L20
 354              		.loc 1 268 0 is_stmt 0 discriminator 1
 355 0030 BB1D     		add	r3, r7, #6
 356 0032 1B78     		ldrb	r3, [r3]
 357 0034 012B     		cmp	r3, #1
ARM GAS  C:\Users\Henny\AppData\Local\Temp\ccRrnRtI.s 			page 12


 358 0036 04D9     		bls	.L21
 359              	.L20:
 269:.\Generated_Source\PSoC4/BLE_hts.c ****     {
 270:.\Generated_Source\PSoC4/BLE_hts.c ****         apiResult = CYBLE_ERROR_INVALID_PARAMETER;
 360              		.loc 1 270 0 is_stmt 1
 361 0038 1623     		mov	r3, #22
 362 003a FB18     		add	r3, r7, r3
 363 003c 0122     		mov	r2, #1
 364 003e 1A80     		strh	r2, [r3]
 365 0040 30E0     		b	.L22
 366              	.L21:
 271:.\Generated_Source\PSoC4/BLE_hts.c ****     }
 272:.\Generated_Source\PSoC4/BLE_hts.c ****     else
 273:.\Generated_Source\PSoC4/BLE_hts.c ****     {
 274:.\Generated_Source\PSoC4/BLE_hts.c ****         locHandleValuePair.attrHandle = cyBle_htss.charInfo[charIndex].descrHandle[descrIndex];
 367              		.loc 1 274 0
 368 0042 FB1D     		add	r3, r7, #7
 369 0044 1A78     		ldrb	r2, [r3]
 370 0046 BB1D     		add	r3, r7, #6
 371 0048 1878     		ldrb	r0, [r3]
 372 004a 1A49     		ldr	r1, .L26
 373 004c 131C     		mov	r3, r2
 374 004e 5B00     		lsl	r3, r3, #1
 375 0050 9B18     		add	r3, r3, r2
 376 0052 1B18     		add	r3, r3, r0
 377 0054 5B00     		lsl	r3, r3, #1
 378 0056 CB18     		add	r3, r1, r3
 379 0058 9A88     		ldrh	r2, [r3, #4]
 380 005a 0823     		mov	r3, #8
 381 005c FB18     		add	r3, r7, r3
 382 005e 1A81     		strh	r2, [r3, #8]
 275:.\Generated_Source\PSoC4/BLE_hts.c ****         if(locHandleValuePair.attrHandle != CYBLE_GATT_INVALID_ATTR_HANDLE_VALUE)
 383              		.loc 1 275 0
 384 0060 0823     		mov	r3, #8
 385 0062 FB18     		add	r3, r7, r3
 386 0064 1B89     		ldrh	r3, [r3, #8]
 387 0066 002B     		cmp	r3, #0
 388 0068 18D0     		beq	.L23
 276:.\Generated_Source\PSoC4/BLE_hts.c ****         {
 277:.\Generated_Source\PSoC4/BLE_hts.c ****             locHandleValuePair.value.len = attrSize;
 389              		.loc 1 277 0
 390 006a 7B1D     		add	r3, r7, #5
 391 006c 1B78     		ldrb	r3, [r3]
 392 006e 9AB2     		uxth	r2, r3
 393 0070 0823     		mov	r3, #8
 394 0072 FB18     		add	r3, r7, r3
 395 0074 9A80     		strh	r2, [r3, #4]
 278:.\Generated_Source\PSoC4/BLE_hts.c ****             locHandleValuePair.value.val = attrValue;
 396              		.loc 1 278 0
 397 0076 0823     		mov	r3, #8
 398 0078 FB18     		add	r3, r7, r3
 399 007a 3A68     		ldr	r2, [r7]
 400 007c 1A60     		str	r2, [r3]
 279:.\Generated_Source\PSoC4/BLE_hts.c ****             if(CYBLE_GATT_ERR_NONE !=
 280:.\Generated_Source\PSoC4/BLE_hts.c ****                 CyBle_GattsWriteAttributeValue(&locHandleValuePair, 0u, NULL, CYBLE_GATT_DB_LOCALLY
 401              		.loc 1 280 0
 402 007e 0823     		mov	r3, #8
ARM GAS  C:\Users\Henny\AppData\Local\Temp\ccRrnRtI.s 			page 13


 403 0080 FB18     		add	r3, r7, r3
 404 0082 181C     		mov	r0, r3
 405 0084 0021     		mov	r1, #0
 406 0086 0022     		mov	r2, #0
 407 0088 0023     		mov	r3, #0
 408 008a FFF7FEFF 		bl	CyBle_GattsWriteAttributeValue
 409 008e 031E     		sub	r3, r0, #0
 279:.\Generated_Source\PSoC4/BLE_hts.c ****             if(CYBLE_GATT_ERR_NONE !=
 410              		.loc 1 279 0
 411 0090 08D0     		beq	.L22
 281:.\Generated_Source\PSoC4/BLE_hts.c ****             {
 282:.\Generated_Source\PSoC4/BLE_hts.c ****                 apiResult = CYBLE_ERROR_INVALID_PARAMETER;
 412              		.loc 1 282 0
 413 0092 1623     		mov	r3, #22
 414 0094 FB18     		add	r3, r7, r3
 415 0096 0122     		mov	r2, #1
 416 0098 1A80     		strh	r2, [r3]
 417 009a 03E0     		b	.L22
 418              	.L23:
 283:.\Generated_Source\PSoC4/BLE_hts.c ****             }
 284:.\Generated_Source\PSoC4/BLE_hts.c ****         }
 285:.\Generated_Source\PSoC4/BLE_hts.c ****         else
 286:.\Generated_Source\PSoC4/BLE_hts.c ****         {
 287:.\Generated_Source\PSoC4/BLE_hts.c ****             apiResult = CYBLE_ERROR_INVALID_PARAMETER;
 419              		.loc 1 287 0
 420 009c 1623     		mov	r3, #22
 421 009e FB18     		add	r3, r7, r3
 422 00a0 0122     		mov	r2, #1
 423 00a2 1A80     		strh	r2, [r3]
 424              	.L22:
 288:.\Generated_Source\PSoC4/BLE_hts.c ****         }
 289:.\Generated_Source\PSoC4/BLE_hts.c ****     }
 290:.\Generated_Source\PSoC4/BLE_hts.c ****     return (apiResult);
 425              		.loc 1 290 0
 426 00a4 1623     		mov	r3, #22
 427 00a6 FB18     		add	r3, r7, r3
 428 00a8 1B88     		ldrh	r3, [r3]
 291:.\Generated_Source\PSoC4/BLE_hts.c **** }
 429              		.loc 1 291 0
 430 00aa 181C     		mov	r0, r3
 431 00ac BD46     		mov	sp, r7
 432 00ae 07B0     		add	sp, sp, #28
 433              		@ sp needed
 434 00b0 90BD     		pop	{r4, r7, pc}
 435              	.L27:
 436 00b2 C046     		.align	2
 437              	.L26:
 438 00b4 00000000 		.word	cyBle_htss
 439              		.cfi_endproc
 440              	.LFE6:
 441              		.size	CyBle_HtssSetCharacteristicDescriptor, .-CyBle_HtssSetCharacteristicDescriptor
 442              		.section	.text.CyBle_HtssGetCharacteristicDescriptor,"ax",%progbits
 443              		.align	2
 444              		.global	CyBle_HtssGetCharacteristicDescriptor
 445              		.code	16
 446              		.thumb_func
 447              		.type	CyBle_HtssGetCharacteristicDescriptor, %function
ARM GAS  C:\Users\Henny\AppData\Local\Temp\ccRrnRtI.s 			page 14


 448              	CyBle_HtssGetCharacteristicDescriptor:
 449              	.LFB7:
 292:.\Generated_Source\PSoC4/BLE_hts.c **** 
 293:.\Generated_Source\PSoC4/BLE_hts.c **** 
 294:.\Generated_Source\PSoC4/BLE_hts.c **** /******************************************************************************
 295:.\Generated_Source\PSoC4/BLE_hts.c **** * Function Name: CyBle_HtssGetCharacteristicDescriptor
 296:.\Generated_Source\PSoC4/BLE_hts.c **** ***************************************************************************//**
 297:.\Generated_Source\PSoC4/BLE_hts.c **** * 
 298:.\Generated_Source\PSoC4/BLE_hts.c **** *  Gets the characteristic descriptor of the specified characteristic.
 299:.\Generated_Source\PSoC4/BLE_hts.c **** * 
 300:.\Generated_Source\PSoC4/BLE_hts.c **** *  \param charIndex: The index of the service characteristic.
 301:.\Generated_Source\PSoC4/BLE_hts.c **** *  \param descrIndex: The index of the service characteristic descriptor.
 302:.\Generated_Source\PSoC4/BLE_hts.c **** *  \param attrSize: The size of the characteristic descriptor attribute.
 303:.\Generated_Source\PSoC4/BLE_hts.c **** *  \param attrValue: The pointer to the location where characteristic descriptor
 304:.\Generated_Source\PSoC4/BLE_hts.c **** *               value data should be stored.
 305:.\Generated_Source\PSoC4/BLE_hts.c **** * 
 306:.\Generated_Source\PSoC4/BLE_hts.c **** * \return
 307:.\Generated_Source\PSoC4/BLE_hts.c **** *  Return value is of type CYBLE_API_RESULT_T.
 308:.\Generated_Source\PSoC4/BLE_hts.c **** *  * CYBLE_ERROR_OK - The request handled successfully
 309:.\Generated_Source\PSoC4/BLE_hts.c **** *  * CYBLE_ERROR_INVALID_PARAMETER - Validation of the input parameter failed
 310:.\Generated_Source\PSoC4/BLE_hts.c **** *
 311:.\Generated_Source\PSoC4/BLE_hts.c **** * \events
 312:.\Generated_Source\PSoC4/BLE_hts.c **** *  None
 313:.\Generated_Source\PSoC4/BLE_hts.c **** *
 314:.\Generated_Source\PSoC4/BLE_hts.c **** ******************************************************************************/
 315:.\Generated_Source\PSoC4/BLE_hts.c **** CYBLE_API_RESULT_T CyBle_HtssGetCharacteristicDescriptor(CYBLE_HTS_CHAR_INDEX_T charIndex,
 316:.\Generated_Source\PSoC4/BLE_hts.c ****     CYBLE_HTS_DESCR_INDEX_T descrIndex, uint8 attrSize, uint8 *attrValue)
 317:.\Generated_Source\PSoC4/BLE_hts.c **** {
 450              		.loc 1 317 0
 451              		.cfi_startproc
 452 0000 90B5     		push	{r4, r7, lr}
 453              		.cfi_def_cfa_offset 12
 454              		.cfi_offset 4, -12
 455              		.cfi_offset 7, -8
 456              		.cfi_offset 14, -4
 457 0002 87B0     		sub	sp, sp, #28
 458              		.cfi_def_cfa_offset 40
 459 0004 00AF     		add	r7, sp, #0
 460              		.cfi_def_cfa_register 7
 461 0006 041C     		mov	r4, r0
 462 0008 081C     		mov	r0, r1
 463 000a 111C     		mov	r1, r2
 464 000c 3B60     		str	r3, [r7]
 465 000e FB1D     		add	r3, r7, #7
 466 0010 221C     		add	r2, r4, #0
 467 0012 1A70     		strb	r2, [r3]
 468 0014 BB1D     		add	r3, r7, #6
 469 0016 021C     		add	r2, r0, #0
 470 0018 1A70     		strb	r2, [r3]
 471 001a 7B1D     		add	r3, r7, #5
 472 001c 0A1C     		add	r2, r1, #0
 473 001e 1A70     		strb	r2, [r3]
 318:.\Generated_Source\PSoC4/BLE_hts.c ****     CYBLE_API_RESULT_T apiResult = CYBLE_ERROR_OK;
 474              		.loc 1 318 0
 475 0020 1623     		mov	r3, #22
 476 0022 FB18     		add	r3, r7, r3
 477 0024 0022     		mov	r2, #0
ARM GAS  C:\Users\Henny\AppData\Local\Temp\ccRrnRtI.s 			page 15


 478 0026 1A80     		strh	r2, [r3]
 319:.\Generated_Source\PSoC4/BLE_hts.c ****     CYBLE_GATT_HANDLE_VALUE_PAIR_T locHandleValuePair;
 320:.\Generated_Source\PSoC4/BLE_hts.c **** 
 321:.\Generated_Source\PSoC4/BLE_hts.c ****     if((charIndex >= CYBLE_HTS_CHAR_COUNT) || (descrIndex >= CYBLE_HTS_DESCR_COUNT))
 479              		.loc 1 321 0
 480 0028 FB1D     		add	r3, r7, #7
 481 002a 1B78     		ldrb	r3, [r3]
 482 002c 032B     		cmp	r3, #3
 483 002e 03D8     		bhi	.L29
 484              		.loc 1 321 0 is_stmt 0 discriminator 1
 485 0030 BB1D     		add	r3, r7, #6
 486 0032 1B78     		ldrb	r3, [r3]
 487 0034 012B     		cmp	r3, #1
 488 0036 04D9     		bls	.L30
 489              	.L29:
 322:.\Generated_Source\PSoC4/BLE_hts.c ****     {
 323:.\Generated_Source\PSoC4/BLE_hts.c ****         apiResult = CYBLE_ERROR_INVALID_PARAMETER;
 490              		.loc 1 323 0 is_stmt 1
 491 0038 1623     		mov	r3, #22
 492 003a FB18     		add	r3, r7, r3
 493 003c 0122     		mov	r2, #1
 494 003e 1A80     		strh	r2, [r3]
 495 0040 2FE0     		b	.L31
 496              	.L30:
 324:.\Generated_Source\PSoC4/BLE_hts.c ****     }
 325:.\Generated_Source\PSoC4/BLE_hts.c ****     else
 326:.\Generated_Source\PSoC4/BLE_hts.c ****     {
 327:.\Generated_Source\PSoC4/BLE_hts.c ****         locHandleValuePair.attrHandle = cyBle_htss.charInfo[charIndex].descrHandle[descrIndex];
 497              		.loc 1 327 0
 498 0042 FB1D     		add	r3, r7, #7
 499 0044 1A78     		ldrb	r2, [r3]
 500 0046 BB1D     		add	r3, r7, #6
 501 0048 1878     		ldrb	r0, [r3]
 502 004a 1949     		ldr	r1, .L35
 503 004c 131C     		mov	r3, r2
 504 004e 5B00     		lsl	r3, r3, #1
 505 0050 9B18     		add	r3, r3, r2
 506 0052 1B18     		add	r3, r3, r0
 507 0054 5B00     		lsl	r3, r3, #1
 508 0056 CB18     		add	r3, r1, r3
 509 0058 9A88     		ldrh	r2, [r3, #4]
 510 005a 0823     		mov	r3, #8
 511 005c FB18     		add	r3, r7, r3
 512 005e 1A81     		strh	r2, [r3, #8]
 328:.\Generated_Source\PSoC4/BLE_hts.c ****         if(locHandleValuePair.attrHandle != CYBLE_GATT_INVALID_ATTR_HANDLE_VALUE)
 513              		.loc 1 328 0
 514 0060 0823     		mov	r3, #8
 515 0062 FB18     		add	r3, r7, r3
 516 0064 1B89     		ldrh	r3, [r3, #8]
 517 0066 002B     		cmp	r3, #0
 518 0068 17D0     		beq	.L32
 329:.\Generated_Source\PSoC4/BLE_hts.c ****         {
 330:.\Generated_Source\PSoC4/BLE_hts.c ****             locHandleValuePair.value.len = attrSize;
 519              		.loc 1 330 0
 520 006a 7B1D     		add	r3, r7, #5
 521 006c 1B78     		ldrb	r3, [r3]
 522 006e 9AB2     		uxth	r2, r3
ARM GAS  C:\Users\Henny\AppData\Local\Temp\ccRrnRtI.s 			page 16


 523 0070 0823     		mov	r3, #8
 524 0072 FB18     		add	r3, r7, r3
 525 0074 9A80     		strh	r2, [r3, #4]
 331:.\Generated_Source\PSoC4/BLE_hts.c ****             locHandleValuePair.value.val = attrValue;
 526              		.loc 1 331 0
 527 0076 0823     		mov	r3, #8
 528 0078 FB18     		add	r3, r7, r3
 529 007a 3A68     		ldr	r2, [r7]
 530 007c 1A60     		str	r2, [r3]
 332:.\Generated_Source\PSoC4/BLE_hts.c ****             if(CYBLE_GATT_ERR_NONE !=
 333:.\Generated_Source\PSoC4/BLE_hts.c ****                 CyBle_GattsReadAttributeValue(&locHandleValuePair, NULL, CYBLE_GATT_DB_LOCALLY_INIT
 531              		.loc 1 333 0
 532 007e 0823     		mov	r3, #8
 533 0080 FB18     		add	r3, r7, r3
 534 0082 181C     		mov	r0, r3
 535 0084 0021     		mov	r1, #0
 536 0086 0022     		mov	r2, #0
 537 0088 FFF7FEFF 		bl	CyBle_GattsReadAttributeValue
 538 008c 031E     		sub	r3, r0, #0
 332:.\Generated_Source\PSoC4/BLE_hts.c ****             if(CYBLE_GATT_ERR_NONE !=
 539              		.loc 1 332 0
 540 008e 08D0     		beq	.L31
 334:.\Generated_Source\PSoC4/BLE_hts.c ****             {
 335:.\Generated_Source\PSoC4/BLE_hts.c ****                 apiResult = CYBLE_ERROR_INVALID_PARAMETER;
 541              		.loc 1 335 0
 542 0090 1623     		mov	r3, #22
 543 0092 FB18     		add	r3, r7, r3
 544 0094 0122     		mov	r2, #1
 545 0096 1A80     		strh	r2, [r3]
 546 0098 03E0     		b	.L31
 547              	.L32:
 336:.\Generated_Source\PSoC4/BLE_hts.c ****             }
 337:.\Generated_Source\PSoC4/BLE_hts.c ****         }
 338:.\Generated_Source\PSoC4/BLE_hts.c ****         else
 339:.\Generated_Source\PSoC4/BLE_hts.c ****         {
 340:.\Generated_Source\PSoC4/BLE_hts.c ****             apiResult = CYBLE_ERROR_INVALID_PARAMETER;
 548              		.loc 1 340 0
 549 009a 1623     		mov	r3, #22
 550 009c FB18     		add	r3, r7, r3
 551 009e 0122     		mov	r2, #1
 552 00a0 1A80     		strh	r2, [r3]
 553              	.L31:
 341:.\Generated_Source\PSoC4/BLE_hts.c ****         }
 342:.\Generated_Source\PSoC4/BLE_hts.c ****     }
 343:.\Generated_Source\PSoC4/BLE_hts.c ****     return (apiResult);
 554              		.loc 1 343 0
 555 00a2 1623     		mov	r3, #22
 556 00a4 FB18     		add	r3, r7, r3
 557 00a6 1B88     		ldrh	r3, [r3]
 344:.\Generated_Source\PSoC4/BLE_hts.c **** }
 558              		.loc 1 344 0
 559 00a8 181C     		mov	r0, r3
 560 00aa BD46     		mov	sp, r7
 561 00ac 07B0     		add	sp, sp, #28
 562              		@ sp needed
 563 00ae 90BD     		pop	{r4, r7, pc}
 564              	.L36:
ARM GAS  C:\Users\Henny\AppData\Local\Temp\ccRrnRtI.s 			page 17


 565              		.align	2
 566              	.L35:
 567 00b0 00000000 		.word	cyBle_htss
 568              		.cfi_endproc
 569              	.LFE7:
 570              		.size	CyBle_HtssGetCharacteristicDescriptor, .-CyBle_HtssGetCharacteristicDescriptor
 571              		.section	.text.CyBle_HtssWriteEventHandler,"ax",%progbits
 572              		.align	2
 573              		.global	CyBle_HtssWriteEventHandler
 574              		.code	16
 575              		.thumb_func
 576              		.type	CyBle_HtssWriteEventHandler, %function
 577              	CyBle_HtssWriteEventHandler:
 578              	.LFB8:
 345:.\Generated_Source\PSoC4/BLE_hts.c **** 
 346:.\Generated_Source\PSoC4/BLE_hts.c **** 
 347:.\Generated_Source\PSoC4/BLE_hts.c **** /******************************************************************************
 348:.\Generated_Source\PSoC4/BLE_hts.c **** * Function Name: CyBle_HtssWriteEventHandler
 349:.\Generated_Source\PSoC4/BLE_hts.c **** ***************************************************************************//**
 350:.\Generated_Source\PSoC4/BLE_hts.c **** * 
 351:.\Generated_Source\PSoC4/BLE_hts.c **** *  Handles Write Request Event for HTS service.
 352:.\Generated_Source\PSoC4/BLE_hts.c **** * 
 353:.\Generated_Source\PSoC4/BLE_hts.c **** *  \param void *eventParam: The pointer to the data structure specified by the event.
 354:.\Generated_Source\PSoC4/BLE_hts.c **** * 
 355:.\Generated_Source\PSoC4/BLE_hts.c **** * \return
 356:.\Generated_Source\PSoC4/BLE_hts.c **** *  Return value is of type CYBLE_GATT_ERR_CODE_T.
 357:.\Generated_Source\PSoC4/BLE_hts.c **** *   * CYBLE_GATT_ERR_NONE - Write is successful
 358:.\Generated_Source\PSoC4/BLE_hts.c **** * 
 359:.\Generated_Source\PSoC4/BLE_hts.c **** ******************************************************************************/
 360:.\Generated_Source\PSoC4/BLE_hts.c **** CYBLE_GATT_ERR_CODE_T CyBle_HtssWriteEventHandler(CYBLE_GATTS_WRITE_REQ_PARAM_T *eventParam)
 361:.\Generated_Source\PSoC4/BLE_hts.c **** {
 579              		.loc 1 361 0
 580              		.cfi_startproc
 581 0000 90B5     		push	{r4, r7, lr}
 582              		.cfi_def_cfa_offset 12
 583              		.cfi_offset 4, -12
 584              		.cfi_offset 7, -8
 585              		.cfi_offset 14, -4
 586 0002 89B0     		sub	sp, sp, #36
 587              		.cfi_def_cfa_offset 48
 588 0004 00AF     		add	r7, sp, #0
 589              		.cfi_def_cfa_register 7
 590 0006 7860     		str	r0, [r7, #4]
 362:.\Generated_Source\PSoC4/BLE_hts.c ****     CYBLE_HTS_CHAR_INDEX_T locCharIndex;
 363:.\Generated_Source\PSoC4/BLE_hts.c ****     CYBLE_HTS_CHAR_VALUE_T locCharValue;
 364:.\Generated_Source\PSoC4/BLE_hts.c ****     CYBLE_GATT_ERR_CODE_T gattErr = CYBLE_GATT_ERR_NONE;
 591              		.loc 1 364 0
 592 0008 1E23     		mov	r3, #30
 593 000a FB18     		add	r3, r7, r3
 594 000c 0022     		mov	r2, #0
 595 000e 1A70     		strb	r2, [r3]
 365:.\Generated_Source\PSoC4/BLE_hts.c ****     uint8 locReqHandle = 0u;
 596              		.loc 1 365 0
 597 0010 1D23     		mov	r3, #29
 598 0012 FB18     		add	r3, r7, r3
 599 0014 0022     		mov	r2, #0
 600 0016 1A70     		strb	r2, [r3]
ARM GAS  C:\Users\Henny\AppData\Local\Temp\ccRrnRtI.s 			page 18


 366:.\Generated_Source\PSoC4/BLE_hts.c **** 
 367:.\Generated_Source\PSoC4/BLE_hts.c ****     if(NULL != CyBle_HtsApplCallback)
 601              		.loc 1 367 0
 602 0018 B04B     		ldr	r3, .L53
 603 001a 1B68     		ldr	r3, [r3]
 604 001c 002B     		cmp	r3, #0
 605 001e 00D1     		bne	.LCB512
 606 0020 54E1     		b	.L38	@long jump
 607              	.LCB512:
 368:.\Generated_Source\PSoC4/BLE_hts.c ****     {
 369:.\Generated_Source\PSoC4/BLE_hts.c ****         for(locCharIndex = CYBLE_HTS_TEMP_MEASURE; (locCharIndex < CYBLE_HTS_CHAR_COUNT) && (locReq
 608              		.loc 1 369 0
 609 0022 1F23     		mov	r3, #31
 610 0024 FB18     		add	r3, r7, r3
 611 0026 0022     		mov	r2, #0
 612 0028 1A70     		strb	r2, [r3]
 613 002a 44E1     		b	.L39
 614              	.L51:
 370:.\Generated_Source\PSoC4/BLE_hts.c ****             locCharIndex++)
 371:.\Generated_Source\PSoC4/BLE_hts.c ****         {
 372:.\Generated_Source\PSoC4/BLE_hts.c ****             
 373:.\Generated_Source\PSoC4/BLE_hts.c ****             if((eventParam->handleValPair.attrHandle == cyBle_htss.charInfo[locCharIndex].descrHand
 615              		.loc 1 373 0
 616 002c 7B68     		ldr	r3, [r7, #4]
 617 002e 9989     		ldrh	r1, [r3, #12]
 618 0030 1F23     		mov	r3, #31
 619 0032 FB18     		add	r3, r7, r3
 620 0034 1A78     		ldrb	r2, [r3]
 621 0036 AA48     		ldr	r0, .L53+4
 622 0038 131C     		mov	r3, r2
 623 003a 5B00     		lsl	r3, r3, #1
 624 003c 9B18     		add	r3, r3, r2
 625 003e 5B00     		lsl	r3, r3, #1
 626 0040 C318     		add	r3, r0, r3
 627 0042 9B88     		ldrh	r3, [r3, #4]
 628 0044 9942     		cmp	r1, r3
 629 0046 0ED0     		beq	.L40
 374:.\Generated_Source\PSoC4/BLE_hts.c ****                (eventParam->handleValPair.attrHandle == cyBle_htss.charInfo[locCharIndex].charHandl
 630              		.loc 1 374 0 discriminator 1
 631 0048 7B68     		ldr	r3, [r7, #4]
 632 004a 9989     		ldrh	r1, [r3, #12]
 633 004c 1F23     		mov	r3, #31
 634 004e FB18     		add	r3, r7, r3
 635 0050 1A78     		ldrb	r2, [r3]
 636 0052 A348     		ldr	r0, .L53+4
 637 0054 131C     		mov	r3, r2
 638 0056 5B00     		lsl	r3, r3, #1
 639 0058 9B18     		add	r3, r3, r2
 640 005a 5B00     		lsl	r3, r3, #1
 641 005c C318     		add	r3, r0, r3
 642 005e 5B88     		ldrh	r3, [r3, #2]
 373:.\Generated_Source\PSoC4/BLE_hts.c ****                (eventParam->handleValPair.attrHandle == cyBle_htss.charInfo[locCharIndex].charHandl
 643              		.loc 1 373 0 discriminator 1
 644 0060 9942     		cmp	r1, r3
 645 0062 00D0     		beq	.LCB548
 646 0064 20E1     		b	.L41	@long jump
 647              	.LCB548:
ARM GAS  C:\Users\Henny\AppData\Local\Temp\ccRrnRtI.s 			page 19


 648              	.L40:
 375:.\Generated_Source\PSoC4/BLE_hts.c ****             {
 376:.\Generated_Source\PSoC4/BLE_hts.c ****                 locCharValue.connHandle = eventParam->connHandle;
 649              		.loc 1 376 0
 650 0066 0C23     		mov	r3, #12
 651 0068 FB18     		add	r3, r7, r3
 652 006a 7A68     		ldr	r2, [r7, #4]
 653 006c 1288     		ldrh	r2, [r2]
 654 006e 1A80     		strh	r2, [r3]
 377:.\Generated_Source\PSoC4/BLE_hts.c ****                 locCharValue.charIndex = locCharIndex;
 655              		.loc 1 377 0
 656 0070 0C23     		mov	r3, #12
 657 0072 FB18     		add	r3, r7, r3
 658 0074 1F22     		mov	r2, #31
 659 0076 BA18     		add	r2, r7, r2
 660 0078 1278     		ldrb	r2, [r2]
 661 007a 9A70     		strb	r2, [r3, #2]
 378:.\Generated_Source\PSoC4/BLE_hts.c ****                 locCharValue.value = &eventParam->handleValPair.value;
 662              		.loc 1 378 0
 663 007c 7B68     		ldr	r3, [r7, #4]
 664 007e 1A1D     		add	r2, r3, #4
 665 0080 0C23     		mov	r3, #12
 666 0082 FB18     		add	r3, r7, r3
 667 0084 5A60     		str	r2, [r3, #4]
 379:.\Generated_Source\PSoC4/BLE_hts.c ****                 /* Characteristic value write request */
 380:.\Generated_Source\PSoC4/BLE_hts.c ****                 if(eventParam->handleValPair.attrHandle == cyBle_htss.charInfo[locCharIndex].charHa
 668              		.loc 1 380 0
 669 0086 7B68     		ldr	r3, [r7, #4]
 670 0088 9989     		ldrh	r1, [r3, #12]
 671 008a 1F23     		mov	r3, #31
 672 008c FB18     		add	r3, r7, r3
 673 008e 1A78     		ldrb	r2, [r3]
 674 0090 9348     		ldr	r0, .L53+4
 675 0092 131C     		mov	r3, r2
 676 0094 5B00     		lsl	r3, r3, #1
 677 0096 9B18     		add	r3, r3, r2
 678 0098 5B00     		lsl	r3, r3, #1
 679 009a C318     		add	r3, r0, r3
 680 009c 5B88     		ldrh	r3, [r3, #2]
 681 009e 9942     		cmp	r1, r3
 682 00a0 00D0     		beq	.LCB579
 683 00a2 77E0     		b	.L42	@long jump
 684              	.LCB579:
 381:.\Generated_Source\PSoC4/BLE_hts.c ****                 {
 382:.\Generated_Source\PSoC4/BLE_hts.c ****                     /* Validate Measure Interval value */
 383:.\Generated_Source\PSoC4/BLE_hts.c ****                     if(locCharIndex == CYBLE_HTS_MEASURE_INTERVAL)
 685              		.loc 1 383 0
 686 00a4 1F23     		mov	r3, #31
 687 00a6 FB18     		add	r3, r7, r3
 688 00a8 1B78     		ldrb	r3, [r3]
 689 00aa 032B     		cmp	r3, #3
 690 00ac 4ED1     		bne	.L43
 691              	.LBB2:
 384:.\Generated_Source\PSoC4/BLE_hts.c ****                     {
 385:.\Generated_Source\PSoC4/BLE_hts.c ****                         uint8 locAttrValue[CYBLE_HTS_VRD_LEN];
 386:.\Generated_Source\PSoC4/BLE_hts.c ****                         uint16 requestValue;
 387:.\Generated_Source\PSoC4/BLE_hts.c ****                         
ARM GAS  C:\Users\Henny\AppData\Local\Temp\ccRrnRtI.s 			page 20


 388:.\Generated_Source\PSoC4/BLE_hts.c ****                         requestValue = CyBle_Get16ByPtr(eventParam->handleValPair.value.val);
 692              		.loc 1 388 0
 693 00ae 7B68     		ldr	r3, [r7, #4]
 694 00b0 5B68     		ldr	r3, [r3, #4]
 695 00b2 1A22     		mov	r2, #26
 696 00b4 BC18     		add	r4, r7, r2
 697 00b6 181C     		mov	r0, r3
 698 00b8 FFF7FEFF 		bl	CyBle_Get16ByPtr
 699 00bc 031C     		mov	r3, r0
 700 00be 2380     		strh	r3, [r4]
 389:.\Generated_Source\PSoC4/BLE_hts.c ****                         
 390:.\Generated_Source\PSoC4/BLE_hts.c ****                         if(requestValue != 0u) /* 0 is valid interval value for no periodic measure
 701              		.loc 1 390 0
 702 00c0 1A23     		mov	r3, #26
 703 00c2 FB18     		add	r3, r7, r3
 704 00c4 1B88     		ldrh	r3, [r3]
 705 00c6 002B     		cmp	r3, #0
 706 00c8 40D0     		beq	.L43
 391:.\Generated_Source\PSoC4/BLE_hts.c ****                         {
 392:.\Generated_Source\PSoC4/BLE_hts.c ****                             /* Check Valid range for Measure Interval characteristic value */
 393:.\Generated_Source\PSoC4/BLE_hts.c ****                             if(CYBLE_ERROR_OK == CyBle_HtssGetCharacteristicDescriptor(locCharIndex
 707              		.loc 1 393 0
 708 00ca 1F23     		mov	r3, #31
 709 00cc FB18     		add	r3, r7, r3
 710 00ce 1A78     		ldrb	r2, [r3]
 711 00d0 0823     		mov	r3, #8
 712 00d2 FB18     		add	r3, r7, r3
 713 00d4 101C     		mov	r0, r2
 714 00d6 0121     		mov	r1, #1
 715 00d8 0422     		mov	r2, #4
 716 00da FFF7FEFF 		bl	CyBle_HtssGetCharacteristicDescriptor
 717 00de 031E     		sub	r3, r0, #0
 718 00e0 34D1     		bne	.L43
 719              	.LBB3:
 394:.\Generated_Source\PSoC4/BLE_hts.c ****                                                     CYBLE_HTS_VRD_LEN, locAttrValue))
 395:.\Generated_Source\PSoC4/BLE_hts.c ****                             {
 396:.\Generated_Source\PSoC4/BLE_hts.c ****                                 uint16 lowerValue;
 397:.\Generated_Source\PSoC4/BLE_hts.c ****                                 uint16 upperValue;
 398:.\Generated_Source\PSoC4/BLE_hts.c ****                                 
 399:.\Generated_Source\PSoC4/BLE_hts.c ****                                 lowerValue = CyBle_Get16ByPtr(locAttrValue);
 720              		.loc 1 399 0
 721 00e2 1823     		mov	r3, #24
 722 00e4 FC18     		add	r4, r7, r3
 723 00e6 0823     		mov	r3, #8
 724 00e8 FB18     		add	r3, r7, r3
 725 00ea 181C     		mov	r0, r3
 726 00ec FFF7FEFF 		bl	CyBle_Get16ByPtr
 727 00f0 031C     		mov	r3, r0
 728 00f2 2380     		strh	r3, [r4]
 400:.\Generated_Source\PSoC4/BLE_hts.c ****                                 upperValue = CyBle_Get16ByPtr(locAttrValue + sizeof(lowerValue));
 729              		.loc 1 400 0
 730 00f4 1623     		mov	r3, #22
 731 00f6 FC18     		add	r4, r7, r3
 732 00f8 0823     		mov	r3, #8
 733 00fa FB18     		add	r3, r7, r3
 734 00fc 0233     		add	r3, r3, #2
 735 00fe 181C     		mov	r0, r3
ARM GAS  C:\Users\Henny\AppData\Local\Temp\ccRrnRtI.s 			page 21


 736 0100 FFF7FEFF 		bl	CyBle_Get16ByPtr
 737 0104 031C     		mov	r3, r0
 738 0106 2380     		strh	r3, [r4]
 401:.\Generated_Source\PSoC4/BLE_hts.c ****                                 requestValue = CyBle_Get16ByPtr(eventParam->handleValPair.value.val
 739              		.loc 1 401 0
 740 0108 7B68     		ldr	r3, [r7, #4]
 741 010a 5B68     		ldr	r3, [r3, #4]
 742 010c 1A22     		mov	r2, #26
 743 010e BC18     		add	r4, r7, r2
 744 0110 181C     		mov	r0, r3
 745 0112 FFF7FEFF 		bl	CyBle_Get16ByPtr
 746 0116 031C     		mov	r3, r0
 747 0118 2380     		strh	r3, [r4]
 402:.\Generated_Source\PSoC4/BLE_hts.c ****                                 if((requestValue != 0u) && ((requestValue < lowerValue) || (request
 748              		.loc 1 402 0
 749 011a 1A23     		mov	r3, #26
 750 011c FB18     		add	r3, r7, r3
 751 011e 1B88     		ldrh	r3, [r3]
 752 0120 002B     		cmp	r3, #0
 753 0122 13D0     		beq	.L43
 754              		.loc 1 402 0 is_stmt 0 discriminator 1
 755 0124 1A23     		mov	r3, #26
 756 0126 FA18     		add	r2, r7, r3
 757 0128 1823     		mov	r3, #24
 758 012a FB18     		add	r3, r7, r3
 759 012c 1288     		ldrh	r2, [r2]
 760 012e 1B88     		ldrh	r3, [r3]
 761 0130 9A42     		cmp	r2, r3
 762 0132 07D3     		bcc	.L45
 763              		.loc 1 402 0 discriminator 2
 764 0134 1A23     		mov	r3, #26
 765 0136 FA18     		add	r2, r7, r3
 766 0138 1623     		mov	r3, #22
 767 013a FB18     		add	r3, r7, r3
 768 013c 1288     		ldrh	r2, [r2]
 769 013e 1B88     		ldrh	r3, [r3]
 770 0140 9A42     		cmp	r2, r3
 771 0142 03D9     		bls	.L43
 772              	.L45:
 403:.\Generated_Source\PSoC4/BLE_hts.c ****                                 {
 404:.\Generated_Source\PSoC4/BLE_hts.c ****                                     gattErr = CYBLE_GATT_ERR_HTS_OUT_OF_RANGE;
 773              		.loc 1 404 0 is_stmt 1
 774 0144 1E23     		mov	r3, #30
 775 0146 FB18     		add	r3, r7, r3
 776 0148 8022     		mov	r2, #128
 777 014a 1A70     		strb	r2, [r3]
 778              	.L43:
 779              	.LBE3:
 780              	.LBE2:
 405:.\Generated_Source\PSoC4/BLE_hts.c ****                                 }
 406:.\Generated_Source\PSoC4/BLE_hts.c ****                             }
 407:.\Generated_Source\PSoC4/BLE_hts.c ****                         }
 408:.\Generated_Source\PSoC4/BLE_hts.c ****                     }
 409:.\Generated_Source\PSoC4/BLE_hts.c ****                     if(CYBLE_GATT_ERR_NONE == gattErr)
 781              		.loc 1 409 0
 782 014c 1E23     		mov	r3, #30
 783 014e FB18     		add	r3, r7, r3
ARM GAS  C:\Users\Henny\AppData\Local\Temp\ccRrnRtI.s 			page 22


 784 0150 1B78     		ldrb	r3, [r3]
 785 0152 002B     		cmp	r3, #0
 786 0154 00D0     		beq	.LCB671
 787 0156 9BE0     		b	.L47	@long jump
 788              	.LCB671:
 410:.\Generated_Source\PSoC4/BLE_hts.c ****                     {   /* Store value to database */
 411:.\Generated_Source\PSoC4/BLE_hts.c ****                         gattErr = CyBle_GattsWriteAttributeValue(&eventParam->handleValPair, 0u, 
 789              		.loc 1 411 0
 790 0158 7B68     		ldr	r3, [r7, #4]
 791 015a 1A1D     		add	r2, r3, #4
 792 015c 7B68     		ldr	r3, [r7, #4]
 793 015e 1E21     		mov	r1, #30
 794 0160 7C18     		add	r4, r7, r1
 795 0162 101C     		mov	r0, r2
 796 0164 0021     		mov	r1, #0
 797 0166 1A1C     		mov	r2, r3
 798 0168 4023     		mov	r3, #64
 799 016a FFF7FEFF 		bl	CyBle_GattsWriteAttributeValue
 800 016e 031C     		mov	r3, r0
 801 0170 2370     		strb	r3, [r4]
 412:.\Generated_Source\PSoC4/BLE_hts.c ****                                     &eventParam->connHandle, CYBLE_GATT_DB_PEER_INITIATED);
 413:.\Generated_Source\PSoC4/BLE_hts.c ****                         if(CYBLE_GATT_ERR_NONE == gattErr)
 802              		.loc 1 413 0
 803 0172 1E23     		mov	r3, #30
 804 0174 FB18     		add	r3, r7, r3
 805 0176 1B78     		ldrb	r3, [r3]
 806 0178 002B     		cmp	r3, #0
 807 017a 00D0     		beq	.LCB688
 808 017c 88E0     		b	.L47	@long jump
 809              	.LCB688:
 414:.\Generated_Source\PSoC4/BLE_hts.c ****                         {
 415:.\Generated_Source\PSoC4/BLE_hts.c ****                             CyBle_HtsApplCallback((uint32)CYBLE_EVT_HTSS_CHAR_WRITE, &locCharValue)
 810              		.loc 1 415 0
 811 017e 574B     		ldr	r3, .L53
 812 0180 1B68     		ldr	r3, [r3]
 813 0182 A222     		mov	r2, #162
 814 0184 FF32     		add	r2, r2, #255
 815 0186 111C     		mov	r1, r2
 816 0188 0C22     		mov	r2, #12
 817 018a BA18     		add	r2, r7, r2
 818 018c 081C     		mov	r0, r1
 819 018e 111C     		mov	r1, r2
 820 0190 9847     		blx	r3
 821 0192 7DE0     		b	.L47
 822              	.L42:
 416:.\Generated_Source\PSoC4/BLE_hts.c ****                         }
 417:.\Generated_Source\PSoC4/BLE_hts.c ****                     }    
 418:.\Generated_Source\PSoC4/BLE_hts.c ****                 }
 419:.\Generated_Source\PSoC4/BLE_hts.c ****                 else /* Client Characteristic Configuration descriptor write request */
 420:.\Generated_Source\PSoC4/BLE_hts.c ****                 {
 421:.\Generated_Source\PSoC4/BLE_hts.c ****                     /* Store value to database */
 422:.\Generated_Source\PSoC4/BLE_hts.c ****                     gattErr = CyBle_GattsWriteAttributeValue(&eventParam->handleValPair, 0u, 
 823              		.loc 1 422 0
 824 0194 7B68     		ldr	r3, [r7, #4]
 825 0196 1A1D     		add	r2, r3, #4
 826 0198 7B68     		ldr	r3, [r7, #4]
 827 019a 1E21     		mov	r1, #30
ARM GAS  C:\Users\Henny\AppData\Local\Temp\ccRrnRtI.s 			page 23


 828 019c 7C18     		add	r4, r7, r1
 829 019e 101C     		mov	r0, r2
 830 01a0 0021     		mov	r1, #0
 831 01a2 1A1C     		mov	r2, r3
 832 01a4 4023     		mov	r3, #64
 833 01a6 FFF7FEFF 		bl	CyBle_GattsWriteAttributeValue
 834 01aa 031C     		mov	r3, r0
 835 01ac 2370     		strb	r3, [r4]
 423:.\Generated_Source\PSoC4/BLE_hts.c ****                                     &eventParam->connHandle, CYBLE_GATT_DB_PEER_INITIATED);
 424:.\Generated_Source\PSoC4/BLE_hts.c ****                     if(CYBLE_GATT_ERR_NONE == gattErr)
 836              		.loc 1 424 0
 837 01ae 1E23     		mov	r3, #30
 838 01b0 FB18     		add	r3, r7, r3
 839 01b2 1B78     		ldrb	r3, [r3]
 840 01b4 002B     		cmp	r3, #0
 841 01b6 6BD1     		bne	.L47
 425:.\Generated_Source\PSoC4/BLE_hts.c ****                     {
 426:.\Generated_Source\PSoC4/BLE_hts.c ****                         /* Check characteristic properties for Notification */
 427:.\Generated_Source\PSoC4/BLE_hts.c ****                         if(CYBLE_IS_NOTIFICATION_SUPPORTED(cyBle_htss.charInfo[locCharIndex].charHa
 842              		.loc 1 427 0
 843 01b8 1F23     		mov	r3, #31
 844 01ba FB18     		add	r3, r7, r3
 845 01bc 1A78     		ldrb	r2, [r3]
 846 01be 4849     		ldr	r1, .L53+4
 847 01c0 131C     		mov	r3, r2
 848 01c2 5B00     		lsl	r3, r3, #1
 849 01c4 9B18     		add	r3, r3, r2
 850 01c6 5B00     		lsl	r3, r3, #1
 851 01c8 CB18     		add	r3, r1, r3
 852 01ca 5B88     		ldrh	r3, [r3, #2]
 853 01cc 5A1E     		sub	r2, r3, #1
 854 01ce 4549     		ldr	r1, .L53+8
 855 01d0 131C     		mov	r3, r2
 856 01d2 9B00     		lsl	r3, r3, #2
 857 01d4 9B18     		add	r3, r3, r2
 858 01d6 9B00     		lsl	r3, r3, #2
 859 01d8 CB18     		add	r3, r1, r3
 860 01da 5A68     		ldr	r2, [r3, #4]
 861 01dc 8023     		mov	r3, #128
 862 01de 5B01     		lsl	r3, r3, #5
 863 01e0 1340     		and	r3, r2
 864 01e2 1FD0     		beq	.L48
 428:.\Generated_Source\PSoC4/BLE_hts.c ****                         {
 429:.\Generated_Source\PSoC4/BLE_hts.c ****                             if(CYBLE_IS_NOTIFICATION_ENABLED_IN_PTR(eventParam->handleValPair.value
 865              		.loc 1 429 0
 866 01e4 7B68     		ldr	r3, [r7, #4]
 867 01e6 5B68     		ldr	r3, [r3, #4]
 868 01e8 181C     		mov	r0, r3
 869 01ea FFF7FEFF 		bl	CyBle_Get16ByPtr
 870 01ee 031C     		mov	r3, r0
 871 01f0 1A1C     		mov	r2, r3
 872 01f2 0123     		mov	r3, #1
 873 01f4 1340     		and	r3, r2
 874 01f6 9BB2     		uxth	r3, r3
 875 01f8 002B     		cmp	r3, #0
 876 01fa 09D0     		beq	.L49
 430:.\Generated_Source\PSoC4/BLE_hts.c ****                             {
ARM GAS  C:\Users\Henny\AppData\Local\Temp\ccRrnRtI.s 			page 24


 431:.\Generated_Source\PSoC4/BLE_hts.c ****                                 CyBle_HtsApplCallback((uint32)CYBLE_EVT_HTSS_NOTIFICATION_ENABLED, 
 877              		.loc 1 431 0
 878 01fc 374B     		ldr	r3, .L53
 879 01fe 1B68     		ldr	r3, [r3]
 880 0200 CE22     		mov	r2, #206
 881 0202 5100     		lsl	r1, r2, #1
 882 0204 0C22     		mov	r2, #12
 883 0206 BA18     		add	r2, r7, r2
 884 0208 081C     		mov	r0, r1
 885 020a 111C     		mov	r1, r2
 886 020c 9847     		blx	r3
 887 020e 09E0     		b	.L48
 888              	.L49:
 432:.\Generated_Source\PSoC4/BLE_hts.c ****                             }
 433:.\Generated_Source\PSoC4/BLE_hts.c ****                             else
 434:.\Generated_Source\PSoC4/BLE_hts.c ****                             {
 435:.\Generated_Source\PSoC4/BLE_hts.c ****                                 CyBle_HtsApplCallback((uint32)CYBLE_EVT_HTSS_NOTIFICATION_DISABLED,
 889              		.loc 1 435 0
 890 0210 324B     		ldr	r3, .L53
 891 0212 1B68     		ldr	r3, [r3]
 892 0214 9E22     		mov	r2, #158
 893 0216 FF32     		add	r2, r2, #255
 894 0218 111C     		mov	r1, r2
 895 021a 0C22     		mov	r2, #12
 896 021c BA18     		add	r2, r7, r2
 897 021e 081C     		mov	r0, r1
 898 0220 111C     		mov	r1, r2
 899 0222 9847     		blx	r3
 900              	.L48:
 436:.\Generated_Source\PSoC4/BLE_hts.c ****                             }
 437:.\Generated_Source\PSoC4/BLE_hts.c ****                         }
 438:.\Generated_Source\PSoC4/BLE_hts.c ****                         /* Check characteristic properties for Indication */
 439:.\Generated_Source\PSoC4/BLE_hts.c ****                         if(CYBLE_IS_INDICATION_SUPPORTED(cyBle_htss.charInfo[locCharIndex].charHand
 901              		.loc 1 439 0
 902 0224 1F23     		mov	r3, #31
 903 0226 FB18     		add	r3, r7, r3
 904 0228 1A78     		ldrb	r2, [r3]
 905 022a 2D49     		ldr	r1, .L53+4
 906 022c 131C     		mov	r3, r2
 907 022e 5B00     		lsl	r3, r3, #1
 908 0230 9B18     		add	r3, r3, r2
 909 0232 5B00     		lsl	r3, r3, #1
 910 0234 CB18     		add	r3, r1, r3
 911 0236 5B88     		ldrh	r3, [r3, #2]
 912 0238 5A1E     		sub	r2, r3, #1
 913 023a 2A49     		ldr	r1, .L53+8
 914 023c 131C     		mov	r3, r2
 915 023e 9B00     		lsl	r3, r3, #2
 916 0240 9B18     		add	r3, r3, r2
 917 0242 9B00     		lsl	r3, r3, #2
 918 0244 CB18     		add	r3, r1, r3
 919 0246 5A68     		ldr	r2, [r3, #4]
 920 0248 8023     		mov	r3, #128
 921 024a 9B01     		lsl	r3, r3, #6
 922 024c 1340     		and	r3, r2
 923 024e 1FD0     		beq	.L47
 440:.\Generated_Source\PSoC4/BLE_hts.c ****                         {
ARM GAS  C:\Users\Henny\AppData\Local\Temp\ccRrnRtI.s 			page 25


 441:.\Generated_Source\PSoC4/BLE_hts.c ****                             if(CYBLE_IS_INDICATION_ENABLED_IN_PTR(eventParam->handleValPair.value.v
 924              		.loc 1 441 0
 925 0250 7B68     		ldr	r3, [r7, #4]
 926 0252 5B68     		ldr	r3, [r3, #4]
 927 0254 181C     		mov	r0, r3
 928 0256 FFF7FEFF 		bl	CyBle_Get16ByPtr
 929 025a 031C     		mov	r3, r0
 930 025c 1A1C     		mov	r2, r3
 931 025e 0223     		mov	r3, #2
 932 0260 1340     		and	r3, r2
 933 0262 9BB2     		uxth	r3, r3
 934 0264 002B     		cmp	r3, #0
 935 0266 09D0     		beq	.L50
 442:.\Generated_Source\PSoC4/BLE_hts.c ****                             {
 443:.\Generated_Source\PSoC4/BLE_hts.c ****                                 CyBle_HtsApplCallback((uint32)CYBLE_EVT_HTSS_INDICATION_ENABLED, &l
 936              		.loc 1 443 0
 937 0268 1C4B     		ldr	r3, .L53
 938 026a 1B68     		ldr	r3, [r3]
 939 026c CF22     		mov	r2, #207
 940 026e 5100     		lsl	r1, r2, #1
 941 0270 0C22     		mov	r2, #12
 942 0272 BA18     		add	r2, r7, r2
 943 0274 081C     		mov	r0, r1
 944 0276 111C     		mov	r1, r2
 945 0278 9847     		blx	r3
 946 027a 09E0     		b	.L47
 947              	.L50:
 444:.\Generated_Source\PSoC4/BLE_hts.c ****                             }
 445:.\Generated_Source\PSoC4/BLE_hts.c ****                             else
 446:.\Generated_Source\PSoC4/BLE_hts.c ****                             {
 447:.\Generated_Source\PSoC4/BLE_hts.c ****                                 CyBle_HtsApplCallback((uint32)CYBLE_EVT_HTSS_INDICATION_DISABLED, &
 948              		.loc 1 447 0
 949 027c 174B     		ldr	r3, .L53
 950 027e 1B68     		ldr	r3, [r3]
 951 0280 A022     		mov	r2, #160
 952 0282 FF32     		add	r2, r2, #255
 953 0284 111C     		mov	r1, r2
 954 0286 0C22     		mov	r2, #12
 955 0288 BA18     		add	r2, r7, r2
 956 028a 081C     		mov	r0, r1
 957 028c 111C     		mov	r1, r2
 958 028e 9847     		blx	r3
 959              	.L47:
 448:.\Generated_Source\PSoC4/BLE_hts.c ****                             }
 449:.\Generated_Source\PSoC4/BLE_hts.c ****                         }
 450:.\Generated_Source\PSoC4/BLE_hts.c ****                     #if((CYBLE_GAP_ROLE_PERIPHERAL || CYBLE_GAP_ROLE_CENTRAL) && \
 451:.\Generated_Source\PSoC4/BLE_hts.c ****                         (CYBLE_BONDING_REQUIREMENT == CYBLE_BONDING_YES))
 452:.\Generated_Source\PSoC4/BLE_hts.c ****                         /* Set flag to store bonding data to flash */
 453:.\Generated_Source\PSoC4/BLE_hts.c ****                         if(cyBle_peerBonding == CYBLE_GAP_BONDING)
 454:.\Generated_Source\PSoC4/BLE_hts.c ****                         {
 455:.\Generated_Source\PSoC4/BLE_hts.c ****                             cyBle_pendingFlashWrite |= CYBLE_PENDING_CCCD_FLASH_WRITE_BIT;
 456:.\Generated_Source\PSoC4/BLE_hts.c ****                         }
 457:.\Generated_Source\PSoC4/BLE_hts.c ****                     #endif /* (CYBLE_BONDING_REQUIREMENT == CYBLE_BONDING_YES) */
 458:.\Generated_Source\PSoC4/BLE_hts.c ****                         
 459:.\Generated_Source\PSoC4/BLE_hts.c ****                     }
 460:.\Generated_Source\PSoC4/BLE_hts.c ****                 }
 461:.\Generated_Source\PSoC4/BLE_hts.c ****                 cyBle_eventHandlerFlag &= (uint8)~CYBLE_CALLBACK;
ARM GAS  C:\Users\Henny\AppData\Local\Temp\ccRrnRtI.s 			page 26


 960              		.loc 1 461 0
 961 0290 154B     		ldr	r3, .L53+12
 962 0292 1B78     		ldrb	r3, [r3]
 963 0294 DBB2     		uxtb	r3, r3
 964 0296 0122     		mov	r2, #1
 965 0298 9343     		bic	r3, r2
 966 029a DAB2     		uxtb	r2, r3
 967 029c 124B     		ldr	r3, .L53+12
 968 029e 1A70     		strb	r2, [r3]
 462:.\Generated_Source\PSoC4/BLE_hts.c ****                 locReqHandle = 1u;
 969              		.loc 1 462 0
 970 02a0 1D23     		mov	r3, #29
 971 02a2 FB18     		add	r3, r7, r3
 972 02a4 0122     		mov	r2, #1
 973 02a6 1A70     		strb	r2, [r3]
 974              	.L41:
 370:.\Generated_Source\PSoC4/BLE_hts.c ****         {
 975              		.loc 1 370 0
 976 02a8 1F23     		mov	r3, #31
 977 02aa FB18     		add	r3, r7, r3
 978 02ac 1A78     		ldrb	r2, [r3]
 979 02ae 1F23     		mov	r3, #31
 980 02b0 FB18     		add	r3, r7, r3
 981 02b2 0132     		add	r2, r2, #1
 982 02b4 1A70     		strb	r2, [r3]
 983              	.L39:
 369:.\Generated_Source\PSoC4/BLE_hts.c ****             locCharIndex++)
 984              		.loc 1 369 0 discriminator 1
 985 02b6 1F23     		mov	r3, #31
 986 02b8 FB18     		add	r3, r7, r3
 987 02ba 1B78     		ldrb	r3, [r3]
 988 02bc 032B     		cmp	r3, #3
 989 02be 05D8     		bhi	.L38
 369:.\Generated_Source\PSoC4/BLE_hts.c ****             locCharIndex++)
 990              		.loc 1 369 0 is_stmt 0 discriminator 2
 991 02c0 1D23     		mov	r3, #29
 992 02c2 FB18     		add	r3, r7, r3
 993 02c4 1B78     		ldrb	r3, [r3]
 994 02c6 002B     		cmp	r3, #0
 995 02c8 00D1     		bne	.LCB870
 996 02ca AFE6     		b	.L51	@long jump
 997              	.LCB870:
 998              	.L38:
 463:.\Generated_Source\PSoC4/BLE_hts.c ****             }
 464:.\Generated_Source\PSoC4/BLE_hts.c ****         }
 465:.\Generated_Source\PSoC4/BLE_hts.c ****     }
 466:.\Generated_Source\PSoC4/BLE_hts.c ****     return (gattErr);
 999              		.loc 1 466 0 is_stmt 1
 1000 02cc 1E23     		mov	r3, #30
 1001 02ce FB18     		add	r3, r7, r3
 1002 02d0 1B78     		ldrb	r3, [r3]
 467:.\Generated_Source\PSoC4/BLE_hts.c **** }
 1003              		.loc 1 467 0
 1004 02d2 181C     		mov	r0, r3
 1005 02d4 BD46     		mov	sp, r7
 1006 02d6 09B0     		add	sp, sp, #36
 1007              		@ sp needed
ARM GAS  C:\Users\Henny\AppData\Local\Temp\ccRrnRtI.s 			page 27


 1008 02d8 90BD     		pop	{r4, r7, pc}
 1009              	.L54:
 1010 02da C046     		.align	2
 1011              	.L53:
 1012 02dc 00000000 		.word	CyBle_HtsApplCallback
 1013 02e0 00000000 		.word	cyBle_htss
 1014 02e4 00000000 		.word	cyBle_gattDB
 1015 02e8 00000000 		.word	cyBle_eventHandlerFlag
 1016              		.cfi_endproc
 1017              	.LFE8:
 1018              		.size	CyBle_HtssWriteEventHandler, .-CyBle_HtssWriteEventHandler
 1019              		.section	.text.CyBle_HtssSendNotification,"ax",%progbits
 1020              		.align	2
 1021              		.global	CyBle_HtssSendNotification
 1022              		.code	16
 1023              		.thumb_func
 1024              		.type	CyBle_HtssSendNotification, %function
 1025              	CyBle_HtssSendNotification:
 1026              	.LFB9:
 468:.\Generated_Source\PSoC4/BLE_hts.c **** 
 469:.\Generated_Source\PSoC4/BLE_hts.c **** 
 470:.\Generated_Source\PSoC4/BLE_hts.c **** /******************************************************************************
 471:.\Generated_Source\PSoC4/BLE_hts.c **** * Function Name: CyBle_HtssSendNotification
 472:.\Generated_Source\PSoC4/BLE_hts.c **** ***************************************************************************//**
 473:.\Generated_Source\PSoC4/BLE_hts.c **** * 
 474:.\Generated_Source\PSoC4/BLE_hts.c **** *  Sends notification with a characteristic value of the Health Thermometer 
 475:.\Generated_Source\PSoC4/BLE_hts.c **** *  Service, which is a value specified by charIndex, to the Client device.
 476:.\Generated_Source\PSoC4/BLE_hts.c **** * 
 477:.\Generated_Source\PSoC4/BLE_hts.c **** *  \param connHandle: The connection handle.
 478:.\Generated_Source\PSoC4/BLE_hts.c **** *  \param charIndex: The index of the service characteristic.
 479:.\Generated_Source\PSoC4/BLE_hts.c **** *  \param attrSize: The size of the characteristic value attribute.
 480:.\Generated_Source\PSoC4/BLE_hts.c **** *  \param attrValue: The pointer to the characteristic value data that should be 
 481:.\Generated_Source\PSoC4/BLE_hts.c **** *               sent to the client's device.
 482:.\Generated_Source\PSoC4/BLE_hts.c **** * 
 483:.\Generated_Source\PSoC4/BLE_hts.c **** * \return
 484:.\Generated_Source\PSoC4/BLE_hts.c **** *  Return value is of type CYBLE_API_RESULT_T.
 485:.\Generated_Source\PSoC4/BLE_hts.c **** *   * CYBLE_ERROR_OK - The request handled successfully
 486:.\Generated_Source\PSoC4/BLE_hts.c **** *   * CYBLE_ERROR_INVALID_PARAMETER - Validation of the input parameter failed
 487:.\Generated_Source\PSoC4/BLE_hts.c **** *   * CYBLE_ERROR_INVALID_OPERATION - This operation is not permitted
 488:.\Generated_Source\PSoC4/BLE_hts.c **** *   * CYBLE_ERROR_INVALID_STATE - Connection with the client is not established
 489:.\Generated_Source\PSoC4/BLE_hts.c **** *   * CYBLE_ERROR_MEMORY_ALLOCATION_FAILED - Memory allocation failed. 
 490:.\Generated_Source\PSoC4/BLE_hts.c **** *   * CYBLE_ERROR_NTF_DISABLED - Notification is not enabled by the client.
 491:.\Generated_Source\PSoC4/BLE_hts.c **** *
 492:.\Generated_Source\PSoC4/BLE_hts.c **** * \events
 493:.\Generated_Source\PSoC4/BLE_hts.c **** *  None
 494:.\Generated_Source\PSoC4/BLE_hts.c **** *
 495:.\Generated_Source\PSoC4/BLE_hts.c **** ******************************************************************************/
 496:.\Generated_Source\PSoC4/BLE_hts.c **** CYBLE_API_RESULT_T CyBle_HtssSendNotification(CYBLE_CONN_HANDLE_T connHandle,
 497:.\Generated_Source\PSoC4/BLE_hts.c ****     CYBLE_HTS_CHAR_INDEX_T charIndex, uint8 attrSize, uint8 *attrValue)
 498:.\Generated_Source\PSoC4/BLE_hts.c **** {
 1027              		.loc 1 498 0
 1028              		.cfi_startproc
 1029 0000 90B5     		push	{r4, r7, lr}
 1030              		.cfi_def_cfa_offset 12
 1031              		.cfi_offset 4, -12
 1032              		.cfi_offset 7, -8
 1033              		.cfi_offset 14, -4
ARM GAS  C:\Users\Henny\AppData\Local\Temp\ccRrnRtI.s 			page 28


 1034 0002 89B0     		sub	sp, sp, #36
 1035              		.cfi_def_cfa_offset 48
 1036 0004 00AF     		add	r7, sp, #0
 1037              		.cfi_def_cfa_register 7
 1038 0006 0C24     		mov	r4, #12
 1039 0008 3C19     		add	r4, r7, r4
 1040 000a 2080     		strh	r0, [r4]
 1041 000c 081C     		mov	r0, r1
 1042 000e 111C     		mov	r1, r2
 1043 0010 7B60     		str	r3, [r7, #4]
 1044 0012 0B23     		mov	r3, #11
 1045 0014 FB18     		add	r3, r7, r3
 1046 0016 021C     		add	r2, r0, #0
 1047 0018 1A70     		strb	r2, [r3]
 1048 001a 0A23     		mov	r3, #10
 1049 001c FB18     		add	r3, r7, r3
 1050 001e 0A1C     		add	r2, r1, #0
 1051 0020 1A70     		strb	r2, [r3]
 499:.\Generated_Source\PSoC4/BLE_hts.c **** 
 500:.\Generated_Source\PSoC4/BLE_hts.c ****     CYBLE_API_RESULT_T apiResult;
 501:.\Generated_Source\PSoC4/BLE_hts.c ****     
 502:.\Generated_Source\PSoC4/BLE_hts.c ****     /* Send Notification if it is enabled and connected */
 503:.\Generated_Source\PSoC4/BLE_hts.c ****     if(CYBLE_STATE_CONNECTED != CyBle_GetState())
 1052              		.loc 1 503 0
 1053 0022 2C4B     		ldr	r3, .L60
 1054 0024 1B78     		ldrb	r3, [r3]
 1055 0026 022B     		cmp	r3, #2
 1056 0028 05D0     		beq	.L56
 504:.\Generated_Source\PSoC4/BLE_hts.c ****     {
 505:.\Generated_Source\PSoC4/BLE_hts.c ****         apiResult = CYBLE_ERROR_INVALID_STATE;
 1057              		.loc 1 505 0
 1058 002a 1E23     		mov	r3, #30
 1059 002c FB18     		add	r3, r7, r3
 1060 002e 0422     		mov	r2, #4
 1061 0030 FF32     		add	r2, r2, #255
 1062 0032 1A80     		strh	r2, [r3]
 1063 0034 47E0     		b	.L57
 1064              	.L56:
 506:.\Generated_Source\PSoC4/BLE_hts.c ****     }
 507:.\Generated_Source\PSoC4/BLE_hts.c ****     else if(!CYBLE_IS_NOTIFICATION_ENABLED(cyBle_htss.charInfo[charIndex].descrHandle[CYBLE_HTS_CCC
 1065              		.loc 1 507 0
 1066 0036 0B23     		mov	r3, #11
 1067 0038 FB18     		add	r3, r7, r3
 1068 003a 1A78     		ldrb	r2, [r3]
 1069 003c 2649     		ldr	r1, .L60+4
 1070 003e 131C     		mov	r3, r2
 1071 0040 5B00     		lsl	r3, r3, #1
 1072 0042 9B18     		add	r3, r3, r2
 1073 0044 5B00     		lsl	r3, r3, #1
 1074 0046 CB18     		add	r3, r1, r3
 1075 0048 9B88     		ldrh	r3, [r3, #4]
 1076 004a 5A1E     		sub	r2, r3, #1
 1077 004c 2349     		ldr	r1, .L60+8
 1078 004e 131C     		mov	r3, r2
 1079 0050 9B00     		lsl	r3, r3, #2
 1080 0052 9B18     		add	r3, r3, r2
 1081 0054 9B00     		lsl	r3, r3, #2
ARM GAS  C:\Users\Henny\AppData\Local\Temp\ccRrnRtI.s 			page 29


 1082 0056 CB18     		add	r3, r1, r3
 1083 0058 0833     		add	r3, r3, #8
 1084 005a 9B68     		ldr	r3, [r3, #8]
 1085 005c 5B68     		ldr	r3, [r3, #4]
 1086 005e 181C     		mov	r0, r3
 1087 0060 FFF7FEFF 		bl	CyBle_Get16ByPtr
 1088 0064 031C     		mov	r3, r0
 1089 0066 1A1C     		mov	r2, r3
 1090 0068 0123     		mov	r3, #1
 1091 006a 1340     		and	r3, r2
 1092 006c 9BB2     		uxth	r3, r3
 1093 006e 002B     		cmp	r3, #0
 1094 0070 05D1     		bne	.L58
 508:.\Generated_Source\PSoC4/BLE_hts.c ****     {
 509:.\Generated_Source\PSoC4/BLE_hts.c ****         apiResult = CYBLE_ERROR_NTF_DISABLED;
 1095              		.loc 1 509 0
 1096 0072 1E23     		mov	r3, #30
 1097 0074 FB18     		add	r3, r7, r3
 1098 0076 8022     		mov	r2, #128
 1099 0078 5200     		lsl	r2, r2, #1
 1100 007a 1A80     		strh	r2, [r3]
 1101 007c 23E0     		b	.L57
 1102              	.L58:
 1103              	.LBB4:
 510:.\Generated_Source\PSoC4/BLE_hts.c ****     }
 511:.\Generated_Source\PSoC4/BLE_hts.c ****     else
 512:.\Generated_Source\PSoC4/BLE_hts.c ****     {
 513:.\Generated_Source\PSoC4/BLE_hts.c ****         CYBLE_GATTS_HANDLE_VALUE_NTF_T ntfReqParam;
 514:.\Generated_Source\PSoC4/BLE_hts.c ****         
 515:.\Generated_Source\PSoC4/BLE_hts.c ****         /* Fill all fields of write request structure ... */
 516:.\Generated_Source\PSoC4/BLE_hts.c ****         ntfReqParam.attrHandle = cyBle_htss.charInfo[charIndex].charHandle;
 1104              		.loc 1 516 0
 1105 007e 0B23     		mov	r3, #11
 1106 0080 FB18     		add	r3, r7, r3
 1107 0082 1A78     		ldrb	r2, [r3]
 1108 0084 1449     		ldr	r1, .L60+4
 1109 0086 131C     		mov	r3, r2
 1110 0088 5B00     		lsl	r3, r3, #1
 1111 008a 9B18     		add	r3, r3, r2
 1112 008c 5B00     		lsl	r3, r3, #1
 1113 008e CB18     		add	r3, r1, r3
 1114 0090 5A88     		ldrh	r2, [r3, #2]
 1115 0092 1023     		mov	r3, #16
 1116 0094 FB18     		add	r3, r7, r3
 1117 0096 1A81     		strh	r2, [r3, #8]
 517:.\Generated_Source\PSoC4/BLE_hts.c ****         ntfReqParam.value.val = attrValue;
 1118              		.loc 1 517 0
 1119 0098 1023     		mov	r3, #16
 1120 009a FB18     		add	r3, r7, r3
 1121 009c 7A68     		ldr	r2, [r7, #4]
 1122 009e 1A60     		str	r2, [r3]
 518:.\Generated_Source\PSoC4/BLE_hts.c ****         ntfReqParam.value.len = attrSize;
 1123              		.loc 1 518 0
 1124 00a0 0A23     		mov	r3, #10
 1125 00a2 FB18     		add	r3, r7, r3
 1126 00a4 1B78     		ldrb	r3, [r3]
 1127 00a6 9AB2     		uxth	r2, r3
ARM GAS  C:\Users\Henny\AppData\Local\Temp\ccRrnRtI.s 			page 30


 1128 00a8 1023     		mov	r3, #16
 1129 00aa FB18     		add	r3, r7, r3
 1130 00ac 9A80     		strh	r2, [r3, #4]
 519:.\Generated_Source\PSoC4/BLE_hts.c ****         
 520:.\Generated_Source\PSoC4/BLE_hts.c ****         /* Send notification to client using previously filled structure */
 521:.\Generated_Source\PSoC4/BLE_hts.c ****         apiResult = CyBle_GattsNotification(connHandle, &ntfReqParam);
 1131              		.loc 1 521 0
 1132 00ae 1E23     		mov	r3, #30
 1133 00b0 FC18     		add	r4, r7, r3
 1134 00b2 0C23     		mov	r3, #12
 1135 00b4 FB18     		add	r3, r7, r3
 1136 00b6 1022     		mov	r2, #16
 1137 00b8 BA18     		add	r2, r7, r2
 1138 00ba 1868     		ldr	r0, [r3]
 1139 00bc 111C     		mov	r1, r2
 1140 00be FFF7FEFF 		bl	CyBle_GattsNotification
 1141 00c2 031C     		mov	r3, r0
 1142 00c4 2380     		strh	r3, [r4]
 1143              	.L57:
 1144              	.LBE4:
 522:.\Generated_Source\PSoC4/BLE_hts.c ****     }
 523:.\Generated_Source\PSoC4/BLE_hts.c **** 
 524:.\Generated_Source\PSoC4/BLE_hts.c ****     return (apiResult);
 1145              		.loc 1 524 0
 1146 00c6 1E23     		mov	r3, #30
 1147 00c8 FB18     		add	r3, r7, r3
 1148 00ca 1B88     		ldrh	r3, [r3]
 525:.\Generated_Source\PSoC4/BLE_hts.c **** }
 1149              		.loc 1 525 0
 1150 00cc 181C     		mov	r0, r3
 1151 00ce BD46     		mov	sp, r7
 1152 00d0 09B0     		add	sp, sp, #36
 1153              		@ sp needed
 1154 00d2 90BD     		pop	{r4, r7, pc}
 1155              	.L61:
 1156              		.align	2
 1157              	.L60:
 1158 00d4 00000000 		.word	cyBle_state
 1159 00d8 00000000 		.word	cyBle_htss
 1160 00dc 00000000 		.word	cyBle_gattDB
 1161              		.cfi_endproc
 1162              	.LFE9:
 1163              		.size	CyBle_HtssSendNotification, .-CyBle_HtssSendNotification
 1164              		.section	.text.CyBle_HtssSendIndication,"ax",%progbits
 1165              		.align	2
 1166              		.global	CyBle_HtssSendIndication
 1167              		.code	16
 1168              		.thumb_func
 1169              		.type	CyBle_HtssSendIndication, %function
 1170              	CyBle_HtssSendIndication:
 1171              	.LFB10:
 526:.\Generated_Source\PSoC4/BLE_hts.c **** 
 527:.\Generated_Source\PSoC4/BLE_hts.c **** 
 528:.\Generated_Source\PSoC4/BLE_hts.c **** /******************************************************************************
 529:.\Generated_Source\PSoC4/BLE_hts.c **** * Function Name: CyBle_HtssSendIndication
 530:.\Generated_Source\PSoC4/BLE_hts.c **** ***************************************************************************//**
 531:.\Generated_Source\PSoC4/BLE_hts.c **** * 
ARM GAS  C:\Users\Henny\AppData\Local\Temp\ccRrnRtI.s 			page 31


 532:.\Generated_Source\PSoC4/BLE_hts.c **** *  Sends indication with a characteristic value of the Health Thermometer 
 533:.\Generated_Source\PSoC4/BLE_hts.c **** *  Service, which is a value specified by charIndex, to the Client device.
 534:.\Generated_Source\PSoC4/BLE_hts.c **** * 
 535:.\Generated_Source\PSoC4/BLE_hts.c **** *  \param connHandle: The connection handle.
 536:.\Generated_Source\PSoC4/BLE_hts.c **** *  \param charIndex:  The index of the service characteristic.
 537:.\Generated_Source\PSoC4/BLE_hts.c **** *  \param attrSize: The size of the characteristic value attribute.
 538:.\Generated_Source\PSoC4/BLE_hts.c **** *  \param attrValue: The pointer to the characteristic value data that should be
 539:.\Generated_Source\PSoC4/BLE_hts.c **** *               sent to the Client device.
 540:.\Generated_Source\PSoC4/BLE_hts.c **** * 
 541:.\Generated_Source\PSoC4/BLE_hts.c **** * \return
 542:.\Generated_Source\PSoC4/BLE_hts.c **** *  Return value is of type CYBLE_API_RESULT_T.
 543:.\Generated_Source\PSoC4/BLE_hts.c **** *   * CYBLE_ERROR_OK - The request handled successfully
 544:.\Generated_Source\PSoC4/BLE_hts.c **** *   * CYBLE_ERROR_INVALID_PARAMETER - Validation of the input parameter failed
 545:.\Generated_Source\PSoC4/BLE_hts.c **** *   * CYBLE_ERROR_INVALID_OPERATION - This operation is not permitted
 546:.\Generated_Source\PSoC4/BLE_hts.c **** *   * CYBLE_ERROR_INVALID_STATE - Connection with the client is not established
 547:.\Generated_Source\PSoC4/BLE_hts.c **** *   * CYBLE_ERROR_MEMORY_ALLOCATION_FAILED - Memory allocation failed
 548:.\Generated_Source\PSoC4/BLE_hts.c **** *   * CYBLE_ERROR_IND_DISABLED - Indication is not enabled by the client
 549:.\Generated_Source\PSoC4/BLE_hts.c **** *
 550:.\Generated_Source\PSoC4/BLE_hts.c **** * \events
 551:.\Generated_Source\PSoC4/BLE_hts.c **** *  In case of successful execution (return value = CYBLE_ERROR_OK)
 552:.\Generated_Source\PSoC4/BLE_hts.c **** *  the next events can appear: \n
 553:.\Generated_Source\PSoC4/BLE_hts.c **** *   If the HTS service-specific callback is registered 
 554:.\Generated_Source\PSoC4/BLE_hts.c **** *      (with CyBle_HtsRegisterAttrCallback):
 555:.\Generated_Source\PSoC4/BLE_hts.c **** *  * CYBLE_EVT_HTSS_INDICATION_CONFIRMED - in case if the indication is
 556:.\Generated_Source\PSoC4/BLE_hts.c **** *                                successfully delivered to the peer device.
 557:.\Generated_Source\PSoC4/BLE_hts.c **** *  .
 558:.\Generated_Source\PSoC4/BLE_hts.c **** *   Otherwise (if the HTS service-specific callback is not registered):
 559:.\Generated_Source\PSoC4/BLE_hts.c **** *  * CYBLE_EVT_GATTS_HANDLE_VALUE_CNF - in case if the indication is
 560:.\Generated_Source\PSoC4/BLE_hts.c **** *                                successfully delivered to the peer device.
 561:.\Generated_Source\PSoC4/BLE_hts.c **** *
 562:.\Generated_Source\PSoC4/BLE_hts.c **** ******************************************************************************/
 563:.\Generated_Source\PSoC4/BLE_hts.c **** CYBLE_API_RESULT_T CyBle_HtssSendIndication(CYBLE_CONN_HANDLE_T connHandle,
 564:.\Generated_Source\PSoC4/BLE_hts.c ****     CYBLE_HTS_CHAR_INDEX_T charIndex, uint8 attrSize, uint8 *attrValue)
 565:.\Generated_Source\PSoC4/BLE_hts.c **** {
 1172              		.loc 1 565 0
 1173              		.cfi_startproc
 1174 0000 90B5     		push	{r4, r7, lr}
 1175              		.cfi_def_cfa_offset 12
 1176              		.cfi_offset 4, -12
 1177              		.cfi_offset 7, -8
 1178              		.cfi_offset 14, -4
 1179 0002 89B0     		sub	sp, sp, #36
 1180              		.cfi_def_cfa_offset 48
 1181 0004 00AF     		add	r7, sp, #0
 1182              		.cfi_def_cfa_register 7
 1183 0006 0C24     		mov	r4, #12
 1184 0008 3C19     		add	r4, r7, r4
 1185 000a 2080     		strh	r0, [r4]
 1186 000c 081C     		mov	r0, r1
 1187 000e 111C     		mov	r1, r2
 1188 0010 7B60     		str	r3, [r7, #4]
 1189 0012 0B23     		mov	r3, #11
 1190 0014 FB18     		add	r3, r7, r3
 1191 0016 021C     		add	r2, r0, #0
 1192 0018 1A70     		strb	r2, [r3]
 1193 001a 0A23     		mov	r3, #10
 1194 001c FB18     		add	r3, r7, r3
ARM GAS  C:\Users\Henny\AppData\Local\Temp\ccRrnRtI.s 			page 32


 1195 001e 0A1C     		add	r2, r1, #0
 1196 0020 1A70     		strb	r2, [r3]
 566:.\Generated_Source\PSoC4/BLE_hts.c ****     CYBLE_API_RESULT_T apiResult;
 567:.\Generated_Source\PSoC4/BLE_hts.c ****     
 568:.\Generated_Source\PSoC4/BLE_hts.c ****     /* Send Notification if it is enabled and connected */
 569:.\Generated_Source\PSoC4/BLE_hts.c ****     if(CYBLE_STATE_CONNECTED != CyBle_GetState())
 1197              		.loc 1 569 0
 1198 0022 314B     		ldr	r3, .L68
 1199 0024 1B78     		ldrb	r3, [r3]
 1200 0026 022B     		cmp	r3, #2
 1201 0028 05D0     		beq	.L63
 570:.\Generated_Source\PSoC4/BLE_hts.c ****     {
 571:.\Generated_Source\PSoC4/BLE_hts.c ****         apiResult = CYBLE_ERROR_INVALID_STATE;
 1202              		.loc 1 571 0
 1203 002a 1E23     		mov	r3, #30
 1204 002c FB18     		add	r3, r7, r3
 1205 002e 0422     		mov	r2, #4
 1206 0030 FF32     		add	r2, r2, #255
 1207 0032 1A80     		strh	r2, [r3]
 1208 0034 51E0     		b	.L64
 1209              	.L63:
 572:.\Generated_Source\PSoC4/BLE_hts.c ****     }
 573:.\Generated_Source\PSoC4/BLE_hts.c ****     else if(!CYBLE_IS_INDICATION_ENABLED(cyBle_htss.charInfo[charIndex].descrHandle[CYBLE_HTS_CCCD]
 1210              		.loc 1 573 0
 1211 0036 0B23     		mov	r3, #11
 1212 0038 FB18     		add	r3, r7, r3
 1213 003a 1A78     		ldrb	r2, [r3]
 1214 003c 2B49     		ldr	r1, .L68+4
 1215 003e 131C     		mov	r3, r2
 1216 0040 5B00     		lsl	r3, r3, #1
 1217 0042 9B18     		add	r3, r3, r2
 1218 0044 5B00     		lsl	r3, r3, #1
 1219 0046 CB18     		add	r3, r1, r3
 1220 0048 9B88     		ldrh	r3, [r3, #4]
 1221 004a 5A1E     		sub	r2, r3, #1
 1222 004c 2849     		ldr	r1, .L68+8
 1223 004e 131C     		mov	r3, r2
 1224 0050 9B00     		lsl	r3, r3, #2
 1225 0052 9B18     		add	r3, r3, r2
 1226 0054 9B00     		lsl	r3, r3, #2
 1227 0056 CB18     		add	r3, r1, r3
 1228 0058 0833     		add	r3, r3, #8
 1229 005a 9B68     		ldr	r3, [r3, #8]
 1230 005c 5B68     		ldr	r3, [r3, #4]
 1231 005e 181C     		mov	r0, r3
 1232 0060 FFF7FEFF 		bl	CyBle_Get16ByPtr
 1233 0064 031C     		mov	r3, r0
 1234 0066 1A1C     		mov	r2, r3
 1235 0068 0223     		mov	r3, #2
 1236 006a 1340     		and	r3, r2
 1237 006c 9BB2     		uxth	r3, r3
 1238 006e 002B     		cmp	r3, #0
 1239 0070 05D1     		bne	.L65
 574:.\Generated_Source\PSoC4/BLE_hts.c ****     {
 575:.\Generated_Source\PSoC4/BLE_hts.c ****         apiResult = CYBLE_ERROR_IND_DISABLED;
 1240              		.loc 1 575 0
 1241 0072 1E23     		mov	r3, #30
ARM GAS  C:\Users\Henny\AppData\Local\Temp\ccRrnRtI.s 			page 33


 1242 0074 FB18     		add	r3, r7, r3
 1243 0076 0222     		mov	r2, #2
 1244 0078 FF32     		add	r2, r2, #255
 1245 007a 1A80     		strh	r2, [r3]
 1246 007c 2DE0     		b	.L64
 1247              	.L65:
 1248              	.LBB5:
 576:.\Generated_Source\PSoC4/BLE_hts.c ****     }
 577:.\Generated_Source\PSoC4/BLE_hts.c ****     else
 578:.\Generated_Source\PSoC4/BLE_hts.c ****     {
 579:.\Generated_Source\PSoC4/BLE_hts.c ****         CYBLE_GATTS_HANDLE_VALUE_NTF_T ntfReqParam;
 580:.\Generated_Source\PSoC4/BLE_hts.c ****         
 581:.\Generated_Source\PSoC4/BLE_hts.c ****         /* Fill all fields of write request structure ... */
 582:.\Generated_Source\PSoC4/BLE_hts.c ****         ntfReqParam.attrHandle = cyBle_htss.charInfo[charIndex].charHandle;
 1249              		.loc 1 582 0
 1250 007e 0B23     		mov	r3, #11
 1251 0080 FB18     		add	r3, r7, r3
 1252 0082 1A78     		ldrb	r2, [r3]
 1253 0084 1949     		ldr	r1, .L68+4
 1254 0086 131C     		mov	r3, r2
 1255 0088 5B00     		lsl	r3, r3, #1
 1256 008a 9B18     		add	r3, r3, r2
 1257 008c 5B00     		lsl	r3, r3, #1
 1258 008e CB18     		add	r3, r1, r3
 1259 0090 5A88     		ldrh	r2, [r3, #2]
 1260 0092 1023     		mov	r3, #16
 1261 0094 FB18     		add	r3, r7, r3
 1262 0096 1A81     		strh	r2, [r3, #8]
 583:.\Generated_Source\PSoC4/BLE_hts.c ****         ntfReqParam.value.val = attrValue;
 1263              		.loc 1 583 0
 1264 0098 1023     		mov	r3, #16
 1265 009a FB18     		add	r3, r7, r3
 1266 009c 7A68     		ldr	r2, [r7, #4]
 1267 009e 1A60     		str	r2, [r3]
 584:.\Generated_Source\PSoC4/BLE_hts.c ****         ntfReqParam.value.len = attrSize;
 1268              		.loc 1 584 0
 1269 00a0 0A23     		mov	r3, #10
 1270 00a2 FB18     		add	r3, r7, r3
 1271 00a4 1B78     		ldrb	r3, [r3]
 1272 00a6 9AB2     		uxth	r2, r3
 1273 00a8 1023     		mov	r3, #16
 1274 00aa FB18     		add	r3, r7, r3
 1275 00ac 9A80     		strh	r2, [r3, #4]
 585:.\Generated_Source\PSoC4/BLE_hts.c ****         
 586:.\Generated_Source\PSoC4/BLE_hts.c ****         /* Send indication to client using previously filled structure */
 587:.\Generated_Source\PSoC4/BLE_hts.c ****         apiResult = CyBle_GattsIndication(connHandle, &ntfReqParam);
 1276              		.loc 1 587 0
 1277 00ae 1E23     		mov	r3, #30
 1278 00b0 FC18     		add	r4, r7, r3
 1279 00b2 0C23     		mov	r3, #12
 1280 00b4 FB18     		add	r3, r7, r3
 1281 00b6 1022     		mov	r2, #16
 1282 00b8 BA18     		add	r2, r7, r2
 1283 00ba 1868     		ldr	r0, [r3]
 1284 00bc 111C     		mov	r1, r2
 1285 00be FFF7FEFF 		bl	CyBle_GattsIndication
 1286 00c2 031C     		mov	r3, r0
ARM GAS  C:\Users\Henny\AppData\Local\Temp\ccRrnRtI.s 			page 34


 1287 00c4 2380     		strh	r3, [r4]
 588:.\Generated_Source\PSoC4/BLE_hts.c ****         /* Save handle to support service specific value confirmation response from client */
 589:.\Generated_Source\PSoC4/BLE_hts.c ****         if(apiResult == CYBLE_ERROR_OK)
 1288              		.loc 1 589 0
 1289 00c6 1E23     		mov	r3, #30
 1290 00c8 FB18     		add	r3, r7, r3
 1291 00ca 1B88     		ldrh	r3, [r3]
 1292 00cc 002B     		cmp	r3, #0
 1293 00ce 04D1     		bne	.L64
 590:.\Generated_Source\PSoC4/BLE_hts.c ****         {
 591:.\Generated_Source\PSoC4/BLE_hts.c ****             cyBle_htssReqHandle = ntfReqParam.attrHandle;
 1294              		.loc 1 591 0
 1295 00d0 1023     		mov	r3, #16
 1296 00d2 FB18     		add	r3, r7, r3
 1297 00d4 1A89     		ldrh	r2, [r3, #8]
 1298 00d6 074B     		ldr	r3, .L68+12
 1299 00d8 1A80     		strh	r2, [r3]
 1300              	.L64:
 1301              	.LBE5:
 592:.\Generated_Source\PSoC4/BLE_hts.c ****         }
 593:.\Generated_Source\PSoC4/BLE_hts.c ****     }
 594:.\Generated_Source\PSoC4/BLE_hts.c ****     return (apiResult);
 1302              		.loc 1 594 0
 1303 00da 1E23     		mov	r3, #30
 1304 00dc FB18     		add	r3, r7, r3
 1305 00de 1B88     		ldrh	r3, [r3]
 595:.\Generated_Source\PSoC4/BLE_hts.c **** }
 1306              		.loc 1 595 0
 1307 00e0 181C     		mov	r0, r3
 1308 00e2 BD46     		mov	sp, r7
 1309 00e4 09B0     		add	sp, sp, #36
 1310              		@ sp needed
 1311 00e6 90BD     		pop	{r4, r7, pc}
 1312              	.L69:
 1313              		.align	2
 1314              	.L68:
 1315 00e8 00000000 		.word	cyBle_state
 1316 00ec 00000000 		.word	cyBle_htss
 1317 00f0 00000000 		.word	cyBle_gattDB
 1318 00f4 04000000 		.word	cyBle_htssReqHandle
 1319              		.cfi_endproc
 1320              	.LFE10:
 1321              		.size	CyBle_HtssSendIndication, .-CyBle_HtssSendIndication
 1322              		.section	.text.CyBle_HtssConfirmationEventHandler,"ax",%progbits
 1323              		.align	2
 1324              		.global	CyBle_HtssConfirmationEventHandler
 1325              		.code	16
 1326              		.thumb_func
 1327              		.type	CyBle_HtssConfirmationEventHandler, %function
 1328              	CyBle_HtssConfirmationEventHandler:
 1329              	.LFB11:
 596:.\Generated_Source\PSoC4/BLE_hts.c **** 
 597:.\Generated_Source\PSoC4/BLE_hts.c **** 
 598:.\Generated_Source\PSoC4/BLE_hts.c **** /******************************************************************************
 599:.\Generated_Source\PSoC4/BLE_hts.c **** * Function Name: CyBle_HtssConfirmationEventHandler
 600:.\Generated_Source\PSoC4/BLE_hts.c **** ***************************************************************************//**
 601:.\Generated_Source\PSoC4/BLE_hts.c **** * 
ARM GAS  C:\Users\Henny\AppData\Local\Temp\ccRrnRtI.s 			page 35


 602:.\Generated_Source\PSoC4/BLE_hts.c **** *  Handles a Value Confirmation request event from the BLE stack.
 603:.\Generated_Source\PSoC4/BLE_hts.c **** * 
 604:.\Generated_Source\PSoC4/BLE_hts.c **** *  *eventParam - The pointer to a structure of type CYBLE_CONN_HANDLE_T.
 605:.\Generated_Source\PSoC4/BLE_hts.c **** * 
 606:.\Generated_Source\PSoC4/BLE_hts.c **** * \return
 607:.\Generated_Source\PSoC4/BLE_hts.c **** *  None
 608:.\Generated_Source\PSoC4/BLE_hts.c **** * 
 609:.\Generated_Source\PSoC4/BLE_hts.c **** ******************************************************************************/
 610:.\Generated_Source\PSoC4/BLE_hts.c **** void CyBle_HtssConfirmationEventHandler(const CYBLE_CONN_HANDLE_T *eventParam)
 611:.\Generated_Source\PSoC4/BLE_hts.c **** {
 1330              		.loc 1 611 0
 1331              		.cfi_startproc
 1332 0000 80B5     		push	{r7, lr}
 1333              		.cfi_def_cfa_offset 8
 1334              		.cfi_offset 7, -8
 1335              		.cfi_offset 14, -4
 1336 0002 86B0     		sub	sp, sp, #24
 1337              		.cfi_def_cfa_offset 32
 1338 0004 00AF     		add	r7, sp, #0
 1339              		.cfi_def_cfa_register 7
 1340 0006 7860     		str	r0, [r7, #4]
 612:.\Generated_Source\PSoC4/BLE_hts.c ****     CYBLE_HTS_CHAR_INDEX_T locCharIndex;
 613:.\Generated_Source\PSoC4/BLE_hts.c ****     CYBLE_HTS_CHAR_VALUE_T locCharValue;
 614:.\Generated_Source\PSoC4/BLE_hts.c ****     uint8 locReqHandle = 0u;
 1341              		.loc 1 614 0
 1342 0008 1623     		mov	r3, #22
 1343 000a FB18     		add	r3, r7, r3
 1344 000c 0022     		mov	r2, #0
 1345 000e 1A70     		strb	r2, [r3]
 615:.\Generated_Source\PSoC4/BLE_hts.c **** 
 616:.\Generated_Source\PSoC4/BLE_hts.c ****     if((NULL != CyBle_HtsApplCallback) && (CYBLE_GATT_INVALID_ATTR_HANDLE_VALUE != cyBle_htssReqHan
 1346              		.loc 1 616 0
 1347 0010 2D4B     		ldr	r3, .L75
 1348 0012 1B68     		ldr	r3, [r3]
 1349 0014 002B     		cmp	r3, #0
 1350 0016 54D0     		beq	.L70
 1351              		.loc 1 616 0 is_stmt 0 discriminator 1
 1352 0018 2C4B     		ldr	r3, .L75+4
 1353 001a 1B88     		ldrh	r3, [r3]
 1354 001c 002B     		cmp	r3, #0
 1355 001e 50D0     		beq	.L70
 617:.\Generated_Source\PSoC4/BLE_hts.c ****     {
 618:.\Generated_Source\PSoC4/BLE_hts.c ****         for(locCharIndex = CYBLE_HTS_TEMP_MEASURE; (locCharIndex < CYBLE_HTS_CHAR_COUNT) && (locReq
 1356              		.loc 1 618 0 is_stmt 1
 1357 0020 1723     		mov	r3, #23
 1358 0022 FB18     		add	r3, r7, r3
 1359 0024 0022     		mov	r2, #0
 1360 0026 1A70     		strb	r2, [r3]
 1361 0028 41E0     		b	.L72
 1362              	.L74:
 619:.\Generated_Source\PSoC4/BLE_hts.c ****             locCharIndex++)
 620:.\Generated_Source\PSoC4/BLE_hts.c ****         {
 621:.\Generated_Source\PSoC4/BLE_hts.c ****             if(cyBle_htssReqHandle == cyBle_htss.charInfo[locCharIndex].charHandle)
 1363              		.loc 1 621 0
 1364 002a 1723     		mov	r3, #23
 1365 002c FB18     		add	r3, r7, r3
 1366 002e 1A78     		ldrb	r2, [r3]
ARM GAS  C:\Users\Henny\AppData\Local\Temp\ccRrnRtI.s 			page 36


 1367 0030 2749     		ldr	r1, .L75+8
 1368 0032 131C     		mov	r3, r2
 1369 0034 5B00     		lsl	r3, r3, #1
 1370 0036 9B18     		add	r3, r3, r2
 1371 0038 5B00     		lsl	r3, r3, #1
 1372 003a CB18     		add	r3, r1, r3
 1373 003c 5A88     		ldrh	r2, [r3, #2]
 1374 003e 234B     		ldr	r3, .L75+4
 1375 0040 1B88     		ldrh	r3, [r3]
 1376 0042 9A42     		cmp	r2, r3
 1377 0044 2CD1     		bne	.L73
 622:.\Generated_Source\PSoC4/BLE_hts.c ****             {
 623:.\Generated_Source\PSoC4/BLE_hts.c ****                 locCharValue.connHandle = *eventParam;
 1378              		.loc 1 623 0
 1379 0046 0C23     		mov	r3, #12
 1380 0048 FA18     		add	r2, r7, r3
 1381 004a 7B68     		ldr	r3, [r7, #4]
 1382 004c 111C     		mov	r1, r2
 1383 004e 1A1C     		mov	r2, r3
 1384 0050 0223     		mov	r3, #2
 1385 0052 081C     		mov	r0, r1
 1386 0054 111C     		mov	r1, r2
 1387 0056 1A1C     		mov	r2, r3
 1388 0058 FFF7FEFF 		bl	memcpy
 624:.\Generated_Source\PSoC4/BLE_hts.c ****                 locCharValue.charIndex = locCharIndex;
 1389              		.loc 1 624 0
 1390 005c 0C23     		mov	r3, #12
 1391 005e FB18     		add	r3, r7, r3
 1392 0060 1722     		mov	r2, #23
 1393 0062 BA18     		add	r2, r7, r2
 1394 0064 1278     		ldrb	r2, [r2]
 1395 0066 9A70     		strb	r2, [r3, #2]
 625:.\Generated_Source\PSoC4/BLE_hts.c ****                 locCharValue.value = NULL;
 1396              		.loc 1 625 0
 1397 0068 0C23     		mov	r3, #12
 1398 006a FB18     		add	r3, r7, r3
 1399 006c 0022     		mov	r2, #0
 1400 006e 5A60     		str	r2, [r3, #4]
 626:.\Generated_Source\PSoC4/BLE_hts.c ****                 cyBle_eventHandlerFlag &= (uint8)~CYBLE_CALLBACK;
 1401              		.loc 1 626 0
 1402 0070 184B     		ldr	r3, .L75+12
 1403 0072 1B78     		ldrb	r3, [r3]
 1404 0074 DBB2     		uxtb	r3, r3
 1405 0076 0122     		mov	r2, #1
 1406 0078 9343     		bic	r3, r2
 1407 007a DAB2     		uxtb	r2, r3
 1408 007c 154B     		ldr	r3, .L75+12
 1409 007e 1A70     		strb	r2, [r3]
 627:.\Generated_Source\PSoC4/BLE_hts.c ****                 cyBle_htssReqHandle = CYBLE_GATT_INVALID_ATTR_HANDLE_VALUE;
 1410              		.loc 1 627 0
 1411 0080 124B     		ldr	r3, .L75+4
 1412 0082 0022     		mov	r2, #0
 1413 0084 1A80     		strh	r2, [r3]
 628:.\Generated_Source\PSoC4/BLE_hts.c ****                 CyBle_HtsApplCallback((uint32)CYBLE_EVT_HTSS_INDICATION_CONFIRMED, &locCharValue);
 1414              		.loc 1 628 0
 1415 0086 104B     		ldr	r3, .L75
 1416 0088 1B68     		ldr	r3, [r3]
ARM GAS  C:\Users\Henny\AppData\Local\Temp\ccRrnRtI.s 			page 37


 1417 008a D022     		mov	r2, #208
 1418 008c 5100     		lsl	r1, r2, #1
 1419 008e 0C22     		mov	r2, #12
 1420 0090 BA18     		add	r2, r7, r2
 1421 0092 081C     		mov	r0, r1
 1422 0094 111C     		mov	r1, r2
 1423 0096 9847     		blx	r3
 629:.\Generated_Source\PSoC4/BLE_hts.c ****                 locReqHandle = 1u;
 1424              		.loc 1 629 0
 1425 0098 1623     		mov	r3, #22
 1426 009a FB18     		add	r3, r7, r3
 1427 009c 0122     		mov	r2, #1
 1428 009e 1A70     		strb	r2, [r3]
 1429              	.L73:
 619:.\Generated_Source\PSoC4/BLE_hts.c ****         {
 1430              		.loc 1 619 0
 1431 00a0 1723     		mov	r3, #23
 1432 00a2 FB18     		add	r3, r7, r3
 1433 00a4 1A78     		ldrb	r2, [r3]
 1434 00a6 1723     		mov	r3, #23
 1435 00a8 FB18     		add	r3, r7, r3
 1436 00aa 0132     		add	r2, r2, #1
 1437 00ac 1A70     		strb	r2, [r3]
 1438              	.L72:
 618:.\Generated_Source\PSoC4/BLE_hts.c ****             locCharIndex++)
 1439              		.loc 1 618 0 discriminator 1
 1440 00ae 1723     		mov	r3, #23
 1441 00b0 FB18     		add	r3, r7, r3
 1442 00b2 1B78     		ldrb	r3, [r3]
 1443 00b4 032B     		cmp	r3, #3
 1444 00b6 04D8     		bhi	.L70
 618:.\Generated_Source\PSoC4/BLE_hts.c ****             locCharIndex++)
 1445              		.loc 1 618 0 is_stmt 0 discriminator 2
 1446 00b8 1623     		mov	r3, #22
 1447 00ba FB18     		add	r3, r7, r3
 1448 00bc 1B78     		ldrb	r3, [r3]
 1449 00be 002B     		cmp	r3, #0
 1450 00c0 B3D0     		beq	.L74
 1451              	.L70:
 630:.\Generated_Source\PSoC4/BLE_hts.c ****             }
 631:.\Generated_Source\PSoC4/BLE_hts.c ****         }
 632:.\Generated_Source\PSoC4/BLE_hts.c ****     }
 633:.\Generated_Source\PSoC4/BLE_hts.c **** }
 1452              		.loc 1 633 0 is_stmt 1
 1453 00c2 BD46     		mov	sp, r7
 1454 00c4 06B0     		add	sp, sp, #24
 1455              		@ sp needed
 1456 00c6 80BD     		pop	{r7, pc}
 1457              	.L76:
 1458              		.align	2
 1459              	.L75:
 1460 00c8 00000000 		.word	CyBle_HtsApplCallback
 1461 00cc 04000000 		.word	cyBle_htssReqHandle
 1462 00d0 00000000 		.word	cyBle_htss
 1463 00d4 00000000 		.word	cyBle_eventHandlerFlag
 1464              		.cfi_endproc
 1465              	.LFE11:
ARM GAS  C:\Users\Henny\AppData\Local\Temp\ccRrnRtI.s 			page 38


 1466              		.size	CyBle_HtssConfirmationEventHandler, .-CyBle_HtssConfirmationEventHandler
 1467              		.text
 1468              	.Letext0:
 1469              		.file 2 ".\\Generated_Source\\PSoC4\\cytypes.h"
 1470              		.file 3 ".\\Generated_Source\\PSoC4\\BLE_Stack.h"
 1471              		.file 4 ".\\Generated_Source\\PSoC4\\BLE_StackGatt.h"
 1472              		.file 5 ".\\Generated_Source\\PSoC4\\BLE_StackGattServer.h"
 1473              		.file 6 ".\\Generated_Source\\PSoC4\\BLE_StackGattDb.h"
 1474              		.file 7 ".\\Generated_Source\\PSoC4\\BLE.h"
 1475              		.file 8 ".\\Generated_Source\\PSoC4\\BLE_dis.h"
 1476              		.file 9 ".\\Generated_Source\\PSoC4\\BLE_hts.h"
 1477              		.file 10 ".\\Generated_Source\\PSoC4\\BLE_eventHandler.h"
 1478              		.file 11 ".\\Generated_Source\\PSoC4\\BLE_gatt.h"