ARM GAS  C:\Users\Henny\AppData\Local\Temp\cc46Bukt.s 			page 1


   1              		.cpu cortex-m0
   2              		.fpu softvfp
   3              		.eabi_attribute 20, 1
   4              		.eabi_attribute 21, 1
   5              		.eabi_attribute 23, 3
   6              		.eabi_attribute 24, 1
   7              		.eabi_attribute 25, 1
   8              		.eabi_attribute 26, 1
   9              		.eabi_attribute 30, 6
  10              		.eabi_attribute 34, 0
  11              		.eabi_attribute 18, 4
  12              		.code	16
  13              		.file	"main.c"
  14              		.text
  15              	.Ltext0:
  16              		.cfi_sections	.debug_frame
  17              		.global	busStatus
  18              		.bss
  19              		.type	busStatus, %object
  20              		.size	busStatus, 1
  21              	busStatus:
  22 0000 00       		.space	1
  23              		.global	mainTimer
  24 0001 000000   		.align	2
  25              		.type	mainTimer, %object
  26              		.size	mainTimer, 4
  27              	mainTimer:
  28 0004 00000000 		.space	4
  29              		.section	.rodata
  30              		.align	2
  31              	.LC0:
  32 0000 53746172 		.ascii	"StartAdvertisement API Error: %d \015\012\000"
  32      74416476 
  32      65727469 
  32      73656D65 
  32      6E742041 
  33              		.align	2
  34              	.LC2:
  35 0024 426C7565 		.ascii	"Bluetooth On, StartAdvertisement with addr: \000"
  35      746F6F74 
  35      68204F6E 
  35      2C205374 
  35      61727441 
  36 0051 000000   		.align	2
  37              	.LC4:
  38 0054 25322E32 		.ascii	"%2.2x\000"
  38      7800
  39 005a 0000     		.align	2
  40              	.LC6:
  41 005c 0D00     		.ascii	"\015\000"
  42 005e 0000     		.align	2
  43              	.LC8:
  44 0060 4359424C 		.ascii	"CYBLE_EVT_TIMEOUT: %x \015\012\000"
  44      455F4556 
  44      545F5449 
  44      4D454F55 
  44      543A2025 
ARM GAS  C:\Users\Henny\AppData\Local\Temp\cc46Bukt.s 			page 2


  45 0079 000000   		.align	2
  46              	.LC10:
  47 007c 48617264 		.ascii	"Hardware Error \015\000"
  47      77617265 
  47      20457272 
  47      6F72200D 
  47      00
  48 008d 000000   		.align	2
  49              	.LC12:
  50 0090 4359424C 		.ascii	"CYBLE_EVT_HCI_STATUS: %x \015\012\000"
  50      455F4556 
  50      545F4843 
  50      495F5354 
  50      41545553 
  51              		.align	2
  52              	.LC14:
  53 00ac 4359424C 		.ascii	"CYBLE_EVT_AUTH_REQ: security=%x, bonding=%x, ekeySi"
  53      455F4556 
  53      545F4155 
  53      54485F52 
  53      45513A20 
  54 00df 7A653D25 		.ascii	"ze=%x, err=%x \015\012\000"
  54      782C2065 
  54      72723D25 
  54      78200D0A 
  54      00
  55              		.align	2
  56              	.LC16:
  57 00f0 4359424C 		.ascii	"CYBLE_EVT_PASSKEY_ENTRY_REQUEST \015\000"
  57      455F4556 
  57      545F5041 
  57      53534B45 
  57      595F454E 
  58 0112 0000     		.align	2
  59              	.LC18:
  60 0114 4359424C 		.ascii	"CYBLE_EVT_PASSKEY_DISPLAY_REQUEST %6.6ld \015\012\000"
  60      455F4556 
  60      545F5041 
  60      53534B45 
  60      595F4449 
  61              		.align	2
  62              	.LC20:
  63 0140 41555448 		.ascii	"AUTH_COMPLETE: security:%x, bonding:%x, ekeySize:%x"
  63      5F434F4D 
  63      504C4554 
  63      453A2073 
  63      65637572 
  64 0173 2C206175 		.ascii	", authErr %x \015\012\000"
  64      74684572 
  64      72202578 
  64      200D0A00 
  65 0183 00       		.align	2
  66              	.LC22:
  67 0184 4359424C 		.ascii	"CYBLE_EVT_AUTH_FAILED: %x \015\012\000"
  67      455F4556 
  67      545F4155 
  67      54485F46 
ARM GAS  C:\Users\Henny\AppData\Local\Temp\cc46Bukt.s 			page 3


  67      41494C45 
  68 01a1 000000   		.align	2
  69              	.LC25:
  70 01a4 4359424C 		.ascii	"CYBLE_EVT_GAPP_ADVERTISEMENT_START_STOP, state: %x\015"
  70      455F4556 
  70      545F4741 
  70      50505F41 
  70      44564552 
  71 01d7 0A00     		.ascii	"\012\000"
  72 01d9 000000   		.align	2
  73              	.LC27:
  74 01dc 48696265 		.ascii	"Hibernate \015\000"
  74      726E6174 
  74      65200D00 
  75              		.align	2
  76              	.LC29:
  77 01e8 4359424C 		.ascii	"CYBLE_EVT_GAP_DEVICE_CONNECTED: %x \015\012\000"
  77      455F4556 
  77      545F4741 
  77      505F4445 
  77      56494345 
  78 020e 0000     		.align	2
  79              	.LC31:
  80 0210 4359424C 		.ascii	"CYBLE_EVT_GAP_DEVICE_DISCONNECTED\015\000"
  80      455F4556 
  80      545F4741 
  80      505F4445 
  80      56494345 
  81 0233 00       		.align	2
  82              	.LC33:
  83 0234 53746172 		.ascii	"StartAdvertisement API Error: %x \015\012\000"
  83      74416476 
  83      65727469 
  83      73656D65 
  83      6E742041 
  84              		.align	2
  85              	.LC35:
  86 0258 454E4352 		.ascii	"ENCRYPT_CHANGE: %x \015\012\000"
  86      5950545F 
  86      4348414E 
  86      47453A20 
  86      2578200D 
  87 026e 0000     		.align	2
  88              	.LC37:
  89 0270 4359424C 		.ascii	"CYBLE_EVT_CONNECTION_UPDATE_COMPLETE: %x \015\012\000"
  89      455F4556 
  89      545F434F 
  89      4E4E4543 
  89      54494F4E 
  90              		.align	2
  91              	.LC39:
  92 029c 4359424C 		.ascii	"CYBLE_EVT_GAP_KEYINFO_EXCHNGE_CMPLT \015\000"
  92      455F4556 
  92      545F4741 
  92      505F4B45 
  92      59494E46 
  93 02c2 0000     		.align	2
ARM GAS  C:\Users\Henny\AppData\Local\Temp\cc46Bukt.s 			page 4


  94              	.LC42:
  95 02c4 4359424C 		.ascii	"CYBLE_EVT_GATT_CONNECT_IND: %x, %x \015\012\000"
  95      455F4556 
  95      545F4741 
  95      54545F43 
  95      4F4E4E45 
  96 02ea 0000     		.align	2
  97              	.LC44:
  98 02ec 4359424C 		.ascii	"CYBLE_EVT_GATT_DISCONNECT_IND \015\000"
  98      455F4556 
  98      545F4741 
  98      54545F44 
  98      4953434F 
  99              		.align	2
 100              	.LC46:
 101 030c 4359424C 		.ascii	"CYBLE_EVT_GATT_WRITE_REQ: %x = \000"
 101      455F4556 
 101      545F4741 
 101      54545F57 
 101      52495445 
 102              		.align	2
 103              	.LC48:
 104 032c 4359424C 		.ascii	"CYBLE_EVT_GATTS_INDICATION_ENABLED \015\000"
 104      455F4556 
 104      545F4741 
 104      5454535F 
 104      494E4449 
 105 0351 000000   		.align	2
 106              	.LC50:
 107 0354 4359424C 		.ascii	"CYBLE_EVT_GATTS_INDICATION_DISABLED \015\000"
 107      455F4556 
 107      545F4741 
 107      5454535F 
 107      494E4449 
 108 037a 0000     		.align	2
 109              	.LC52:
 110 037c 4359424C 		.ascii	"CYBLE_EVT_GATTS_READ_CHAR_VAL_ACCESS_REQ: handle: %"
 110      455F4556 
 110      545F4741 
 110      5454535F 
 110      52454144 
 111 03af 78200D0A 		.ascii	"x \015\012\000"
 111      00
 112              		.align	2
 113              	.LC54:
 114 03b4 4359424C 		.ascii	"CYBLE_EVT_PENDING_FLASH_WRITE\015\000"
 114      455F4556 
 114      545F5045 
 114      4E44494E 
 114      475F464C 
 115 03d3 00       		.align	2
 116              	.LC56:
 117 03d4 4F544845 		.ascii	"OTHER event: %lx \015\012\000"
 117      52206576 
 117      656E743A 
 117      20256C78 
 117      200D0A00 
ARM GAS  C:\Users\Henny\AppData\Local\Temp\cc46Bukt.s 			page 5


 118              		.section	.text.AppCallBack,"ax",%progbits
 119              		.align	2
 120              		.global	AppCallBack
 121              		.code	16
 122              		.thumb_func
 123              		.type	AppCallBack, %function
 124              	AppCallBack:
 125              	.LFB37:
 126              		.file 1 ".\\main.c"
   1:.\main.c      **** /*******************************************************************************
   2:.\main.c      **** * File Name: main.c
   3:.\main.c      **** *
   4:.\main.c      **** * Version: 1.0
   5:.\main.c      **** *
   6:.\main.c      **** * Description:
   7:.\main.c      **** *  Temperature measurement example project that simulates thermometer readings
   8:.\main.c      **** *  and sends it over BLE Health Thermometer service.
   9:.\main.c      **** *
  10:.\main.c      **** * Note:
  11:.\main.c      **** *
  12:.\main.c      **** * Hardware Dependency:
  13:.\main.c      **** *  CY8CKIT-042 BLE
  14:.\main.c      **** * 
  15:.\main.c      **** ********************************************************************************
  16:.\main.c      **** * Copyright 2015, Cypress Semiconductor Corporation.  All rights reserved.
  17:.\main.c      **** * You may use this file only in accordance with the license, terms, conditions,
  18:.\main.c      **** * disclaimers, and limitations in the end user license agreement accompanying
  19:.\main.c      **** * the software package with which this file was provided.
  20:.\main.c      **** *******************************************************************************/
  21:.\main.c      **** 
  22:.\main.c      **** #include "common.h"
  23:.\main.c      **** #include "hts.h"
  24:.\main.c      **** #include "bas.h"
  25:.\main.c      **** 
  26:.\main.c      **** uint8 busStatus = CYBLE_STACK_STATE_FREE;           /* Status of stack queue */
  27:.\main.c      **** 
  28:.\main.c      **** volatile uint32 mainTimer = 0;
  29:.\main.c      **** 
  30:.\main.c      **** 
  31:.\main.c      **** /*******************************************************************************
  32:.\main.c      **** * Function Name: AppCallBack()
  33:.\main.c      **** ********************************************************************************
  34:.\main.c      **** *
  35:.\main.c      **** * Summary:
  36:.\main.c      **** *   This is an event callback function to receive events from the BLE Component.
  37:.\main.c      **** *
  38:.\main.c      **** * Parameters:
  39:.\main.c      **** *  event - the event code
  40:.\main.c      **** *  *eventParam - the event parameters
  41:.\main.c      **** *
  42:.\main.c      **** *******************************************************************************/
  43:.\main.c      **** void AppCallBack(uint32 event, void* eventParam)
  44:.\main.c      **** {
 127              		.loc 1 44 0
 128              		.cfi_startproc
 129 0000 B0B5     		push	{r4, r5, r7, lr}
 130              		.cfi_def_cfa_offset 16
ARM GAS  C:\Users\Henny\AppData\Local\Temp\cc46Bukt.s 			page 6


 131              		.cfi_offset 4, -16
 132              		.cfi_offset 5, -12
 133              		.cfi_offset 7, -8
 134              		.cfi_offset 14, -4
 135 0002 88B0     		sub	sp, sp, #32
 136              		.cfi_def_cfa_offset 48
 137 0004 02AF     		add	r7, sp, #8
 138              		.cfi_def_cfa 7, 40
 139 0006 7860     		str	r0, [r7, #4]
 140 0008 3960     		str	r1, [r7]
  45:.\main.c      ****     CYBLE_API_RESULT_T apiResult;
  46:.\main.c      ****     CYBLE_GAP_BD_ADDR_T localAddr;
  47:.\main.c      ****     CYBLE_GAP_AUTH_INFO_T *authInfo;
  48:.\main.c      ****     uint8 i;
  49:.\main.c      **** 
  50:.\main.c      ****     switch (event)
 141              		.loc 1 50 0
 142 000a 7B68     		ldr	r3, [r7, #4]
 143 000c 272B     		cmp	r3, #39
 144 000e 00D1     		bne	.LCB18
 145 0010 1EE1     		b	.L3	@long jump
 146              	.LCB18:
 147 0012 23D8     		bhi	.L4
 148 0014 212B     		cmp	r3, #33
 149 0016 00D1     		bne	.LCB22
 150 0018 A7E0     		b	.L5	@long jump
 151              	.LCB22:
 152 001a 0DD8     		bhi	.L6
 153 001c 022B     		cmp	r3, #2
 154 001e 00D1     		bne	.LCB26
 155 0020 8CE0     		b	.L7	@long jump
 156              	.LCB26:
 157 0022 02D8     		bhi	.L8
 158 0024 012B     		cmp	r3, #1
 159 0026 45D0     		beq	.L9
 160 0028 8CE1     		b	.L2
 161              	.L8:
 162 002a 032B     		cmp	r3, #3
 163 002c 00D1     		bne	.LCB36
 164 002e 8EE0     		b	.L10	@long jump
 165              	.LCB36:
 166 0030 042B     		cmp	r3, #4
 167 0032 00D1     		bne	.LCB38
 168 0034 90E0     		b	.L11	@long jump
 169              	.LCB38:
 170 0036 85E1     		b	.L2
 171              	.L6:
 172 0038 242B     		cmp	r3, #36
 173 003a 00D1     		bne	.LCB44
 174 003c B6E0     		b	.L12	@long jump
 175              	.LCB44:
 176 003e 06D8     		bhi	.L13
 177 0040 222B     		cmp	r3, #34
 178 0042 00D1     		bne	.LCB48
 179 0044 A5E0     		b	.L14	@long jump
 180              	.LCB48:
 181 0046 232B     		cmp	r3, #35
ARM GAS  C:\Users\Henny\AppData\Local\Temp\cc46Bukt.s 			page 7


 182 0048 00D1     		bne	.LCB50
 183 004a A7E0     		b	.L15	@long jump
 184              	.LCB50:
 185 004c 7AE1     		b	.L2
 186              	.L13:
 187 004e 252B     		cmp	r3, #37
 188 0050 00D1     		bne	.LCB56
 189 0052 C1E0     		b	.L16	@long jump
 190              	.LCB56:
 191 0054 262B     		cmp	r3, #38
 192 0056 00D1     		bne	.LCB58
 193 0058 C7E0     		b	.L17	@long jump
 194              	.LCB58:
 195 005a 73E1     		b	.L2
 196              	.L4:
 197 005c 422B     		cmp	r3, #66
 198 005e 00D1     		bne	.LCB64
 199 0060 41E1     		b	.L18	@long jump
 200              	.LCB64:
 201 0062 11D8     		bhi	.L19
 202 0064 2A2B     		cmp	r3, #42
 203 0066 00D1     		bne	.LCB68
 204 0068 24E1     		b	.L20	@long jump
 205              	.LCB68:
 206 006a 06D8     		bhi	.L21
 207 006c 282B     		cmp	r3, #40
 208 006e 00D1     		bne	.LCB72
 209 0070 FAE0     		b	.L22	@long jump
 210              	.LCB72:
 211 0072 292B     		cmp	r3, #41
 212 0074 00D1     		bne	.LCB74
 213 0076 14E1     		b	.L23	@long jump
 214              	.LCB74:
 215 0078 64E1     		b	.L2
 216              	.L21:
 217 007a 2C2B     		cmp	r3, #44
 218 007c 00D1     		bne	.LCB80
 219 007e 22E1     		b	.L24	@long jump
 220              	.LCB80:
 221 0080 412B     		cmp	r3, #65
 222 0082 00D1     		bne	.LCB82
 223 0084 24E1     		b	.L25	@long jump
 224              	.LCB82:
 225 0086 5DE1     		b	.L2
 226              	.L19:
 227 0088 FA2B     		cmp	r3, #250
 228 008a 00D1     		bne	.LCB88
 229 008c 55E1     		b	.L26	@long jump
 230              	.LCB88:
 231 008e 06D8     		bhi	.L27
 232 0090 4C2B     		cmp	r3, #76
 233 0092 00D1     		bne	.LCB92
 234 0094 2CE1     		b	.L28	@long jump
 235              	.LCB92:
 236 0096 572B     		cmp	r3, #87
 237 0098 00D1     		bne	.LCB94
 238 009a 45E1     		b	.L29	@long jump
ARM GAS  C:\Users\Henny\AppData\Local\Temp\cc46Bukt.s 			page 8


 239              	.LCB94:
 240 009c 52E1     		b	.L2
 241              	.L27:
 242 009e 8222     		mov	r2, #130
 243 00a0 5200     		lsl	r2, r2, #1
 244 00a2 9342     		cmp	r3, r2
 245 00a4 00D1     		bne	.LCB102
 246 00a6 35E1     		b	.L30	@long jump
 247              	.LCB102:
 248 00a8 0622     		mov	r2, #6
 249 00aa FF32     		add	r2, r2, #255
 250 00ac 9342     		cmp	r3, r2
 251 00ae 00D1     		bne	.LCB106
 252 00b0 35E1     		b	.L31	@long jump
 253              	.LCB106:
 254 00b2 47E1     		b	.L2
 255              	.L9:
  51:.\main.c      **** 	{
  52:.\main.c      ****         /**********************************************************
  53:.\main.c      ****         *                       General Events
  54:.\main.c      ****         ***********************************************************/
  55:.\main.c      **** 		case CYBLE_EVT_STACK_ON: /* This event received when component is Started */
  56:.\main.c      ****             /* Enter in to discoverable mode so that remote can search it. */
  57:.\main.c      ****             apiResult = CyBle_GappStartAdvertisement(CYBLE_ADVERTISING_FAST);
 256              		.loc 1 57 0
 257 00b4 1423     		mov	r3, #20
 258 00b6 FC18     		add	r4, r7, r3
 259 00b8 0020     		mov	r0, #0
 260 00ba FFF7FEFF 		bl	CyBle_GappStartAdvertisement
 261 00be 031C     		mov	r3, r0
 262 00c0 2380     		strh	r3, [r4]
  58:.\main.c      ****             if(apiResult != CYBLE_ERROR_OK)
 263              		.loc 1 58 0
 264 00c2 1423     		mov	r3, #20
 265 00c4 FB18     		add	r3, r7, r3
 266 00c6 1B88     		ldrh	r3, [r3]
 267 00c8 002B     		cmp	r3, #0
 268 00ca 07D0     		beq	.L32
  59:.\main.c      ****             {
  60:.\main.c      ****                 DBG_PRINTF("StartAdvertisement API Error: %d \r\n", apiResult);
 269              		.loc 1 60 0
 270 00cc 1423     		mov	r3, #20
 271 00ce FB18     		add	r3, r7, r3
 272 00d0 1B88     		ldrh	r3, [r3]
 273 00d2 A14A     		ldr	r2, .L41
 274 00d4 101C     		mov	r0, r2
 275 00d6 191C     		mov	r1, r3
 276 00d8 FFF7FEFF 		bl	printf
 277              	.L32:
  61:.\main.c      ****             }
  62:.\main.c      ****             DBG_PRINTF("Bluetooth On, StartAdvertisement with addr: ");
 278              		.loc 1 62 0
 279 00dc 9F4B     		ldr	r3, .L41+4
 280 00de 181C     		mov	r0, r3
 281 00e0 FFF7FEFF 		bl	printf
  63:.\main.c      ****             localAddr.type = 0u;
 282              		.loc 1 63 0
ARM GAS  C:\Users\Henny\AppData\Local\Temp\cc46Bukt.s 			page 9


 283 00e4 0823     		mov	r3, #8
 284 00e6 FB18     		add	r3, r7, r3
 285 00e8 0022     		mov	r2, #0
 286 00ea 9A71     		strb	r2, [r3, #6]
  64:.\main.c      ****             CyBle_GetDeviceAddress(&localAddr);
 287              		.loc 1 64 0
 288 00ec 0823     		mov	r3, #8
 289 00ee FB18     		add	r3, r7, r3
 290 00f0 181C     		mov	r0, r3
 291 00f2 FFF7FEFF 		bl	CyBle_GetDeviceAddress
  65:.\main.c      ****             for(i = CYBLE_GAP_BD_ADDR_SIZE; i > 0u; i--)
 292              		.loc 1 65 0
 293 00f6 1723     		mov	r3, #23
 294 00f8 FB18     		add	r3, r7, r3
 295 00fa 0622     		mov	r2, #6
 296 00fc 1A70     		strb	r2, [r3]
 297 00fe 13E0     		b	.L33
 298              	.L34:
  66:.\main.c      ****             {
  67:.\main.c      ****                 DBG_PRINTF("%2.2x", localAddr.bdAddr[i-1]);
 299              		.loc 1 67 0 discriminator 3
 300 0100 1723     		mov	r3, #23
 301 0102 FB18     		add	r3, r7, r3
 302 0104 1B78     		ldrb	r3, [r3]
 303 0106 013B     		sub	r3, r3, #1
 304 0108 0822     		mov	r2, #8
 305 010a BA18     		add	r2, r7, r2
 306 010c D35C     		ldrb	r3, [r2, r3]
 307 010e 1A1C     		mov	r2, r3
 308 0110 934B     		ldr	r3, .L41+8
 309 0112 181C     		mov	r0, r3
 310 0114 111C     		mov	r1, r2
 311 0116 FFF7FEFF 		bl	printf
  65:.\main.c      ****             for(i = CYBLE_GAP_BD_ADDR_SIZE; i > 0u; i--)
 312              		.loc 1 65 0 discriminator 3
 313 011a 1723     		mov	r3, #23
 314 011c FB18     		add	r3, r7, r3
 315 011e 1A78     		ldrb	r2, [r3]
 316 0120 1723     		mov	r3, #23
 317 0122 FB18     		add	r3, r7, r3
 318 0124 013A     		sub	r2, r2, #1
 319 0126 1A70     		strb	r2, [r3]
 320              	.L33:
  65:.\main.c      ****             for(i = CYBLE_GAP_BD_ADDR_SIZE; i > 0u; i--)
 321              		.loc 1 65 0 is_stmt 0 discriminator 1
 322 0128 1723     		mov	r3, #23
 323 012a FB18     		add	r3, r7, r3
 324 012c 1B78     		ldrb	r3, [r3]
 325 012e 002B     		cmp	r3, #0
 326 0130 E6D1     		bne	.L34
  68:.\main.c      ****             }
  69:.\main.c      ****             DBG_PRINTF("\r\n");
 327              		.loc 1 69 0 is_stmt 1
 328 0132 8C4B     		ldr	r3, .L41+12
 329 0134 181C     		mov	r0, r3
 330 0136 FFF7FEFF 		bl	puts
  70:.\main.c      ****             break;
ARM GAS  C:\Users\Henny\AppData\Local\Temp\cc46Bukt.s 			page 10


 331              		.loc 1 70 0
 332 013a 0AE1     		b	.L1
 333              	.L7:
  71:.\main.c      **** 		case CYBLE_EVT_TIMEOUT: 
  72:.\main.c      ****         	/* CYBLE_GAP_ADV_MODE_TO - Advertisement time set by application is expired */
  73:.\main.c      ****     	    /* CYBLE_GAP_AUTH_TO - Authentication procedure timeout */
  74:.\main.c      ****             /* CYBLE_GAP_SCAN_TO - Scan time set by application is expired */
  75:.\main.c      ****             /* CYBLE_GATT_RSP_TO - GATT procedure timeout */
  76:.\main.c      ****             DBG_PRINTF("CYBLE_EVT_TIMEOUT: %x \r\n", *(uint8 *)eventParam);
 334              		.loc 1 76 0
 335 013c 3B68     		ldr	r3, [r7]
 336 013e 1B78     		ldrb	r3, [r3]
 337 0140 1A1C     		mov	r2, r3
 338 0142 894B     		ldr	r3, .L41+16
 339 0144 181C     		mov	r0, r3
 340 0146 111C     		mov	r1, r2
 341 0148 FFF7FEFF 		bl	printf
  77:.\main.c      **** 			break;
 342              		.loc 1 77 0
 343 014c 01E1     		b	.L1
 344              	.L10:
  78:.\main.c      **** 		case CYBLE_EVT_HARDWARE_ERROR:    /* This event indicates that some internal HW error has occurre
  79:.\main.c      ****             DBG_PRINTF("Hardware Error \r\n");
 345              		.loc 1 79 0
 346 014e 874B     		ldr	r3, .L41+20
 347 0150 181C     		mov	r0, r3
 348 0152 FFF7FEFF 		bl	puts
  80:.\main.c      **** 			break;
 349              		.loc 1 80 0
 350 0156 FCE0     		b	.L1
 351              	.L11:
  81:.\main.c      ****         case CYBLE_EVT_HCI_STATUS:
  82:.\main.c      ****             DBG_PRINTF("CYBLE_EVT_HCI_STATUS: %x \r\n", *(uint8 *)eventParam);
 352              		.loc 1 82 0
 353 0158 3B68     		ldr	r3, [r7]
 354 015a 1B78     		ldrb	r3, [r3]
 355 015c 1A1C     		mov	r2, r3
 356 015e 844B     		ldr	r3, .L41+24
 357 0160 181C     		mov	r0, r3
 358 0162 111C     		mov	r1, r2
 359 0164 FFF7FEFF 		bl	printf
  83:.\main.c      **** 			break;
 360              		.loc 1 83 0
 361 0168 F3E0     		b	.L1
 362              	.L5:
  84:.\main.c      **** 
  85:.\main.c      ****         /**********************************************************
  86:.\main.c      ****         *                       GAP Events
  87:.\main.c      ****         ***********************************************************/
  88:.\main.c      ****         case CYBLE_EVT_GAP_AUTH_REQ:
  89:.\main.c      ****             DBG_PRINTF("CYBLE_EVT_AUTH_REQ: security=%x, bonding=%x, ekeySize=%x, err=%x \r\n", 
 363              		.loc 1 89 0
 364 016a 3B68     		ldr	r3, [r7]
 365 016c 1B78     		ldrb	r3, [r3]
 366 016e 191C     		mov	r1, r3
 367 0170 3B68     		ldr	r3, [r7]
 368 0172 5B78     		ldrb	r3, [r3, #1]
ARM GAS  C:\Users\Henny\AppData\Local\Temp\cc46Bukt.s 			page 11


 369 0174 1D1C     		mov	r5, r3
 370 0176 3B68     		ldr	r3, [r7]
 371 0178 9B78     		ldrb	r3, [r3, #2]
 372 017a 1C1C     		mov	r4, r3
 373 017c 3B68     		ldr	r3, [r7]
 374 017e DB78     		ldrb	r3, [r3, #3]
 375 0180 1A1C     		mov	r2, r3
 376 0182 7C4B     		ldr	r3, .L41+28
 377 0184 0092     		str	r2, [sp]
 378 0186 181C     		mov	r0, r3
 379 0188 2A1C     		mov	r2, r5
 380 018a 231C     		mov	r3, r4
 381 018c FFF7FEFF 		bl	printf
  90:.\main.c      ****                 (*(CYBLE_GAP_AUTH_INFO_T *)eventParam).security, 
  91:.\main.c      ****                 (*(CYBLE_GAP_AUTH_INFO_T *)eventParam).bonding, 
  92:.\main.c      ****                 (*(CYBLE_GAP_AUTH_INFO_T *)eventParam).ekeySize, 
  93:.\main.c      ****                 (*(CYBLE_GAP_AUTH_INFO_T *)eventParam).authErr);
  94:.\main.c      ****             break;
 382              		.loc 1 94 0
 383 0190 DFE0     		b	.L1
 384              	.L14:
  95:.\main.c      ****         case CYBLE_EVT_GAP_PASSKEY_ENTRY_REQUEST:
  96:.\main.c      ****             DBG_PRINTF("CYBLE_EVT_PASSKEY_ENTRY_REQUEST \r\n");
 385              		.loc 1 96 0
 386 0192 794B     		ldr	r3, .L41+32
 387 0194 181C     		mov	r0, r3
 388 0196 FFF7FEFF 		bl	puts
  97:.\main.c      ****             break;
 389              		.loc 1 97 0
 390 019a DAE0     		b	.L1
 391              	.L15:
  98:.\main.c      ****         case CYBLE_EVT_GAP_PASSKEY_DISPLAY_REQUEST:
  99:.\main.c      ****             DBG_PRINTF("CYBLE_EVT_PASSKEY_DISPLAY_REQUEST %6.6ld \r\n", *(uint32 *)eventParam);
 392              		.loc 1 99 0
 393 019c 3B68     		ldr	r3, [r7]
 394 019e 1B68     		ldr	r3, [r3]
 395 01a0 764A     		ldr	r2, .L41+36
 396 01a2 101C     		mov	r0, r2
 397 01a4 191C     		mov	r1, r3
 398 01a6 FFF7FEFF 		bl	printf
 100:.\main.c      ****             break;
 399              		.loc 1 100 0
 400 01aa D2E0     		b	.L1
 401              	.L12:
 101:.\main.c      ****         case CYBLE_EVT_GAP_AUTH_COMPLETE:
 102:.\main.c      ****             authInfo = (CYBLE_GAP_AUTH_INFO_T *)eventParam;
 402              		.loc 1 102 0
 403 01ac 3B68     		ldr	r3, [r7]
 404 01ae 3B61     		str	r3, [r7, #16]
 103:.\main.c      ****             (void)authInfo;
 104:.\main.c      ****             DBG_PRINTF("AUTH_COMPLETE: security:%x, bonding:%x, ekeySize:%x, authErr %x \r\n", 
 405              		.loc 1 104 0
 406 01b0 3B69     		ldr	r3, [r7, #16]
 407 01b2 1B78     		ldrb	r3, [r3]
 408 01b4 191C     		mov	r1, r3
 409 01b6 3B69     		ldr	r3, [r7, #16]
 410 01b8 5B78     		ldrb	r3, [r3, #1]
ARM GAS  C:\Users\Henny\AppData\Local\Temp\cc46Bukt.s 			page 12


 411 01ba 1D1C     		mov	r5, r3
 412 01bc 3B69     		ldr	r3, [r7, #16]
 413 01be 9B78     		ldrb	r3, [r3, #2]
 414 01c0 1C1C     		mov	r4, r3
 415 01c2 3B69     		ldr	r3, [r7, #16]
 416 01c4 DB78     		ldrb	r3, [r3, #3]
 417 01c6 1A1C     		mov	r2, r3
 418 01c8 6D4B     		ldr	r3, .L41+40
 419 01ca 0092     		str	r2, [sp]
 420 01cc 181C     		mov	r0, r3
 421 01ce 2A1C     		mov	r2, r5
 422 01d0 231C     		mov	r3, r4
 423 01d2 FFF7FEFF 		bl	printf
 105:.\main.c      ****                                     authInfo->security, authInfo->bonding, authInfo->ekeySize, auth
 106:.\main.c      ****             break;
 424              		.loc 1 106 0
 425 01d6 BCE0     		b	.L1
 426              	.L16:
 107:.\main.c      ****         case CYBLE_EVT_GAP_AUTH_FAILED:
 108:.\main.c      ****             DBG_PRINTF("CYBLE_EVT_AUTH_FAILED: %x \r\n", *(uint8 *)eventParam);
 427              		.loc 1 108 0
 428 01d8 3B68     		ldr	r3, [r7]
 429 01da 1B78     		ldrb	r3, [r3]
 430 01dc 1A1C     		mov	r2, r3
 431 01de 694B     		ldr	r3, .L41+44
 432 01e0 181C     		mov	r0, r3
 433 01e2 111C     		mov	r1, r2
 434 01e4 FFF7FEFF 		bl	printf
 109:.\main.c      ****             break;
 435              		.loc 1 109 0
 436 01e8 B3E0     		b	.L1
 437              	.L17:
 110:.\main.c      ****         case CYBLE_EVT_GAPP_ADVERTISEMENT_START_STOP:
 111:.\main.c      ****             DBG_PRINTF("CYBLE_EVT_GAPP_ADVERTISEMENT_START_STOP, state: %x\r\n", CyBle_GetState());
 438              		.loc 1 111 0
 439 01ea 674B     		ldr	r3, .L41+48
 440 01ec 1B78     		ldrb	r3, [r3]
 441 01ee 1A1C     		mov	r2, r3
 442 01f0 664B     		ldr	r3, .L41+52
 443 01f2 181C     		mov	r0, r3
 444 01f4 111C     		mov	r1, r2
 445 01f6 FFF7FEFF 		bl	printf
 112:.\main.c      ****             if(CYBLE_STATE_DISCONNECTED == CyBle_GetState())
 446              		.loc 1 112 0
 447 01fa 634B     		ldr	r3, .L41+48
 448 01fc 1B78     		ldrb	r3, [r3]
 449 01fe 042B     		cmp	r3, #4
 450 0200 25D1     		bne	.L36
 113:.\main.c      ****             {   
 114:.\main.c      ****                 /* Fast and slow advertising period complete, go to low power  
 115:.\main.c      ****                  * mode (Hibernate mode) and wait for an external
 116:.\main.c      ****                  * user event to wake up the device again */
 117:.\main.c      ****                 DBG_PRINTF("Hibernate \r\n");
 451              		.loc 1 117 0
 452 0202 634B     		ldr	r3, .L41+56
 453 0204 181C     		mov	r0, r3
 454 0206 FFF7FEFF 		bl	puts
ARM GAS  C:\Users\Henny\AppData\Local\Temp\cc46Bukt.s 			page 13


 118:.\main.c      ****                 Advertising_LED_Write(LED_OFF);
 455              		.loc 1 118 0
 456 020a 0120     		mov	r0, #1
 457 020c FFF7FEFF 		bl	Advertising_LED_Write
 119:.\main.c      ****                 Disconnect_LED_Write(LED_ON);
 458              		.loc 1 119 0
 459 0210 0020     		mov	r0, #0
 460 0212 FFF7FEFF 		bl	Disconnect_LED_Write
 120:.\main.c      ****                 LowPower_LED_Write(LED_OFF);
 461              		.loc 1 120 0
 462 0216 0120     		mov	r0, #1
 463 0218 FFF7FEFF 		bl	LowPower_LED_Write
 121:.\main.c      ****             #if (DEBUG_UART_ENABLED == ENABLED)
 122:.\main.c      ****                 while((UART_DEB_SpiUartGetTxBufferSize() + UART_DEB_GET_TX_FIFO_SR_VALID) != 0);
 464              		.loc 1 122 0
 465 021c C046     		mov	r8, r8
 466              	.L39:
 467              		.loc 1 122 0 is_stmt 0 discriminator 5
 468 021e FFF7FEFF 		bl	UART_DEB_SpiUartGetTxBufferSize
 469 0222 011C     		mov	r1, r0
 470 0224 5B4B     		ldr	r3, .L41+60
 471 0226 1A68     		ldr	r2, [r3]
 472 0228 8023     		mov	r3, #128
 473 022a 1B02     		lsl	r3, r3, #8
 474 022c 1340     		and	r3, r2
 475 022e 01D0     		beq	.L37
 476              		.loc 1 122 0 discriminator 1
 477 0230 0123     		mov	r3, #1
 478 0232 00E0     		b	.L38
 479              	.L37:
 480              		.loc 1 122 0 discriminator 2
 481 0234 0023     		mov	r3, #0
 482              	.L38:
 483              		.loc 1 122 0 discriminator 4
 484 0236 CB18     		add	r3, r1, r3
 485 0238 002B     		cmp	r3, #0
 486 023a F0D1     		bne	.L39
 123:.\main.c      ****             #endif /* (DEBUG_UART_ENABLED == ENABLED) */
 124:.\main.c      ****                 SW2_ClearInterrupt();
 487              		.loc 1 124 0 is_stmt 1
 488 023c FFF7FEFF 		bl	SW2_ClearInterrupt
 125:.\main.c      ****                 Wakeup_Interrupt_ClearPending();
 489              		.loc 1 125 0
 490 0240 FFF7FEFF 		bl	Wakeup_Interrupt_ClearPending
 126:.\main.c      ****                 Wakeup_Interrupt_Start();
 491              		.loc 1 126 0
 492 0244 FFF7FEFF 		bl	Wakeup_Interrupt_Start
 127:.\main.c      ****                 CySysPmHibernate();
 493              		.loc 1 127 0
 494 0248 FFF7FEFF 		bl	CySysPmHibernate
 128:.\main.c      ****             }
 129:.\main.c      ****             break;
 495              		.loc 1 129 0
 496 024c 81E0     		b	.L1
 497              	.L36:
 498 024e 80E0     		b	.L1
 499              	.L3:
ARM GAS  C:\Users\Henny\AppData\Local\Temp\cc46Bukt.s 			page 14


 130:.\main.c      ****         case CYBLE_EVT_GAP_DEVICE_CONNECTED:
 131:.\main.c      ****             DBG_PRINTF("CYBLE_EVT_GAP_DEVICE_CONNECTED: %x \r\n", *(uint8 *)eventParam);
 500              		.loc 1 131 0
 501 0250 3B68     		ldr	r3, [r7]
 502 0252 1B78     		ldrb	r3, [r3]
 503 0254 1A1C     		mov	r2, r3
 504 0256 504B     		ldr	r3, .L41+64
 505 0258 181C     		mov	r0, r3
 506 025a 111C     		mov	r1, r2
 507 025c FFF7FEFF 		bl	printf
 132:.\main.c      ****             Advertising_LED_Write(LED_OFF);
 508              		.loc 1 132 0
 509 0260 0120     		mov	r0, #1
 510 0262 FFF7FEFF 		bl	Advertising_LED_Write
 133:.\main.c      ****             break;
 511              		.loc 1 133 0
 512 0266 74E0     		b	.L1
 513              	.L22:
 134:.\main.c      ****         case CYBLE_EVT_GAP_DEVICE_DISCONNECTED:
 135:.\main.c      ****             DBG_PRINTF("CYBLE_EVT_GAP_DEVICE_DISCONNECTED\r\n");
 514              		.loc 1 135 0
 515 0268 4C4B     		ldr	r3, .L41+68
 516 026a 181C     		mov	r0, r3
 517 026c FFF7FEFF 		bl	puts
 136:.\main.c      ****             LowPower_LED_Write(LED_OFF);
 518              		.loc 1 136 0
 519 0270 0120     		mov	r0, #1
 520 0272 FFF7FEFF 		bl	LowPower_LED_Write
 137:.\main.c      ****             /* Put the device to discoverable mode so that remote can search it. */
 138:.\main.c      ****             apiResult = CyBle_GappStartAdvertisement(CYBLE_ADVERTISING_FAST);
 521              		.loc 1 138 0
 522 0276 1423     		mov	r3, #20
 523 0278 FC18     		add	r4, r7, r3
 524 027a 0020     		mov	r0, #0
 525 027c FFF7FEFF 		bl	CyBle_GappStartAdvertisement
 526 0280 031C     		mov	r3, r0
 527 0282 2380     		strh	r3, [r4]
 139:.\main.c      ****             if(apiResult != CYBLE_ERROR_OK)
 528              		.loc 1 139 0
 529 0284 1423     		mov	r3, #20
 530 0286 FB18     		add	r3, r7, r3
 531 0288 1B88     		ldrh	r3, [r3]
 532 028a 002B     		cmp	r3, #0
 533 028c 08D0     		beq	.L40
 140:.\main.c      ****             {
 141:.\main.c      ****                 DBG_PRINTF("StartAdvertisement API Error: %x \r\n", apiResult);
 534              		.loc 1 141 0
 535 028e 1423     		mov	r3, #20
 536 0290 FB18     		add	r3, r7, r3
 537 0292 1B88     		ldrh	r3, [r3]
 538 0294 424A     		ldr	r2, .L41+72
 539 0296 101C     		mov	r0, r2
 540 0298 191C     		mov	r1, r3
 541 029a FFF7FEFF 		bl	printf
 142:.\main.c      ****             }
 143:.\main.c      ****             break;
 542              		.loc 1 143 0
ARM GAS  C:\Users\Henny\AppData\Local\Temp\cc46Bukt.s 			page 15


 543 029e 58E0     		b	.L1
 544              	.L40:
 545              		.loc 1 143 0 is_stmt 0 discriminator 2
 546 02a0 57E0     		b	.L1
 547              	.L23:
 144:.\main.c      ****         case CYBLE_EVT_GAP_ENCRYPT_CHANGE:
 145:.\main.c      ****             DBG_PRINTF("ENCRYPT_CHANGE: %x \r\n", *(uint8 *)eventParam);
 548              		.loc 1 145 0 is_stmt 1
 549 02a2 3B68     		ldr	r3, [r7]
 550 02a4 1B78     		ldrb	r3, [r3]
 551 02a6 1A1C     		mov	r2, r3
 552 02a8 3E4B     		ldr	r3, .L41+76
 553 02aa 181C     		mov	r0, r3
 554 02ac 111C     		mov	r1, r2
 555 02ae FFF7FEFF 		bl	printf
 146:.\main.c      ****             break;
 556              		.loc 1 146 0
 557 02b2 4EE0     		b	.L1
 558              	.L20:
 147:.\main.c      ****         case CYBLE_EVT_GAPC_CONNECTION_UPDATE_COMPLETE:
 148:.\main.c      ****             DBG_PRINTF("CYBLE_EVT_CONNECTION_UPDATE_COMPLETE: %x \r\n", *(uint8 *)eventParam);
 559              		.loc 1 148 0
 560 02b4 3B68     		ldr	r3, [r7]
 561 02b6 1B78     		ldrb	r3, [r3]
 562 02b8 1A1C     		mov	r2, r3
 563 02ba 3B4B     		ldr	r3, .L41+80
 564 02bc 181C     		mov	r0, r3
 565 02be 111C     		mov	r1, r2
 566 02c0 FFF7FEFF 		bl	printf
 149:.\main.c      ****             break;
 567              		.loc 1 149 0
 568 02c4 45E0     		b	.L1
 569              	.L24:
 150:.\main.c      ****         case CYBLE_EVT_GAP_KEYINFO_EXCHNGE_CMPLT:
 151:.\main.c      ****             DBG_PRINTF("CYBLE_EVT_GAP_KEYINFO_EXCHNGE_CMPLT \r\n");
 570              		.loc 1 151 0
 571 02c6 394B     		ldr	r3, .L41+84
 572 02c8 181C     		mov	r0, r3
 573 02ca FFF7FEFF 		bl	puts
 152:.\main.c      ****             break;
 574              		.loc 1 152 0
 575 02ce 40E0     		b	.L1
 576              	.L25:
 153:.\main.c      **** 
 154:.\main.c      ****         /**********************************************************
 155:.\main.c      ****         *                       GATT Events
 156:.\main.c      ****         ***********************************************************/
 157:.\main.c      ****         case CYBLE_EVT_GATT_CONNECT_IND:
 158:.\main.c      ****             DBG_PRINTF("CYBLE_EVT_GATT_CONNECT_IND: %x, %x \r\n", cyBle_connHandle.attId, cyBle_con
 577              		.loc 1 158 0
 578 02d0 374B     		ldr	r3, .L41+88
 579 02d2 5B78     		ldrb	r3, [r3, #1]
 580 02d4 191C     		mov	r1, r3
 581 02d6 364B     		ldr	r3, .L41+88
 582 02d8 1B78     		ldrb	r3, [r3]
 583 02da 1A1C     		mov	r2, r3
 584 02dc 354B     		ldr	r3, .L41+92
ARM GAS  C:\Users\Henny\AppData\Local\Temp\cc46Bukt.s 			page 16


 585 02de 181C     		mov	r0, r3
 586 02e0 FFF7FEFF 		bl	printf
 159:.\main.c      ****             break;
 587              		.loc 1 159 0
 588 02e4 35E0     		b	.L1
 589              	.L18:
 160:.\main.c      ****         case CYBLE_EVT_GATT_DISCONNECT_IND:
 161:.\main.c      ****             DBG_PRINTF("CYBLE_EVT_GATT_DISCONNECT_IND \r\n");
 590              		.loc 1 161 0
 591 02e6 344B     		ldr	r3, .L41+96
 592 02e8 181C     		mov	r0, r3
 593 02ea FFF7FEFF 		bl	puts
 162:.\main.c      ****             break;
 594              		.loc 1 162 0
 595 02ee 30E0     		b	.L1
 596              	.L28:
 163:.\main.c      ****         case CYBLE_EVT_GATTS_WRITE_REQ:
 164:.\main.c      ****             DBG_PRINTF("CYBLE_EVT_GATT_WRITE_REQ: %x = ",((CYBLE_GATTS_WRITE_REQ_PARAM_T *)eventPar
 597              		.loc 1 164 0
 598 02f0 3B68     		ldr	r3, [r7]
 599 02f2 9B89     		ldrh	r3, [r3, #12]
 600 02f4 1A1C     		mov	r2, r3
 601 02f6 314B     		ldr	r3, .L41+100
 602 02f8 181C     		mov	r0, r3
 603 02fa 111C     		mov	r1, r2
 604 02fc FFF7FEFF 		bl	printf
 165:.\main.c      ****             ShowValue(&((CYBLE_GATTS_WRITE_REQ_PARAM_T *)eventParam)->handleValPair.value);
 605              		.loc 1 165 0
 606 0300 3B68     		ldr	r3, [r7]
 607 0302 0433     		add	r3, r3, #4
 608 0304 181C     		mov	r0, r3
 609 0306 FFF7FEFF 		bl	ShowValue
 166:.\main.c      ****             (void)CyBle_GattsWriteRsp(((CYBLE_GATTS_WRITE_REQ_PARAM_T *)eventParam)->connHandle);
 610              		.loc 1 166 0
 611 030a 3B68     		ldr	r3, [r7]
 612 030c 1868     		ldr	r0, [r3]
 613 030e FFF7FEFF 		bl	CyBle_GattsWriteRsp
 167:.\main.c      ****             break;
 614              		.loc 1 167 0
 615 0312 1EE0     		b	.L1
 616              	.L30:
 168:.\main.c      ****         case CYBLE_EVT_GATTS_INDICATION_ENABLED:
 169:.\main.c      ****             DBG_PRINTF("CYBLE_EVT_GATTS_INDICATION_ENABLED \r\n");
 617              		.loc 1 169 0
 618 0314 2A4B     		ldr	r3, .L41+104
 619 0316 181C     		mov	r0, r3
 620 0318 FFF7FEFF 		bl	puts
 170:.\main.c      ****             break;
 621              		.loc 1 170 0
 622 031c 19E0     		b	.L1
 623              	.L31:
 171:.\main.c      ****         case CYBLE_EVT_GATTS_INDICATION_DISABLED:
 172:.\main.c      ****             DBG_PRINTF("CYBLE_EVT_GATTS_INDICATION_DISABLED \r\n");
 624              		.loc 1 172 0
 625 031e 294B     		ldr	r3, .L41+108
 626 0320 181C     		mov	r0, r3
 627 0322 FFF7FEFF 		bl	puts
ARM GAS  C:\Users\Henny\AppData\Local\Temp\cc46Bukt.s 			page 17


 173:.\main.c      ****             break;
 628              		.loc 1 173 0
 629 0326 14E0     		b	.L1
 630              	.L29:
 174:.\main.c      ****         case CYBLE_EVT_GATTS_READ_CHAR_VAL_ACCESS_REQ:
 175:.\main.c      ****             /* Triggered on server side when client sends read request and when
 176:.\main.c      ****             * characteristic has CYBLE_GATT_DB_ATTR_CHAR_VAL_RD_EVENT property set.
 177:.\main.c      ****             * This event could be ignored by application unless it need to response
 178:.\main.c      ****             * by error response which needs to be set in gattErrorCode field of
 179:.\main.c      ****             * event parameter. */
 180:.\main.c      ****             DBG_PRINTF("CYBLE_EVT_GATTS_READ_CHAR_VAL_ACCESS_REQ: handle: %x \r\n", 
 631              		.loc 1 180 0
 632 0328 3B68     		ldr	r3, [r7]
 633 032a 5B88     		ldrh	r3, [r3, #2]
 634 032c 1A1C     		mov	r2, r3
 635 032e 264B     		ldr	r3, .L41+112
 636 0330 181C     		mov	r0, r3
 637 0332 111C     		mov	r1, r2
 638 0334 FFF7FEFF 		bl	printf
 181:.\main.c      ****                 ((CYBLE_GATTS_CHAR_VAL_READ_REQ_T *)eventParam)->attrHandle);
 182:.\main.c      ****             break;
 639              		.loc 1 182 0
 640 0338 0BE0     		b	.L1
 641              	.L26:
 183:.\main.c      **** 
 184:.\main.c      **** 		/**********************************************************
 185:.\main.c      ****         *                       Other Events
 186:.\main.c      ****         ***********************************************************/
 187:.\main.c      ****         case CYBLE_EVT_PENDING_FLASH_WRITE:
 188:.\main.c      ****             /* Inform application that flash write is pending. Stack internal data 
 189:.\main.c      ****             * structures are modified and require to be stored in Flash using 
 190:.\main.c      ****             * CyBle_StoreBondingData() */
 191:.\main.c      ****             DBG_PRINTF("CYBLE_EVT_PENDING_FLASH_WRITE\r\n");
 642              		.loc 1 191 0
 643 033a 244B     		ldr	r3, .L41+116
 644 033c 181C     		mov	r0, r3
 645 033e FFF7FEFF 		bl	puts
 192:.\main.c      ****             break;
 646              		.loc 1 192 0
 647 0342 06E0     		b	.L1
 648              	.L2:
 193:.\main.c      **** 
 194:.\main.c      ****         default:
 195:.\main.c      ****             DBG_PRINTF("OTHER event: %lx \r\n", event);
 649              		.loc 1 195 0
 650 0344 224A     		ldr	r2, .L41+120
 651 0346 7B68     		ldr	r3, [r7, #4]
 652 0348 101C     		mov	r0, r2
 653 034a 191C     		mov	r1, r3
 654 034c FFF7FEFF 		bl	printf
 196:.\main.c      **** 			break;
 655              		.loc 1 196 0
 656 0350 C046     		mov	r8, r8
 657              	.L1:
 197:.\main.c      **** 	}
 198:.\main.c      **** }
 658              		.loc 1 198 0
ARM GAS  C:\Users\Henny\AppData\Local\Temp\cc46Bukt.s 			page 18


 659 0352 BD46     		mov	sp, r7
 660 0354 06B0     		add	sp, sp, #24
 661              		@ sp needed
 662 0356 B0BD     		pop	{r4, r5, r7, pc}
 663              	.L42:
 664              		.align	2
 665              	.L41:
 666 0358 00000000 		.word	.LC0
 667 035c 24000000 		.word	.LC2
 668 0360 54000000 		.word	.LC4
 669 0364 5C000000 		.word	.LC6
 670 0368 60000000 		.word	.LC8
 671 036c 7C000000 		.word	.LC10
 672 0370 90000000 		.word	.LC12
 673 0374 AC000000 		.word	.LC14
 674 0378 F0000000 		.word	.LC16
 675 037c 14010000 		.word	.LC18
 676 0380 40010000 		.word	.LC20
 677 0384 84010000 		.word	.LC22
 678 0388 00000000 		.word	cyBle_state
 679 038c A4010000 		.word	.LC25
 680 0390 DC010000 		.word	.LC27
 681 0394 08022440 		.word	1076101640
 682 0398 E8010000 		.word	.LC29
 683 039c 10020000 		.word	.LC31
 684 03a0 34020000 		.word	.LC33
 685 03a4 58020000 		.word	.LC35
 686 03a8 70020000 		.word	.LC37
 687 03ac 9C020000 		.word	.LC39
 688 03b0 00000000 		.word	cyBle_connHandle
 689 03b4 C4020000 		.word	.LC42
 690 03b8 EC020000 		.word	.LC44
 691 03bc 0C030000 		.word	.LC46
 692 03c0 2C030000 		.word	.LC48
 693 03c4 54030000 		.word	.LC50
 694 03c8 7C030000 		.word	.LC52
 695 03cc B4030000 		.word	.LC54
 696 03d0 D4030000 		.word	.LC56
 697              		.cfi_endproc
 698              	.LFE37:
 699              		.size	AppCallBack, .-AppCallBack
 700              		.section	.text.Timer_Interrupt,"ax",%progbits
 701              		.align	2
 702              		.global	Timer_Interrupt
 703              		.code	16
 704              		.thumb_func
 705              		.type	Timer_Interrupt, %function
 706              	Timer_Interrupt:
 707              	.LFB38:
 199:.\main.c      **** 
 200:.\main.c      **** 
 201:.\main.c      **** /*******************************************************************************
 202:.\main.c      **** * Function Name: Timer_Interrupt
 203:.\main.c      **** ********************************************************************************
 204:.\main.c      **** *
 205:.\main.c      **** * Summary:
 206:.\main.c      **** *  Handles the Interrupt Service Routine for the WDT timer.
ARM GAS  C:\Users\Henny\AppData\Local\Temp\cc46Bukt.s 			page 19


 207:.\main.c      **** *
 208:.\main.c      **** *******************************************************************************/
 209:.\main.c      **** CY_ISR(Timer_Interrupt)
 210:.\main.c      **** {
 708              		.loc 1 210 0
 709              		.cfi_startproc
 710 0000 80B5     		push	{r7, lr}
 711              		.cfi_def_cfa_offset 8
 712              		.cfi_offset 7, -8
 713              		.cfi_offset 14, -4
 714 0002 00AF     		add	r7, sp, #0
 715              		.cfi_def_cfa_register 7
 211:.\main.c      ****     if(CySysWdtGetInterruptSource() & WDT_INTERRUPT_SOURCE)
 716              		.loc 1 211 0
 717 0004 FFF7FEFF 		bl	CySysWdtGetInterruptSource
 718 0008 021C     		mov	r2, r0
 719 000a 8023     		mov	r3, #128
 720 000c DB00     		lsl	r3, r3, #3
 721 000e 1340     		and	r3, r2
 722 0010 19D0     		beq	.L43
 723              	.LBB2:
 212:.\main.c      ****     {
 213:.\main.c      ****         static uint8 led = LED_OFF;
 214:.\main.c      ****         
 215:.\main.c      ****         /* Blink LED to indicate that device advertises */
 216:.\main.c      ****         if(CYBLE_STATE_ADVERTISING == CyBle_GetState())
 724              		.loc 1 216 0
 725 0012 0E4B     		ldr	r3, .L46
 726 0014 1B78     		ldrb	r3, [r3]
 727 0016 032B     		cmp	r3, #3
 728 0018 0BD1     		bne	.L45
 217:.\main.c      ****         {
 218:.\main.c      ****             led ^= LED_OFF;
 729              		.loc 1 218 0
 730 001a 0D4B     		ldr	r3, .L46+4
 731 001c 1B78     		ldrb	r3, [r3]
 732 001e 0122     		mov	r2, #1
 733 0020 5340     		eor	r3, r2
 734 0022 DAB2     		uxtb	r2, r3
 735 0024 0A4B     		ldr	r3, .L46+4
 736 0026 1A70     		strb	r2, [r3]
 219:.\main.c      ****             Advertising_LED_Write(led);
 737              		.loc 1 219 0
 738 0028 094B     		ldr	r3, .L46+4
 739 002a 1B78     		ldrb	r3, [r3]
 740 002c 181C     		mov	r0, r3
 741 002e FFF7FEFF 		bl	Advertising_LED_Write
 742              	.L45:
 220:.\main.c      ****         }
 221:.\main.c      ****         
 222:.\main.c      ****         /* Indicate that timer is raised to the main loop */
 223:.\main.c      ****         mainTimer++;
 743              		.loc 1 223 0
 744 0032 084B     		ldr	r3, .L46+8
 745 0034 1B68     		ldr	r3, [r3]
 746 0036 5A1C     		add	r2, r3, #1
 747 0038 064B     		ldr	r3, .L46+8
ARM GAS  C:\Users\Henny\AppData\Local\Temp\cc46Bukt.s 			page 20


 748 003a 1A60     		str	r2, [r3]
 224:.\main.c      ****         
 225:.\main.c      ****         /* Clears interrupt request  */
 226:.\main.c      ****         CySysWdtClearInterrupt(WDT_INTERRUPT_SOURCE);
 749              		.loc 1 226 0
 750 003c 8023     		mov	r3, #128
 751 003e DB00     		lsl	r3, r3, #3
 752 0040 181C     		mov	r0, r3
 753 0042 FFF7FEFF 		bl	CySysWdtClearInterrupt
 754              	.L43:
 755              	.LBE2:
 227:.\main.c      ****     }
 228:.\main.c      **** }
 756              		.loc 1 228 0
 757 0046 BD46     		mov	sp, r7
 758              		@ sp needed
 759 0048 80BD     		pop	{r7, pc}
 760              	.L47:
 761 004a C046     		.align	2
 762              	.L46:
 763 004c 00000000 		.word	cyBle_state
 764 0050 00000000 		.word	led.7798
 765 0054 00000000 		.word	mainTimer
 766              		.cfi_endproc
 767              	.LFE38:
 768              		.size	Timer_Interrupt, .-Timer_Interrupt
 769              		.section	.text.WDT_Start,"ax",%progbits
 770              		.align	2
 771              		.global	WDT_Start
 772              		.code	16
 773              		.thumb_func
 774              		.type	WDT_Start, %function
 775              	WDT_Start:
 776              	.LFB39:
 229:.\main.c      **** 
 230:.\main.c      **** /*******************************************************************************
 231:.\main.c      **** * Function Name: WDT_Start
 232:.\main.c      **** ********************************************************************************
 233:.\main.c      **** *
 234:.\main.c      **** * Summary:
 235:.\main.c      **** *  Configures WDT to trigger an interrupt every second.
 236:.\main.c      **** *
 237:.\main.c      **** *******************************************************************************/
 238:.\main.c      **** 
 239:.\main.c      **** void WDT_Start(void)
 240:.\main.c      **** {
 777              		.loc 1 240 0
 778              		.cfi_startproc
 779 0000 80B5     		push	{r7, lr}
 780              		.cfi_def_cfa_offset 8
 781              		.cfi_offset 7, -8
 782              		.cfi_offset 14, -4
 783 0002 00AF     		add	r7, sp, #0
 784              		.cfi_def_cfa_register 7
 241:.\main.c      ****     /* Unlock the WDT registers for modification */
 242:.\main.c      ****     CySysWdtUnlock(); 
 785              		.loc 1 242 0
ARM GAS  C:\Users\Henny\AppData\Local\Temp\cc46Bukt.s 			page 21


 786 0004 FFF7FEFF 		bl	CySysWdtUnlock
 243:.\main.c      ****     /* Setup ISR */
 244:.\main.c      ****     WDT_Interrupt_StartEx(&Timer_Interrupt);
 787              		.loc 1 244 0
 788 0008 0E4B     		ldr	r3, .L49
 789 000a 181C     		mov	r0, r3
 790 000c FFF7FEFF 		bl	WDT_Interrupt_StartEx
 245:.\main.c      ****     /* Write the mode to generate interrupt on match */
 246:.\main.c      ****     CySysWdtWriteMode(WDT_COUNTER, CY_SYS_WDT_MODE_INT);
 791              		.loc 1 246 0
 792 0010 0120     		mov	r0, #1
 793 0012 0121     		mov	r1, #1
 794 0014 FFF7FEFF 		bl	CySysWdtSetMode
 247:.\main.c      ****     /* Configure the WDT counter clear on a match setting */
 248:.\main.c      ****     CySysWdtWriteClearOnMatch(WDT_COUNTER, WDT_COUNTER_ENABLE);
 795              		.loc 1 248 0
 796 0018 0120     		mov	r0, #1
 797 001a 0121     		mov	r1, #1
 798 001c FFF7FEFF 		bl	CySysWdtSetClearOnMatch
 249:.\main.c      ****     /* Configure the WDT counter match comparison value */
 250:.\main.c      ****     CySysWdtWriteMatch(WDT_COUNTER, WDT_1SEC);
 799              		.loc 1 250 0
 800 0020 094B     		ldr	r3, .L49+4
 801 0022 0120     		mov	r0, #1
 802 0024 191C     		mov	r1, r3
 803 0026 FFF7FEFF 		bl	CySysWdtSetMatch
 251:.\main.c      ****     /* Reset WDT counter */
 252:.\main.c      ****     CySysWdtResetCounters(WDT_COUNTER);
 804              		.loc 1 252 0
 805 002a 0120     		mov	r0, #1
 806 002c FFF7FEFF 		bl	CySysWdtResetCounters
 253:.\main.c      ****     /* Enable the specified WDT counter */
 254:.\main.c      ****     CySysWdtEnable(WDT_COUNTER_MASK);
 807              		.loc 1 254 0
 808 0030 8023     		mov	r3, #128
 809 0032 5B00     		lsl	r3, r3, #1
 810 0034 181C     		mov	r0, r3
 811 0036 FFF7FEFF 		bl	CySysWdtEnable
 255:.\main.c      ****     /* Lock out configuration changes to the Watchdog timer registers */
 256:.\main.c      ****     CySysWdtLock();    
 812              		.loc 1 256 0
 813 003a FFF7FEFF 		bl	CySysWdtLock
 257:.\main.c      **** }
 814              		.loc 1 257 0
 815 003e BD46     		mov	sp, r7
 816              		@ sp needed
 817 0040 80BD     		pop	{r7, pc}
 818              	.L50:
 819 0042 C046     		.align	2
 820              	.L49:
 821 0044 00000000 		.word	Timer_Interrupt
 822 0048 FF7F0000 		.word	32767
 823              		.cfi_endproc
 824              	.LFE39:
 825              		.size	WDT_Start, .-WDT_Start
 826              		.section	.text.WDT_Stop,"ax",%progbits
 827              		.align	2
ARM GAS  C:\Users\Henny\AppData\Local\Temp\cc46Bukt.s 			page 22


 828              		.global	WDT_Stop
 829              		.code	16
 830              		.thumb_func
 831              		.type	WDT_Stop, %function
 832              	WDT_Stop:
 833              	.LFB40:
 258:.\main.c      **** 
 259:.\main.c      **** 
 260:.\main.c      **** /*******************************************************************************
 261:.\main.c      **** * Function Name: WDT_Stop
 262:.\main.c      **** ********************************************************************************
 263:.\main.c      **** *
 264:.\main.c      **** * Summary:
 265:.\main.c      **** *  This API stops the WDT timer.
 266:.\main.c      **** *
 267:.\main.c      **** *******************************************************************************/
 268:.\main.c      **** void WDT_Stop(void)
 269:.\main.c      **** {
 834              		.loc 1 269 0
 835              		.cfi_startproc
 836 0000 80B5     		push	{r7, lr}
 837              		.cfi_def_cfa_offset 8
 838              		.cfi_offset 7, -8
 839              		.cfi_offset 14, -4
 840 0002 00AF     		add	r7, sp, #0
 841              		.cfi_def_cfa_register 7
 270:.\main.c      ****     /* Unlock the WDT registers for modification */
 271:.\main.c      ****     CySysWdtUnlock(); 
 842              		.loc 1 271 0
 843 0004 FFF7FEFF 		bl	CySysWdtUnlock
 272:.\main.c      ****     /* Disable the specified WDT counter */
 273:.\main.c      ****     CySysWdtDisable(WDT_COUNTER_MASK);
 844              		.loc 1 273 0
 845 0008 8023     		mov	r3, #128
 846 000a 5B00     		lsl	r3, r3, #1
 847 000c 181C     		mov	r0, r3
 848 000e FFF7FEFF 		bl	CySysWdtDisable
 274:.\main.c      ****     /* Locks out configuration changes to the Watchdog timer registers */
 275:.\main.c      ****     CySysWdtLock();    
 849              		.loc 1 275 0
 850 0012 FFF7FEFF 		bl	CySysWdtLock
 276:.\main.c      **** }
 851              		.loc 1 276 0
 852 0016 BD46     		mov	sp, r7
 853              		@ sp needed
 854 0018 80BD     		pop	{r7, pc}
 855              		.cfi_endproc
 856              	.LFE40:
 857              		.size	WDT_Stop, .-WDT_Stop
 858 001a C046     		.section	.text.LowPowerImplementation,"ax",%progbits
 859              		.align	2
 860              		.code	16
 861              		.thumb_func
 862              		.type	LowPowerImplementation, %function
 863              	LowPowerImplementation:
 864              	.LFB41:
 277:.\main.c      **** 
ARM GAS  C:\Users\Henny\AppData\Local\Temp\cc46Bukt.s 			page 23


 278:.\main.c      **** 
 279:.\main.c      **** /*******************************************************************************
 280:.\main.c      **** * Function Name: LowPowerImplementation()
 281:.\main.c      **** ********************************************************************************
 282:.\main.c      **** * Summary:
 283:.\main.c      **** * Implements low power in the project.
 284:.\main.c      **** *
 285:.\main.c      **** * Parameters:
 286:.\main.c      **** * None
 287:.\main.c      **** *
 288:.\main.c      **** * Return:
 289:.\main.c      **** * None
 290:.\main.c      **** *
 291:.\main.c      **** * Theory:
 292:.\main.c      **** * The function tries to enter deep sleep as much as possible - whenever the 
 293:.\main.c      **** * BLE is idle and the UART transmission/reception is not happening. At all other
 294:.\main.c      **** * times, the function tries to enter CPU sleep.
 295:.\main.c      **** *
 296:.\main.c      **** *******************************************************************************/
 297:.\main.c      **** static void LowPowerImplementation(void)
 298:.\main.c      **** {
 865              		.loc 1 298 0
 866              		.cfi_startproc
 867 0000 90B5     		push	{r4, r7, lr}
 868              		.cfi_def_cfa_offset 12
 869              		.cfi_offset 4, -12
 870              		.cfi_offset 7, -8
 871              		.cfi_offset 14, -4
 872 0002 83B0     		sub	sp, sp, #12
 873              		.cfi_def_cfa_offset 24
 874 0004 00AF     		add	r7, sp, #0
 875              		.cfi_def_cfa_register 7
 299:.\main.c      ****     CYBLE_LP_MODE_T bleMode;
 300:.\main.c      ****     uint8 interruptStatus;
 301:.\main.c      ****     
 302:.\main.c      ****     /* For advertising and connected states, implement deep sleep 
 303:.\main.c      ****      * functionality to achieve low power in the system. For more details
 304:.\main.c      ****      * on the low power implementation, refer to the Low Power Application 
 305:.\main.c      ****      * Note.
 306:.\main.c      ****      */
 307:.\main.c      ****     if((CyBle_GetState() == CYBLE_STATE_ADVERTISING) || 
 876              		.loc 1 307 0
 877 0006 224B     		ldr	r3, .L62
 878 0008 1B78     		ldrb	r3, [r3]
 879 000a 032B     		cmp	r3, #3
 880 000c 03D0     		beq	.L53
 308:.\main.c      ****        (CyBle_GetState() == CYBLE_STATE_CONNECTED))
 881              		.loc 1 308 0 discriminator 1
 882 000e 204B     		ldr	r3, .L62
 883 0010 1B78     		ldrb	r3, [r3]
 307:.\main.c      ****        (CyBle_GetState() == CYBLE_STATE_CONNECTED))
 884              		.loc 1 307 0 discriminator 1
 885 0012 022B     		cmp	r3, #2
 886 0014 39D1     		bne	.L52
 887              	.L53:
 309:.\main.c      ****     {
 310:.\main.c      ****         /* Request BLE subsystem to enter into Deep-Sleep mode between connection and advertising i
ARM GAS  C:\Users\Henny\AppData\Local\Temp\cc46Bukt.s 			page 24


 311:.\main.c      ****         bleMode = CyBle_EnterLPM(CYBLE_BLESS_DEEPSLEEP);
 888              		.loc 1 311 0
 889 0016 FC1D     		add	r4, r7, #7
 890 0018 0320     		mov	r0, #3
 891 001a FFF7FEFF 		bl	CyBle_EnterLPM
 892 001e 031C     		mov	r3, r0
 893 0020 2370     		strb	r3, [r4]
 312:.\main.c      ****         /* Disable global interrupts */
 313:.\main.c      ****         interruptStatus = CyEnterCriticalSection();
 894              		.loc 1 313 0
 895 0022 BC1D     		add	r4, r7, #6
 896 0024 FFF7FEFF 		bl	CyEnterCriticalSection
 897 0028 031C     		mov	r3, r0
 898 002a 2370     		strb	r3, [r4]
 314:.\main.c      ****         /* When BLE subsystem has been put into Deep-Sleep mode */
 315:.\main.c      ****         if(bleMode == CYBLE_BLESS_DEEPSLEEP)
 899              		.loc 1 315 0
 900 002c FB1D     		add	r3, r7, #7
 901 002e 1B78     		ldrb	r3, [r3]
 902 0030 032B     		cmp	r3, #3
 903 0032 1ED1     		bne	.L55
 316:.\main.c      ****         {
 317:.\main.c      ****             /* And it is still there or ECO is on */
 318:.\main.c      ****             if((CyBle_GetBleSsState() == CYBLE_BLESS_STATE_ECO_ON) || 
 904              		.loc 1 318 0
 905 0034 FFF7FEFF 		bl	CyBle_GetBleSsState
 906 0038 031E     		sub	r3, r0, #0
 907 003a 042B     		cmp	r3, #4
 908 003c 04D0     		beq	.L56
 319:.\main.c      ****                (CyBle_GetBleSsState() == CYBLE_BLESS_STATE_DEEPSLEEP))
 909              		.loc 1 319 0 discriminator 1
 910 003e FFF7FEFF 		bl	CyBle_GetBleSsState
 911 0042 031E     		sub	r3, r0, #0
 318:.\main.c      ****                (CyBle_GetBleSsState() == CYBLE_BLESS_STATE_DEEPSLEEP))
 912              		.loc 1 318 0 discriminator 1
 913 0044 062B     		cmp	r3, #6
 914 0046 1BD1     		bne	.L61
 915              	.L56:
 320:.\main.c      ****             {
 321:.\main.c      ****             #if (DEBUG_UART_ENABLED == ENABLED)
 322:.\main.c      ****                 /* Put the CPU into the Deep-Sleep mode when all debug information has been sent */
 323:.\main.c      ****                 if((UART_DEB_SpiUartGetTxBufferSize() + UART_DEB_GET_TX_FIFO_SR_VALID) == 0u)
 916              		.loc 1 323 0
 917 0048 FFF7FEFF 		bl	UART_DEB_SpiUartGetTxBufferSize
 918 004c 011C     		mov	r1, r0
 919 004e 114B     		ldr	r3, .L62+4
 920 0050 1A68     		ldr	r2, [r3]
 921 0052 8023     		mov	r3, #128
 922 0054 1B02     		lsl	r3, r3, #8
 923 0056 1340     		and	r3, r2
 924 0058 01D0     		beq	.L58
 925              		.loc 1 323 0 is_stmt 0 discriminator 1
 926 005a 0123     		mov	r3, #1
 927 005c 00E0     		b	.L59
 928              	.L58:
 929              		.loc 1 323 0 discriminator 2
 930 005e 0023     		mov	r3, #0
ARM GAS  C:\Users\Henny\AppData\Local\Temp\cc46Bukt.s 			page 25


 931              	.L59:
 932              		.loc 1 323 0 discriminator 4
 933 0060 CB18     		add	r3, r1, r3
 934 0062 002B     		cmp	r3, #0
 935 0064 02D1     		bne	.L60
 324:.\main.c      ****                 {
 325:.\main.c      ****                     CySysPmDeepSleep();
 936              		.loc 1 325 0 is_stmt 1
 937 0066 FFF7FEFF 		bl	CySysPmDeepSleep
 938 006a 09E0     		b	.L61
 939              	.L60:
 326:.\main.c      ****                 }
 327:.\main.c      ****                 else /* Put the CPU into Sleep mode and let SCB to continue sending debug data */
 328:.\main.c      ****                 {
 329:.\main.c      ****                     CySysPmSleep();
 940              		.loc 1 329 0
 941 006c FFF7FEFF 		bl	CySysPmSleep
 942 0070 06E0     		b	.L61
 943              	.L55:
 330:.\main.c      ****                 }
 331:.\main.c      ****             #else
 332:.\main.c      ****                 CySysPmDeepSleep();
 333:.\main.c      ****             #endif /* (DEBUG_UART_ENABLED == ENABLED) */
 334:.\main.c      ****             }
 335:.\main.c      ****         }
 336:.\main.c      ****         else /* When BLE subsystem has been put into Sleep mode or is active */
 337:.\main.c      ****         {
 338:.\main.c      ****             /* And hardware doesn't finish Tx/Rx opeation - put the CPU into Sleep mode */
 339:.\main.c      ****             if(CyBle_GetBleSsState() != CYBLE_BLESS_STATE_EVENT_CLOSE)
 944              		.loc 1 339 0
 945 0072 FFF7FEFF 		bl	CyBle_GetBleSsState
 946 0076 031E     		sub	r3, r0, #0
 947 0078 022B     		cmp	r3, #2
 948 007a 01D0     		beq	.L61
 340:.\main.c      ****             {
 341:.\main.c      ****                 CySysPmSleep();
 949              		.loc 1 341 0
 950 007c FFF7FEFF 		bl	CySysPmSleep
 951              	.L61:
 342:.\main.c      ****             }
 343:.\main.c      ****         }
 344:.\main.c      ****         /* Enable global interrupt */
 345:.\main.c      ****         CyExitCriticalSection(interruptStatus);
 952              		.loc 1 345 0
 953 0080 BB1D     		add	r3, r7, #6
 954 0082 1B78     		ldrb	r3, [r3]
 955 0084 181C     		mov	r0, r3
 956 0086 FFF7FEFF 		bl	CyExitCriticalSection
 957              	.L52:
 346:.\main.c      ****     }
 347:.\main.c      **** }
 958              		.loc 1 347 0
 959 008a BD46     		mov	sp, r7
 960 008c 03B0     		add	sp, sp, #12
 961              		@ sp needed
 962 008e 90BD     		pop	{r4, r7, pc}
 963              	.L63:
ARM GAS  C:\Users\Henny\AppData\Local\Temp\cc46Bukt.s 			page 26


 964              		.align	2
 965              	.L62:
 966 0090 00000000 		.word	cyBle_state
 967 0094 08022440 		.word	1076101640
 968              		.cfi_endproc
 969              	.LFE41:
 970              		.size	LowPowerImplementation, .-LowPowerImplementation
 971              		.section	.rodata
 972              		.align	2
 973              	.LC63:
 974 03e8 424C4520 		.ascii	"BLE Temperature Measurement Example Project \015\000"
 974      54656D70 
 974      65726174 
 974      75726520 
 974      4D656173 
 975 0416 0000     		.section	.text.main,"ax",%progbits
 976              		.align	2
 977              		.global	main
 978              		.code	16
 979              		.thumb_func
 980              		.type	main, %function
 981              	main:
 982              	.LFB42:
 348:.\main.c      **** 
 349:.\main.c      **** 
 350:.\main.c      **** /*******************************************************************************
 351:.\main.c      **** * Function Name: main()
 352:.\main.c      **** ********************************************************************************
 353:.\main.c      **** * Summary:
 354:.\main.c      **** *  Main function for the project.
 355:.\main.c      **** *
 356:.\main.c      **** * Parameters:
 357:.\main.c      **** *  None
 358:.\main.c      **** *
 359:.\main.c      **** * Return:
 360:.\main.c      **** *  None
 361:.\main.c      **** *
 362:.\main.c      **** * Theory:
 363:.\main.c      **** *  The function starts BLE and UART components.
 364:.\main.c      **** *  This function process all BLE events and also implements the low power 
 365:.\main.c      **** *  functionality.
 366:.\main.c      **** *
 367:.\main.c      **** *******************************************************************************/
 368:.\main.c      **** int main()
 369:.\main.c      **** {
 983              		.loc 1 369 0
 984              		.cfi_startproc
 985 0000 80B5     		push	{r7, lr}
 986              		.cfi_def_cfa_offset 8
 987              		.cfi_offset 7, -8
 988              		.cfi_offset 14, -4
 989 0002 00AF     		add	r7, sp, #0
 990              		.cfi_def_cfa_register 7
 370:.\main.c      ****     CyGlobalIntEnable;  
 991              		.loc 1 370 0
 992              	@ 370 ".\main.c" 1
 993 0004 62B6     		CPSIE   i
ARM GAS  C:\Users\Henny\AppData\Local\Temp\cc46Bukt.s 			page 27


 994              	@ 0 "" 2
 371:.\main.c      ****     
 372:.\main.c      **** #if (DEBUG_UART_ENABLED == ENABLED)
 373:.\main.c      ****     UART_DEB_Start();
 995              		.loc 1 373 0
 996              		.code	16
 997 0006 FFF7FEFF 		bl	UART_DEB_Start
 374:.\main.c      **** #endif /* (DEBUG_UART_ENABLED == ENABLED) */
 375:.\main.c      ****     DBG_PRINTF("BLE Temperature Measurement Example Project \r\n");
 998              		.loc 1 375 0
 999 000a 1C4B     		ldr	r3, .L67
 1000 000c 181C     		mov	r0, r3
 1001 000e FFF7FEFF 		bl	puts
 376:.\main.c      **** 
 377:.\main.c      ****     Disconnect_LED_Write(LED_OFF);
 1002              		.loc 1 377 0
 1003 0012 0120     		mov	r0, #1
 1004 0014 FFF7FEFF 		bl	Disconnect_LED_Write
 378:.\main.c      ****     Advertising_LED_Write(LED_OFF);
 1005              		.loc 1 378 0
 1006 0018 0120     		mov	r0, #1
 1007 001a FFF7FEFF 		bl	Advertising_LED_Write
 379:.\main.c      ****     LowPower_LED_Write(LED_OFF);
 1008              		.loc 1 379 0
 1009 001e 0120     		mov	r0, #1
 1010 0020 FFF7FEFF 		bl	LowPower_LED_Write
 380:.\main.c      **** 
 381:.\main.c      ****     
 382:.\main.c      ****     /* Start CYBLE component and register generic event handler */
 383:.\main.c      ****     CyBle_Start(AppCallBack);
 1011              		.loc 1 383 0
 1012 0024 164B     		ldr	r3, .L67+4
 1013 0026 181C     		mov	r0, r3
 1014 0028 FFF7FEFF 		bl	CyBle_Start
 384:.\main.c      ****     /* Register service specific callback functions */
 385:.\main.c      ****     CyBle_BasRegisterAttrCallback(BasCallBack);
 1015              		.loc 1 385 0
 1016 002c 154B     		ldr	r3, .L67+8
 1017 002e 181C     		mov	r0, r3
 1018 0030 FFF7FEFF 		bl	CyBle_BasRegisterAttrCallback
 386:.\main.c      ****     CyBle_HtsRegisterAttrCallback(HtsCallBack);
 1019              		.loc 1 386 0
 1020 0034 144B     		ldr	r3, .L67+12
 1021 0036 181C     		mov	r0, r3
 1022 0038 FFF7FEFF 		bl	CyBle_HtsRegisterAttrCallback
 387:.\main.c      ****     
 388:.\main.c      **** 	ADC_Start();
 1023              		.loc 1 388 0
 1024 003c FFF7FEFF 		bl	ADC_Start
 389:.\main.c      ****     WDT_Start();
 1025              		.loc 1 389 0
 1026 0040 FFF7FEFF 		bl	WDT_Start
 1027              	.L66:
 390:.\main.c      **** 
 391:.\main.c      ****     /***************************************************************************
 392:.\main.c      ****     * Main polling loop
 393:.\main.c      ****     ***************************************************************************/
ARM GAS  C:\Users\Henny\AppData\Local\Temp\cc46Bukt.s 			page 28


 394:.\main.c      **** 	while(1) 
 395:.\main.c      ****     {   
 396:.\main.c      ****         /* CyBle_ProcessEvents() allows BLE stack to process pending events */
 397:.\main.c      ****         CyBle_ProcessEvents();
 1028              		.loc 1 397 0
 1029 0044 FFF7FEFF 		bl	CyBle_ProcessEvents
 398:.\main.c      **** 
 399:.\main.c      ****         /* To achieve low power in the device */
 400:.\main.c      ****         LowPowerImplementation();
 1030              		.loc 1 400 0
 1031 0048 FFF7FEFF 		bl	LowPowerImplementation
 401:.\main.c      **** 
 402:.\main.c      ****         
 403:.\main.c      ****         /***********************************************************************
 404:.\main.c      ****         * Wait for connection established with Central device
 405:.\main.c      ****         ***********************************************************************/
 406:.\main.c      ****         if(CyBle_GetState() == CYBLE_STATE_CONNECTED)
 1032              		.loc 1 406 0
 1033 004c 0F4B     		ldr	r3, .L67+16
 1034 004e 1B78     		ldrb	r3, [r3]
 1035 0050 022B     		cmp	r3, #2
 1036 0052 12D1     		bne	.L65
 407:.\main.c      ****         {
 408:.\main.c      ****             /*******************************************************************
 409:.\main.c      ****             *  Periodically measure a battery level and temperature and send 
 410:.\main.c      ****             *  results to the Client
 411:.\main.c      ****             *******************************************************************/        
 412:.\main.c      ****             if(mainTimer != 0u)
 1037              		.loc 1 412 0
 1038 0054 0E4B     		ldr	r3, .L67+20
 1039 0056 1B68     		ldr	r3, [r3]
 1040 0058 002B     		cmp	r3, #0
 1041 005a 0ED0     		beq	.L65
 413:.\main.c      ****             {
 414:.\main.c      ****                 mainTimer = 0u;
 1042              		.loc 1 414 0
 1043 005c 0C4B     		ldr	r3, .L67+20
 1044 005e 0022     		mov	r2, #0
 1045 0060 1A60     		str	r2, [r3]
 415:.\main.c      ****                 
 416:.\main.c      ****                 MeasureBattery();
 1046              		.loc 1 416 0
 1047 0062 FFF7FEFF 		bl	MeasureBattery
 417:.\main.c      ****                 CyBle_ProcessEvents();
 1048              		.loc 1 417 0
 1049 0066 FFF7FEFF 		bl	CyBle_ProcessEvents
 418:.\main.c      ****                 
 419:.\main.c      ****                 if(temperatureMeasure == ENABLED)
 1050              		.loc 1 419 0
 1051 006a 0A4B     		ldr	r3, .L67+24
 1052 006c 1B88     		ldrh	r3, [r3]
 1053 006e 012B     		cmp	r3, #1
 1054 0070 03D1     		bne	.L65
 420:.\main.c      ****                 {
 421:.\main.c      ****                     MeasureTemperature();
 1055              		.loc 1 421 0
 1056 0072 FFF7FEFF 		bl	MeasureTemperature
ARM GAS  C:\Users\Henny\AppData\Local\Temp\cc46Bukt.s 			page 29


 422:.\main.c      ****                     CyBle_ProcessEvents();
 1057              		.loc 1 422 0
 1058 0076 FFF7FEFF 		bl	CyBle_ProcessEvents
 1059              	.L65:
 423:.\main.c      ****                 }
 424:.\main.c      ****             }
 425:.\main.c      ****         }
 426:.\main.c      **** 	}   
 1060              		.loc 1 426 0
 1061 007a E3E7     		b	.L66
 1062              	.L68:
 1063              		.align	2
 1064              	.L67:
 1065 007c E8030000 		.word	.LC63
 1066 0080 00000000 		.word	AppCallBack
 1067 0084 00000000 		.word	BasCallBack
 1068 0088 00000000 		.word	HtsCallBack
 1069 008c 00000000 		.word	cyBle_state
 1070 0090 00000000 		.word	mainTimer
 1071 0094 00000000 		.word	temperatureMeasure
 1072              		.cfi_endproc
 1073              	.LFE42:
 1074              		.size	main, .-main
 1075              		.data
 1076              		.type	led.7798, %object
 1077              		.size	led.7798, 1
 1078              	led.7798:
 1079 0000 01       		.byte	1
 1080              		.text
 1081              	.Letext0:
 1082              		.file 2 "Generated_Source\\PSoC4/cytypes.h"
 1083              		.file 3 "Generated_Source\\PSoC4/BLE_Stack.h"
 1084              		.file 4 "Generated_Source\\PSoC4/BLE_StackGap.h"
 1085              		.file 5 "Generated_Source\\PSoC4/BLE_StackGatt.h"
 1086              		.file 6 "Generated_Source\\PSoC4/BLE_StackGattServer.h"
 1087              		.file 7 "Generated_Source\\PSoC4/BLE_dis.h"
 1088              		.file 8 "Generated_Source\\PSoC4/BLE_hts.h"
 1089              		.file 9 "Generated_Source\\PSoC4/BLE_eventHandler.h"
 1090              		.file 10 ".\\hts.h"