ARM GAS  C:\Users\Henny\AppData\Local\Temp\ccCiizHl.s 			page 1


   1              		.cpu cortex-m0
   2              		.fpu softvfp
   3              		.eabi_attribute 20, 1
   4              		.eabi_attribute 21, 1
   5              		.eabi_attribute 23, 3
   6              		.eabi_attribute 24, 1
   7              		.eabi_attribute 25, 1
   8              		.eabi_attribute 26, 1
   9              		.eabi_attribute 30, 1
  10              		.eabi_attribute 34, 0
  11              		.eabi_attribute 18, 4
  12              		.code	16
  13              		.file	"ADXL345.c"
  14              		.text
  15              	.Ltext0:
  16              		.cfi_sections	.debug_frame
  17              		.global	__aeabi_i2d
  18              		.global	__aeabi_dmul
  19              		.global	__aeabi_d2f
  20              		.section	.text.scaleAccValues,"ax",%progbits
  21              		.align	2
  22              		.global	scaleAccValues
  23              		.code	16
  24              		.thumb_func
  25              		.type	scaleAccValues, %function
  26              	scaleAccValues:
  27              	.LFB42:
  28              		.file 1 ".\\ADXL345.c"
   1:.\ADXL345.c   **** /* ========================================
   2:.\ADXL345.c   ****  *
   3:.\ADXL345.c   ****  * Copyright Pawel Prochniak, 2017
   4:.\ADXL345.c   ****  * All Rights Reserved
   5:.\ADXL345.c   ****  * UNPUBLISHED, LICENSED SOFTWARE.
   6:.\ADXL345.c   ****  *
   7:.\ADXL345.c   ****  * ========================================
   8:.\ADXL345.c   **** */
   9:.\ADXL345.c   **** 
  10:.\ADXL345.c   **** #include <project.h>
  11:.\ADXL345.c   **** #include <stdbool.h>
  12:.\ADXL345.c   **** #include <ADXL345.h>
  13:.\ADXL345.c   **** #include <common.h>
  14:.\ADXL345.c   **** 
  15:.\ADXL345.c   **** uint16 rawDataX, rawDataY, rawDataZ;
  16:.\ADXL345.c   **** 
  17:.\ADXL345.c   **** bool startAccConnection() 
  18:.\ADXL345.c   **** {      
  19:.\ADXL345.c   ****     CyDelay(50); // wait for initialization
  20:.\ADXL345.c   ****     writeRegister(ADXL345_REG_POWER_CTL, 0x08);  
  21:.\ADXL345.c   ****     debug("Started measurement mode");
  22:.\ADXL345.c   ****     
  23:.\ADXL345.c   ****     return true;
  24:.\ADXL345.c   **** }
  25:.\ADXL345.c   **** 
  26:.\ADXL345.c   **** uint8 getDeviceId() 
  27:.\ADXL345.c   **** {    
  28:.\ADXL345.c   ****     return readRegister(ADXL345_REG_DEVID);
  29:.\ADXL345.c   **** }
ARM GAS  C:\Users\Henny\AppData\Local\Temp\ccCiizHl.s 			page 2


  30:.\ADXL345.c   **** 
  31:.\ADXL345.c   **** void getRawDataX() 
  32:.\ADXL345.c   **** {
  33:.\ADXL345.c   ****     rawDataX = readRegister16(ADXL345_REG_DATAX0);
  34:.\ADXL345.c   ****     debug("Raw X: ");
  35:.\ADXL345.c   ****     debugInt(rawDataX);
  36:.\ADXL345.c   **** }
  37:.\ADXL345.c   **** 
  38:.\ADXL345.c   **** void getRawDataY() 
  39:.\ADXL345.c   **** {
  40:.\ADXL345.c   ****     rawDataY = readRegister16(ADXL345_REG_DATAY0);
  41:.\ADXL345.c   **** }
  42:.\ADXL345.c   **** 
  43:.\ADXL345.c   **** void getRawDataZ() 
  44:.\ADXL345.c   **** {
  45:.\ADXL345.c   ****     rawDataZ = readRegister16(ADXL345_REG_DATAZ0);
  46:.\ADXL345.c   **** }
  47:.\ADXL345.c   **** 
  48:.\ADXL345.c   **** void scaleAccValues()
  49:.\ADXL345.c   **** {
  29              		.loc 1 49 0
  30              		.cfi_startproc
  31 0000 08B5     		push	{r3, lr}
  32              		.cfi_def_cfa_offset 8
  33              		.cfi_offset 3, -8
  34              		.cfi_offset 14, -4
  50:.\ADXL345.c   ****     xData.floatVal = rawDataX * SCALE_FACTOR;
  35              		.loc 1 50 0
  36 0002 124B     		ldr	r3, .L2
  37 0004 1888     		ldrh	r0, [r3]
  38 0006 FFF7FEFF 		bl	__aeabi_i2d
  39              	.LVL0:
  40 000a 114A     		ldr	r2, .L2+4
  41 000c 114B     		ldr	r3, .L2+8
  42 000e FFF7FEFF 		bl	__aeabi_dmul
  43              	.LVL1:
  44 0012 FFF7FEFF 		bl	__aeabi_d2f
  45              	.LVL2:
  46 0016 104B     		ldr	r3, .L2+12
  47 0018 1860     		str	r0, [r3]
  51:.\ADXL345.c   ****     yData.floatVal = rawDataY * SCALE_FACTOR;
  48              		.loc 1 51 0
  49 001a 104B     		ldr	r3, .L2+16
  50 001c 1888     		ldrh	r0, [r3]
  51 001e FFF7FEFF 		bl	__aeabi_i2d
  52              	.LVL3:
  53 0022 0B4A     		ldr	r2, .L2+4
  54 0024 0B4B     		ldr	r3, .L2+8
  55 0026 FFF7FEFF 		bl	__aeabi_dmul
  56              	.LVL4:
  57 002a FFF7FEFF 		bl	__aeabi_d2f
  58              	.LVL5:
  59 002e 0C4B     		ldr	r3, .L2+20
  60 0030 1860     		str	r0, [r3]
  52:.\ADXL345.c   ****     zData.floatVal = rawDataZ * SCALE_FACTOR;
  61              		.loc 1 52 0
  62 0032 0C4B     		ldr	r3, .L2+24
ARM GAS  C:\Users\Henny\AppData\Local\Temp\ccCiizHl.s 			page 3


  63 0034 1888     		ldrh	r0, [r3]
  64 0036 FFF7FEFF 		bl	__aeabi_i2d
  65              	.LVL6:
  66 003a 054A     		ldr	r2, .L2+4
  67 003c 054B     		ldr	r3, .L2+8
  68 003e FFF7FEFF 		bl	__aeabi_dmul
  69              	.LVL7:
  70 0042 FFF7FEFF 		bl	__aeabi_d2f
  71              	.LVL8:
  72 0046 084B     		ldr	r3, .L2+28
  73 0048 1860     		str	r0, [r3]
  53:.\ADXL345.c   **** }
  74              		.loc 1 53 0
  75              		@ sp needed
  76 004a 08BD     		pop	{r3, pc}
  77              	.L3:
  78              		.align	2
  79              	.L2:
  80 004c 00000000 		.word	rawDataX
  81 0050 FCA9F1D2 		.word	-755914244
  82 0054 4D62703F 		.word	1064329805
  83 0058 00000000 		.word	xData
  84 005c 00000000 		.word	rawDataY
  85 0060 00000000 		.word	yData
  86 0064 00000000 		.word	rawDataZ
  87 0068 00000000 		.word	zData
  88              		.cfi_endproc
  89              	.LFE42:
  90              		.size	scaleAccValues, .-scaleAccValues
  91              		.section	.text.readRegister,"ax",%progbits
  92              		.align	2
  93              		.global	readRegister
  94              		.code	16
  95              		.thumb_func
  96              		.type	readRegister, %function
  97              	readRegister:
  98              	.LFB48:
  54:.\ADXL345.c   **** 
  55:.\ADXL345.c   **** void setMeasurementRate(DataRate_t range) 
  56:.\ADXL345.c   **** {
  57:.\ADXL345.c   ****     writeRegister(ADXL345_REG_BW_RATE, range);
  58:.\ADXL345.c   **** }
  59:.\ADXL345.c   **** 
  60:.\ADXL345.c   **** DataRate_t getMeasurementRate() 
  61:.\ADXL345.c   **** {
  62:.\ADXL345.c   ****     return (DataRate_t) (readRegister(ADXL345_REG_BW_RATE) & 0xF0);
  63:.\ADXL345.c   **** }
  64:.\ADXL345.c   **** 
  65:.\ADXL345.c   **** void setRange(Range_t range) 
  66:.\ADXL345.c   **** {
  67:.\ADXL345.c   ****     uint8 value = getRange();
  68:.\ADXL345.c   ****     
  69:.\ADXL345.c   ****   // Update the data rate
  70:.\ADXL345.c   ****   // (&) 0b11110000 (0xF0 - Leave MSB)
  71:.\ADXL345.c   ****   // (|) 0b0000xx?? (range - Set range)
  72:.\ADXL345.c   ****   // (|) 0b00001000 (0x08 - Set Full Res)
  73:.\ADXL345.c   ****     
ARM GAS  C:\Users\Henny\AppData\Local\Temp\ccCiizHl.s 			page 4


  74:.\ADXL345.c   ****     value &= 0xF0;
  75:.\ADXL345.c   ****     value |= range;
  76:.\ADXL345.c   ****     value |= 0x08;
  77:.\ADXL345.c   ****     
  78:.\ADXL345.c   ****     writeRegister(ADXL345_REG_DATA_FORMAT, value);
  79:.\ADXL345.c   **** }
  80:.\ADXL345.c   **** 
  81:.\ADXL345.c   **** Range_t getRange() 
  82:.\ADXL345.c   **** {
  83:.\ADXL345.c   ****     return (Range_t) (readRegister(ADXL345_REG_DATA_FORMAT) & 0x03);
  84:.\ADXL345.c   **** }
  85:.\ADXL345.c   **** 
  86:.\ADXL345.c   **** void getSensorData() 
  87:.\ADXL345.c   **** {
  88:.\ADXL345.c   ****     getRawDataX();
  89:.\ADXL345.c   ****     getRawDataY();
  90:.\ADXL345.c   ****     getRawDataZ();
  91:.\ADXL345.c   ****     
  92:.\ADXL345.c   ****     scaleAccValues();
  93:.\ADXL345.c   **** }
  94:.\ADXL345.c   **** 
  95:.\ADXL345.c   **** uint8 readRegister(uint8 reg)
  96:.\ADXL345.c   **** {
  99              		.loc 1 96 0
 100              		.cfi_startproc
 101              	.LVL9:
 102 0000 00B5     		push	{lr}
 103              		.cfi_def_cfa_offset 4
 104              		.cfi_offset 14, -4
 105 0002 83B0     		sub	sp, sp, #12
 106              		.cfi_def_cfa_offset 16
 107 0004 6B46     		mov	r3, sp
 108 0006 D91D     		add	r1, r3, #7
 109 0008 0870     		strb	r0, [r1]
  97:.\ADXL345.c   ****     static uint8 readBuffer[0x01];
  98:.\ADXL345.c   ****     uint8 status = I2C_I2CMasterWriteBuf(ADXL345_ADDRESS, &reg, sizeof(reg), I2C_I2C_MODE_COMPLETE_
 110              		.loc 1 98 0
 111 000a 5320     		mov	r0, #83
 112              	.LVL10:
 113 000c 0122     		mov	r2, #1
 114 000e 0023     		mov	r3, #0
 115 0010 FFF7FEFF 		bl	I2C_I2CMasterWriteBuf
 116              	.LVL11:
 117 0014 C0B2     		uxtb	r0, r0
 118              	.LVL12:
  99:.\ADXL345.c   ****     if (status != I2C_I2C_MSTR_NO_ERROR) debug("Write operation in readRegister ended with error!")
 119              		.loc 1 99 0
 120 0016 0028     		cmp	r0, #0
 121 0018 02D0     		beq	.L6
 122              		.loc 1 99 0 is_stmt 0 discriminator 1
 123 001a 0F48     		ldr	r0, .L9
 124              	.LVL13:
 125 001c FFF7FEFF 		bl	debug
 126              	.LVL14:
 127              	.L6:
 100:.\ADXL345.c   ****     while(!(I2C_I2CMasterStatus() & I2C_I2C_MSTAT_WR_CMPLT));
 128              		.loc 1 100 0 is_stmt 1 discriminator 1
ARM GAS  C:\Users\Henny\AppData\Local\Temp\ccCiizHl.s 			page 5


 129 0020 FFF7FEFF 		bl	I2C_I2CMasterStatus
 130              	.LVL15:
 131 0024 8307     		lsl	r3, r0, #30
 132 0026 FBD5     		bpl	.L6
 101:.\ADXL345.c   ****     I2C_I2CMasterClearStatus();
 133              		.loc 1 101 0
 134 0028 FFF7FEFF 		bl	I2C_I2CMasterClearStatus
 135              	.LVL16:
 102:.\ADXL345.c   ****     status = I2C_I2CMasterReadBuf(ADXL345_ADDRESS, (uint8 *) readBuffer, sizeof(readBuffer), I2C_I2
 136              		.loc 1 102 0
 137 002c 5320     		mov	r0, #83
 138 002e 0B49     		ldr	r1, .L9+4
 139 0030 0122     		mov	r2, #1
 140 0032 0023     		mov	r3, #0
 141 0034 FFF7FEFF 		bl	I2C_I2CMasterReadBuf
 142              	.LVL17:
 143 0038 C0B2     		uxtb	r0, r0
 144              	.LVL18:
 103:.\ADXL345.c   ****     if (status != I2C_I2C_MSTR_NO_ERROR) debug("Read operation in readRegister ended with error!");
 145              		.loc 1 103 0
 146 003a 0028     		cmp	r0, #0
 147 003c 02D0     		beq	.L8
 148              		.loc 1 103 0 is_stmt 0 discriminator 1
 149 003e 0848     		ldr	r0, .L9+8
 150              	.LVL19:
 151 0040 FFF7FEFF 		bl	debug
 152              	.LVL20:
 153              	.L8:
 104:.\ADXL345.c   ****     while(!(I2C_I2CMasterStatus() & I2C_I2C_MSTAT_RD_CMPLT));
 154              		.loc 1 104 0 is_stmt 1 discriminator 1
 155 0044 FFF7FEFF 		bl	I2C_I2CMasterStatus
 156              	.LVL21:
 157 0048 C307     		lsl	r3, r0, #31
 158 004a FBD5     		bpl	.L8
 105:.\ADXL345.c   ****     I2C_I2CMasterClearStatus();
 159              		.loc 1 105 0
 160 004c FFF7FEFF 		bl	I2C_I2CMasterClearStatus
 161              	.LVL22:
 106:.\ADXL345.c   ****     return readBuffer[0x00];
 162              		.loc 1 106 0
 163 0050 024B     		ldr	r3, .L9+4
 164 0052 1878     		ldrb	r0, [r3]
 107:.\ADXL345.c   **** }
 165              		.loc 1 107 0
 166 0054 03B0     		add	sp, sp, #12
 167              	.LVL23:
 168              		@ sp needed
 169 0056 00BD     		pop	{pc}
 170              	.L10:
 171              		.align	2
 172              	.L9:
 173 0058 00000000 		.word	.LC6
 174 005c 00000000 		.word	.LANCHOR0
 175 0060 34000000 		.word	.LC9
 176              		.cfi_endproc
 177              	.LFE48:
 178              		.size	readRegister, .-readRegister
ARM GAS  C:\Users\Henny\AppData\Local\Temp\ccCiizHl.s 			page 6


 179              		.section	.text.getDeviceId,"ax",%progbits
 180              		.align	2
 181              		.global	getDeviceId
 182              		.code	16
 183              		.thumb_func
 184              		.type	getDeviceId, %function
 185              	getDeviceId:
 186              	.LFB38:
  27:.\ADXL345.c   ****     return readRegister(ADXL345_REG_DEVID);
 187              		.loc 1 27 0
 188              		.cfi_startproc
 189 0000 08B5     		push	{r3, lr}
 190              		.cfi_def_cfa_offset 8
 191              		.cfi_offset 3, -8
 192              		.cfi_offset 14, -4
  28:.\ADXL345.c   **** }
 193              		.loc 1 28 0
 194 0002 0020     		mov	r0, #0
 195 0004 FFF7FEFF 		bl	readRegister
 196              	.LVL24:
  29:.\ADXL345.c   **** 
 197              		.loc 1 29 0
 198              		@ sp needed
 199 0008 08BD     		pop	{r3, pc}
 200              		.cfi_endproc
 201              	.LFE38:
 202              		.size	getDeviceId, .-getDeviceId
 203 000a C046     		.section	.text.getMeasurementRate,"ax",%progbits
 204              		.align	2
 205              		.global	getMeasurementRate
 206              		.code	16
 207              		.thumb_func
 208              		.type	getMeasurementRate, %function
 209              	getMeasurementRate:
 210              	.LFB44:
  61:.\ADXL345.c   ****     return (DataRate_t) (readRegister(ADXL345_REG_BW_RATE) & 0xF0);
 211              		.loc 1 61 0
 212              		.cfi_startproc
 213 0000 08B5     		push	{r3, lr}
 214              		.cfi_def_cfa_offset 8
 215              		.cfi_offset 3, -8
 216              		.cfi_offset 14, -4
  62:.\ADXL345.c   **** }
 217              		.loc 1 62 0
 218 0002 2C20     		mov	r0, #44
 219 0004 FFF7FEFF 		bl	readRegister
 220              	.LVL25:
 221 0008 F023     		mov	r3, #240
 222 000a 1840     		and	r0, r3
  63:.\ADXL345.c   **** 
 223              		.loc 1 63 0
 224              		@ sp needed
 225 000c 08BD     		pop	{r3, pc}
 226              		.cfi_endproc
 227              	.LFE44:
 228              		.size	getMeasurementRate, .-getMeasurementRate
 229 000e C046     		.section	.text.getRange,"ax",%progbits
ARM GAS  C:\Users\Henny\AppData\Local\Temp\ccCiizHl.s 			page 7


 230              		.align	2
 231              		.global	getRange
 232              		.code	16
 233              		.thumb_func
 234              		.type	getRange, %function
 235              	getRange:
 236              	.LFB46:
  82:.\ADXL345.c   ****     return (Range_t) (readRegister(ADXL345_REG_DATA_FORMAT) & 0x03);
 237              		.loc 1 82 0
 238              		.cfi_startproc
 239 0000 08B5     		push	{r3, lr}
 240              		.cfi_def_cfa_offset 8
 241              		.cfi_offset 3, -8
 242              		.cfi_offset 14, -4
  83:.\ADXL345.c   **** }
 243              		.loc 1 83 0
 244 0002 3120     		mov	r0, #49
 245 0004 FFF7FEFF 		bl	readRegister
 246              	.LVL26:
 247 0008 0323     		mov	r3, #3
 248 000a 1840     		and	r0, r3
  84:.\ADXL345.c   **** 
 249              		.loc 1 84 0
 250              		@ sp needed
 251 000c 08BD     		pop	{r3, pc}
 252              		.cfi_endproc
 253              	.LFE46:
 254              		.size	getRange, .-getRange
 255 000e C046     		.section	.text.readRegister16,"ax",%progbits
 256              		.align	2
 257              		.global	readRegister16
 258              		.code	16
 259              		.thumb_func
 260              		.type	readRegister16, %function
 261              	readRegister16:
 262              	.LFB49:
 108:.\ADXL345.c   **** 
 109:.\ADXL345.c   **** long readRegister16(uint8 reg) 
 110:.\ADXL345.c   **** {
 263              		.loc 1 110 0
 264              		.cfi_startproc
 265              	.LVL27:
 266 0000 00B5     		push	{lr}
 267              		.cfi_def_cfa_offset 4
 268              		.cfi_offset 14, -4
 269 0002 83B0     		sub	sp, sp, #12
 270              		.cfi_def_cfa_offset 16
 271 0004 6B46     		mov	r3, sp
 272 0006 D91D     		add	r1, r3, #7
 273 0008 0870     		strb	r0, [r1]
 111:.\ADXL345.c   ****     static uint8 readBuffer[0x02];
 112:.\ADXL345.c   ****     uint8 status = I2C_I2CMasterWriteBuf(ADXL345_ADDRESS, &reg, sizeof(reg), I2C_I2C_MODE_COMPLETE_
 274              		.loc 1 112 0
 275 000a 5320     		mov	r0, #83
 276              	.LVL28:
 277 000c 0122     		mov	r2, #1
 278 000e 0023     		mov	r3, #0
ARM GAS  C:\Users\Henny\AppData\Local\Temp\ccCiizHl.s 			page 8


 279 0010 FFF7FEFF 		bl	I2C_I2CMasterWriteBuf
 280              	.LVL29:
 281 0014 C0B2     		uxtb	r0, r0
 282              	.LVL30:
 113:.\ADXL345.c   ****     if (status != I2C_I2C_MSTR_NO_ERROR) debug("Write operation in readRegister16 ended with error!
 283              		.loc 1 113 0
 284 0016 0028     		cmp	r0, #0
 285 0018 02D0     		beq	.L16
 286              		.loc 1 113 0 is_stmt 0 discriminator 1
 287 001a 1148     		ldr	r0, .L19
 288              	.LVL31:
 289 001c FFF7FEFF 		bl	debug
 290              	.LVL32:
 291              	.L16:
 114:.\ADXL345.c   ****     while(!(I2C_I2CMasterStatus() & I2C_I2C_MSTAT_WR_CMPLT));
 292              		.loc 1 114 0 is_stmt 1 discriminator 1
 293 0020 FFF7FEFF 		bl	I2C_I2CMasterStatus
 294              	.LVL33:
 295 0024 8307     		lsl	r3, r0, #30
 296 0026 FBD5     		bpl	.L16
 115:.\ADXL345.c   ****     I2C_I2CMasterClearStatus();
 297              		.loc 1 115 0
 298 0028 FFF7FEFF 		bl	I2C_I2CMasterClearStatus
 299              	.LVL34:
 116:.\ADXL345.c   ****     status = I2C_I2CMasterReadBuf(ADXL345_ADDRESS, (uint8 *) readBuffer, sizeof(readBuffer), I2C_I2
 300              		.loc 1 116 0
 301 002c 5320     		mov	r0, #83
 302 002e 0D49     		ldr	r1, .L19+4
 303 0030 0431     		add	r1, r1, #4
 304 0032 0222     		mov	r2, #2
 305 0034 0023     		mov	r3, #0
 306 0036 FFF7FEFF 		bl	I2C_I2CMasterReadBuf
 307              	.LVL35:
 308 003a C0B2     		uxtb	r0, r0
 309              	.LVL36:
 117:.\ADXL345.c   ****         if (status != I2C_I2C_MSTR_NO_ERROR) debug("Read operation in readRegister16 ended with err
 310              		.loc 1 117 0
 311 003c 0028     		cmp	r0, #0
 312 003e 02D0     		beq	.L18
 313              		.loc 1 117 0 is_stmt 0 discriminator 1
 314 0040 0948     		ldr	r0, .L19+8
 315              	.LVL37:
 316 0042 FFF7FEFF 		bl	debug
 317              	.LVL38:
 318              	.L18:
 118:.\ADXL345.c   ****     while(!(I2C_I2CMasterStatus() & I2C_I2C_MSTAT_RD_CMPLT));
 319              		.loc 1 118 0 is_stmt 1 discriminator 1
 320 0046 FFF7FEFF 		bl	I2C_I2CMasterStatus
 321              	.LVL39:
 322 004a C307     		lsl	r3, r0, #31
 323 004c FBD5     		bpl	.L18
 119:.\ADXL345.c   ****     I2C_I2CMasterClearStatus();
 324              		.loc 1 119 0
 325 004e FFF7FEFF 		bl	I2C_I2CMasterClearStatus
 326              	.LVL40:
 120:.\ADXL345.c   ****     return readBuffer[0x00] << 0x08 | readBuffer[0x01];   
 327              		.loc 1 120 0
ARM GAS  C:\Users\Henny\AppData\Local\Temp\ccCiizHl.s 			page 9


 328 0052 044B     		ldr	r3, .L19+4
 329 0054 1879     		ldrb	r0, [r3, #4]
 330 0056 0002     		lsl	r0, r0, #8
 331 0058 5B79     		ldrb	r3, [r3, #5]
 332 005a 1843     		orr	r0, r3
 121:.\ADXL345.c   **** }
 333              		.loc 1 121 0
 334 005c 03B0     		add	sp, sp, #12
 335              	.LVL41:
 336              		@ sp needed
 337 005e 00BD     		pop	{pc}
 338              	.L20:
 339              		.align	2
 340              	.L19:
 341 0060 68000000 		.word	.LC11
 342 0064 00000000 		.word	.LANCHOR0
 343 0068 9C000000 		.word	.LC14
 344              		.cfi_endproc
 345              	.LFE49:
 346              		.size	readRegister16, .-readRegister16
 347              		.section	.text.getRawDataX,"ax",%progbits
 348              		.align	2
 349              		.global	getRawDataX
 350              		.code	16
 351              		.thumb_func
 352              		.type	getRawDataX, %function
 353              	getRawDataX:
 354              	.LFB39:
  32:.\ADXL345.c   ****     rawDataX = readRegister16(ADXL345_REG_DATAX0);
 355              		.loc 1 32 0
 356              		.cfi_startproc
 357 0000 10B5     		push	{r4, lr}
 358              		.cfi_def_cfa_offset 8
 359              		.cfi_offset 4, -8
 360              		.cfi_offset 14, -4
  33:.\ADXL345.c   ****     debug("Raw X: ");
 361              		.loc 1 33 0
 362 0002 3220     		mov	r0, #50
 363 0004 FFF7FEFF 		bl	readRegister16
 364              	.LVL42:
 365 0008 044C     		ldr	r4, .L22
 366 000a 2080     		strh	r0, [r4]
  34:.\ADXL345.c   ****     debugInt(rawDataX);
 367              		.loc 1 34 0
 368 000c 0448     		ldr	r0, .L22+4
 369 000e FFF7FEFF 		bl	debug
 370              	.LVL43:
  35:.\ADXL345.c   **** }
 371              		.loc 1 35 0
 372 0012 2088     		ldrh	r0, [r4]
 373 0014 FFF7FEFF 		bl	debugInt
 374              	.LVL44:
  36:.\ADXL345.c   **** 
 375              		.loc 1 36 0
 376              		@ sp needed
 377 0018 10BD     		pop	{r4, pc}
 378              	.L23:
ARM GAS  C:\Users\Henny\AppData\Local\Temp\ccCiizHl.s 			page 10


 379 001a C046     		.align	2
 380              	.L22:
 381 001c 00000000 		.word	rawDataX
 382 0020 D0000000 		.word	.LC17
 383              		.cfi_endproc
 384              	.LFE39:
 385              		.size	getRawDataX, .-getRawDataX
 386              		.section	.text.getRawDataY,"ax",%progbits
 387              		.align	2
 388              		.global	getRawDataY
 389              		.code	16
 390              		.thumb_func
 391              		.type	getRawDataY, %function
 392              	getRawDataY:
 393              	.LFB40:
  39:.\ADXL345.c   ****     rawDataY = readRegister16(ADXL345_REG_DATAY0);
 394              		.loc 1 39 0
 395              		.cfi_startproc
 396 0000 08B5     		push	{r3, lr}
 397              		.cfi_def_cfa_offset 8
 398              		.cfi_offset 3, -8
 399              		.cfi_offset 14, -4
  40:.\ADXL345.c   **** }
 400              		.loc 1 40 0
 401 0002 3420     		mov	r0, #52
 402 0004 FFF7FEFF 		bl	readRegister16
 403              	.LVL45:
 404 0008 014B     		ldr	r3, .L25
 405 000a 1880     		strh	r0, [r3]
  41:.\ADXL345.c   **** 
 406              		.loc 1 41 0
 407              		@ sp needed
 408 000c 08BD     		pop	{r3, pc}
 409              	.L26:
 410 000e C046     		.align	2
 411              	.L25:
 412 0010 00000000 		.word	rawDataY
 413              		.cfi_endproc
 414              	.LFE40:
 415              		.size	getRawDataY, .-getRawDataY
 416              		.section	.text.getRawDataZ,"ax",%progbits
 417              		.align	2
 418              		.global	getRawDataZ
 419              		.code	16
 420              		.thumb_func
 421              		.type	getRawDataZ, %function
 422              	getRawDataZ:
 423              	.LFB41:
  44:.\ADXL345.c   ****     rawDataZ = readRegister16(ADXL345_REG_DATAZ0);
 424              		.loc 1 44 0
 425              		.cfi_startproc
 426 0000 08B5     		push	{r3, lr}
 427              		.cfi_def_cfa_offset 8
 428              		.cfi_offset 3, -8
 429              		.cfi_offset 14, -4
  45:.\ADXL345.c   **** }
 430              		.loc 1 45 0
ARM GAS  C:\Users\Henny\AppData\Local\Temp\ccCiizHl.s 			page 11


 431 0002 3620     		mov	r0, #54
 432 0004 FFF7FEFF 		bl	readRegister16
 433              	.LVL46:
 434 0008 014B     		ldr	r3, .L28
 435 000a 1880     		strh	r0, [r3]
  46:.\ADXL345.c   **** 
 436              		.loc 1 46 0
 437              		@ sp needed
 438 000c 08BD     		pop	{r3, pc}
 439              	.L29:
 440 000e C046     		.align	2
 441              	.L28:
 442 0010 00000000 		.word	rawDataZ
 443              		.cfi_endproc
 444              	.LFE41:
 445              		.size	getRawDataZ, .-getRawDataZ
 446              		.section	.text.getSensorData,"ax",%progbits
 447              		.align	2
 448              		.global	getSensorData
 449              		.code	16
 450              		.thumb_func
 451              		.type	getSensorData, %function
 452              	getSensorData:
 453              	.LFB47:
  87:.\ADXL345.c   ****     getRawDataX();
 454              		.loc 1 87 0
 455              		.cfi_startproc
 456 0000 08B5     		push	{r3, lr}
 457              		.cfi_def_cfa_offset 8
 458              		.cfi_offset 3, -8
 459              		.cfi_offset 14, -4
  88:.\ADXL345.c   ****     getRawDataY();
 460              		.loc 1 88 0
 461 0002 FFF7FEFF 		bl	getRawDataX
 462              	.LVL47:
  89:.\ADXL345.c   ****     getRawDataZ();
 463              		.loc 1 89 0
 464 0006 FFF7FEFF 		bl	getRawDataY
 465              	.LVL48:
  90:.\ADXL345.c   ****     
 466              		.loc 1 90 0
 467 000a FFF7FEFF 		bl	getRawDataZ
 468              	.LVL49:
  92:.\ADXL345.c   **** }
 469              		.loc 1 92 0
 470 000e FFF7FEFF 		bl	scaleAccValues
 471              	.LVL50:
  93:.\ADXL345.c   **** 
 472              		.loc 1 93 0
 473              		@ sp needed
 474 0012 08BD     		pop	{r3, pc}
 475              		.cfi_endproc
 476              	.LFE47:
 477              		.size	getSensorData, .-getSensorData
 478              		.section	.text.writeRegister,"ax",%progbits
 479              		.align	2
 480              		.global	writeRegister
ARM GAS  C:\Users\Henny\AppData\Local\Temp\ccCiizHl.s 			page 12


 481              		.code	16
 482              		.thumb_func
 483              		.type	writeRegister, %function
 484              	writeRegister:
 485              	.LFB50:
 122:.\ADXL345.c   **** 
 123:.\ADXL345.c   **** void writeRegister(uint8 reg, uint8 cmd)
 124:.\ADXL345.c   **** {
 486              		.loc 1 124 0
 487              		.cfi_startproc
 488              	.LVL51:
 489 0000 10B5     		push	{r4, lr}
 490              		.cfi_def_cfa_offset 8
 491              		.cfi_offset 4, -8
 492              		.cfi_offset 14, -4
 493 0002 82B0     		sub	sp, sp, #8
 494              		.cfi_def_cfa_offset 16
 125:.\ADXL345.c   ****     uint8 writeBuffer[0x02] = {0};
 495              		.loc 1 125 0
 496 0004 01AB     		add	r3, sp, #4
 126:.\ADXL345.c   ****     writeBuffer[0] = reg;
 497              		.loc 1 126 0
 498 0006 1870     		strb	r0, [r3]
 127:.\ADXL345.c   ****     writeBuffer[1] = cmd;
 499              		.loc 1 127 0
 500 0008 5970     		strb	r1, [r3, #1]
 128:.\ADXL345.c   ****     
 129:.\ADXL345.c   ****     uint8 status = I2C_I2CMasterWriteBuf(ADXL345_ADDRESS, (uint8 *) writeBuffer, sizeof(writeBuffer
 501              		.loc 1 129 0
 502 000a 5320     		mov	r0, #83
 503              	.LVL52:
 504 000c 191C     		mov	r1, r3
 505              	.LVL53:
 506 000e 0222     		mov	r2, #2
 507 0010 0023     		mov	r3, #0
 508              	.LVL54:
 509 0012 FFF7FEFF 		bl	I2C_I2CMasterWriteBuf
 510              	.LVL55:
 511 0016 C4B2     		uxtb	r4, r0
 512              	.LVL56:
 513              	.L32:
 130:.\ADXL345.c   ****     while(!(I2C_I2CMasterStatus() & I2C_I2C_MSTAT_WR_CMPLT));
 514              		.loc 1 130 0 discriminator 1
 515 0018 FFF7FEFF 		bl	I2C_I2CMasterStatus
 516              	.LVL57:
 517 001c 8307     		lsl	r3, r0, #30
 518 001e FBD5     		bpl	.L32
 131:.\ADXL345.c   ****     if (status != I2C_I2C_MSTR_NO_ERROR) debug("Write operation ended with error!");
 519              		.loc 1 131 0
 520 0020 002C     		cmp	r4, #0
 521 0022 02D0     		beq	.L33
 522              		.loc 1 131 0 is_stmt 0 discriminator 1
 523 0024 0348     		ldr	r0, .L34
 524 0026 FFF7FEFF 		bl	debug
 525              	.LVL58:
 526              	.L33:
 132:.\ADXL345.c   ****     I2C_I2CMasterClearStatus();
ARM GAS  C:\Users\Henny\AppData\Local\Temp\ccCiizHl.s 			page 13


 527              		.loc 1 132 0 is_stmt 1
 528 002a FFF7FEFF 		bl	I2C_I2CMasterClearStatus
 529              	.LVL59:
 133:.\ADXL345.c   ****     
 134:.\ADXL345.c   **** }
 530              		.loc 1 134 0
 531 002e 02B0     		add	sp, sp, #8
 532              		@ sp needed
 533              	.LVL60:
 534 0030 10BD     		pop	{r4, pc}
 535              	.L35:
 536 0032 C046     		.align	2
 537              	.L34:
 538 0034 D8000000 		.word	.LC21
 539              		.cfi_endproc
 540              	.LFE50:
 541              		.size	writeRegister, .-writeRegister
 542              		.section	.text.startAccConnection,"ax",%progbits
 543              		.align	2
 544              		.global	startAccConnection
 545              		.code	16
 546              		.thumb_func
 547              		.type	startAccConnection, %function
 548              	startAccConnection:
 549              	.LFB37:
  18:.\ADXL345.c   ****     CyDelay(50); // wait for initialization
 550              		.loc 1 18 0
 551              		.cfi_startproc
 552 0000 08B5     		push	{r3, lr}
 553              		.cfi_def_cfa_offset 8
 554              		.cfi_offset 3, -8
 555              		.cfi_offset 14, -4
  19:.\ADXL345.c   ****     writeRegister(ADXL345_REG_POWER_CTL, 0x08);  
 556              		.loc 1 19 0
 557 0002 3220     		mov	r0, #50
 558 0004 FFF7FEFF 		bl	CyDelay
 559              	.LVL61:
  20:.\ADXL345.c   ****     debug("Started measurement mode");
 560              		.loc 1 20 0
 561 0008 2D20     		mov	r0, #45
 562 000a 0821     		mov	r1, #8
 563 000c FFF7FEFF 		bl	writeRegister
 564              	.LVL62:
  21:.\ADXL345.c   ****     
 565              		.loc 1 21 0
 566 0010 0248     		ldr	r0, .L37
 567 0012 FFF7FEFF 		bl	debug
 568              	.LVL63:
  24:.\ADXL345.c   **** 
 569              		.loc 1 24 0
 570 0016 0120     		mov	r0, #1
 571              		@ sp needed
 572 0018 08BD     		pop	{r3, pc}
 573              	.L38:
 574 001a C046     		.align	2
 575              	.L37:
 576 001c FC000000 		.word	.LC23
ARM GAS  C:\Users\Henny\AppData\Local\Temp\ccCiizHl.s 			page 14


 577              		.cfi_endproc
 578              	.LFE37:
 579              		.size	startAccConnection, .-startAccConnection
 580              		.section	.text.setMeasurementRate,"ax",%progbits
 581              		.align	2
 582              		.global	setMeasurementRate
 583              		.code	16
 584              		.thumb_func
 585              		.type	setMeasurementRate, %function
 586              	setMeasurementRate:
 587              	.LFB43:
  56:.\ADXL345.c   ****     writeRegister(ADXL345_REG_BW_RATE, range);
 588              		.loc 1 56 0
 589              		.cfi_startproc
 590              	.LVL64:
 591 0000 08B5     		push	{r3, lr}
 592              		.cfi_def_cfa_offset 8
 593              		.cfi_offset 3, -8
 594              		.cfi_offset 14, -4
 595 0002 011C     		mov	r1, r0
  57:.\ADXL345.c   **** }
 596              		.loc 1 57 0
 597 0004 2C20     		mov	r0, #44
 598              	.LVL65:
 599 0006 FFF7FEFF 		bl	writeRegister
 600              	.LVL66:
  58:.\ADXL345.c   **** 
 601              		.loc 1 58 0
 602              		@ sp needed
 603 000a 08BD     		pop	{r3, pc}
 604              		.cfi_endproc
 605              	.LFE43:
 606              		.size	setMeasurementRate, .-setMeasurementRate
 607              		.section	.text.setRange,"ax",%progbits
 608              		.align	2
 609              		.global	setRange
 610              		.code	16
 611              		.thumb_func
 612              		.type	setRange, %function
 613              	setRange:
 614              	.LFB45:
  66:.\ADXL345.c   ****     uint8 value = getRange();
 615              		.loc 1 66 0
 616              		.cfi_startproc
 617              	.LVL67:
 618 0000 10B5     		push	{r4, lr}
 619              		.cfi_def_cfa_offset 8
 620              		.cfi_offset 4, -8
 621              		.cfi_offset 14, -4
 622 0002 041C     		mov	r4, r0
  67:.\ADXL345.c   ****     
 623              		.loc 1 67 0
 624 0004 FFF7FEFF 		bl	getRange
 625              	.LVL68:
  74:.\ADXL345.c   ****     value |= range;
 626              		.loc 1 74 0
 627 0008 F023     		mov	r3, #240
ARM GAS  C:\Users\Henny\AppData\Local\Temp\ccCiizHl.s 			page 15


 628 000a 011C     		mov	r1, r0
 629 000c 1940     		and	r1, r3
 630              	.LVL69:
  75:.\ADXL345.c   ****     value |= 0x08;
 631              		.loc 1 75 0
 632 000e 2143     		orr	r1, r4
 633              	.LVL70:
  76:.\ADXL345.c   ****     
 634              		.loc 1 76 0
 635 0010 E83B     		sub	r3, r3, #232
 636 0012 1943     		orr	r1, r3
 637              	.LVL71:
  78:.\ADXL345.c   **** }
 638              		.loc 1 78 0
 639 0014 3120     		mov	r0, #49
 640 0016 FFF7FEFF 		bl	writeRegister
 641              	.LVL72:
  79:.\ADXL345.c   **** 
 642              		.loc 1 79 0
 643              		@ sp needed
 644 001a 10BD     		pop	{r4, pc}
 645              		.cfi_endproc
 646              	.LFE45:
 647              		.size	setRange, .-setRange
 648              		.comm	rawDataZ,2,2
 649              		.comm	rawDataY,2,2
 650              		.comm	rawDataX,2,2
 651              		.comm	zData,4,4
 652              		.comm	yData,4,4
 653              		.comm	xData,4,4
 654              		.comm	bleConnected,4,4
 655              		.comm	notifyOn,4,4
 656              		.section	.rodata.str1.4,"aMS",%progbits,1
 657              		.align	2
 658              	.LC6:
 659 0000 57726974 		.ascii	"Write operation in readRegister ended with error!\000"
 659      65206F70 
 659      65726174 
 659      696F6E20 
 659      696E2072 
 660 0032 0000     		.space	2
 661              	.LC9:
 662 0034 52656164 		.ascii	"Read operation in readRegister ended with error!\000"
 662      206F7065 
 662      72617469 
 662      6F6E2069 
 662      6E207265 
 663 0065 000000   		.space	3
 664              	.LC11:
 665 0068 57726974 		.ascii	"Write operation in readRegister16 ended with error!"
 665      65206F70 
 665      65726174 
 665      696F6E20 
 665      696E2072 
 666 009b 00       		.ascii	"\000"
 667              	.LC14:
 668 009c 52656164 		.ascii	"Read operation in readRegister16 ended with error!\000"
ARM GAS  C:\Users\Henny\AppData\Local\Temp\ccCiizHl.s 			page 16


 668      206F7065 
 668      72617469 
 668      6F6E2069 
 668      6E207265 
 669 00cf 00       		.space	1
 670              	.LC17:
 671 00d0 52617720 		.ascii	"Raw X: \000"
 671      583A2000 
 672              	.LC21:
 673 00d8 57726974 		.ascii	"Write operation ended with error!\000"
 673      65206F70 
 673      65726174 
 673      696F6E20 
 673      656E6465 
 674 00fa 0000     		.space	2
 675              	.LC23:
 676 00fc 53746172 		.ascii	"Started measurement mode\000"
 676      74656420 
 676      6D656173 
 676      7572656D 
 676      656E7420 
 677 0115 000000   		.bss
 678              		.align	2
 679              		.set	.LANCHOR0,. + 0
 680              		.type	readBuffer.7898, %object
 681              		.size	readBuffer.7898, 1
 682              	readBuffer.7898:
 683 0000 00       		.space	1
 684 0001 000000   		.space	3
 685              		.type	readBuffer.7909, %object
 686              		.size	readBuffer.7909, 2
 687              	readBuffer.7909:
 688 0004 0000     		.space	2
 689 0006 0000     		.text
 690              	.Letext0:
 691              		.file 2 "Generated_Source\\PSoC4/cytypes.h"
 692              		.file 3 "./common.h"
 693              		.file 4 "Generated_Source\\PSoC4/BLE_Stack.h"
 694              		.file 5 "./ADXL345.h"
 695              		.file 6 "Generated_Source\\PSoC4/I2C_I2C.h"
 696              		.file 7 "Generated_Source\\PSoC4/CyLib.h"