ARM GAS  C:\Users\Henny\AppData\Local\Temp\ccxALZU6.s 			page 1


   1              		.cpu cortex-m0
   2              		.fpu softvfp
   3              		.eabi_attribute 20, 1
   4              		.eabi_attribute 21, 1
   5              		.eabi_attribute 23, 3
   6              		.eabi_attribute 24, 1
   7              		.eabi_attribute 25, 1
   8              		.eabi_attribute 26, 1
   9              		.eabi_attribute 30, 1
  10              		.eabi_attribute 34, 0
  11              		.eabi_attribute 18, 4
  12              		.code	16
  13              		.file	"BLEControl.c"
  14              		.text
  15              	.Ltext0:
  16              		.cfi_sections	.debug_frame
  17              		.section	.text.Stack_Handler,"ax",%progbits
  18              		.align	2
  19              		.global	Stack_Handler
  20              		.code	16
  21              		.thumb_func
  22              		.type	Stack_Handler, %function
  23              	Stack_Handler:
  24              	.LFB37:
  25              		.file 1 ".\\BLEControl.c"
   1:.\BLEControl.c **** /* ========================================
   2:.\BLEControl.c ****  *
   3:.\BLEControl.c ****  * Copyright YOUR COMPANY, THE YEAR
   4:.\BLEControl.c ****  * All Rights Reserved
   5:.\BLEControl.c ****  * UNPUBLISHED, LICENSED SOFTWARE.
   6:.\BLEControl.c ****  *
   7:.\BLEControl.c ****  * CONFIDENTIAL AND PROPRIETARY INFORMATION
   8:.\BLEControl.c ****  * WHICH IS THE PROPERTY OF your company.
   9:.\BLEControl.c ****  *
  10:.\BLEControl.c ****  * ========================================
  11:.\BLEControl.c **** */
  12:.\BLEControl.c **** #include <project.h>
  13:.\BLEControl.c **** #include <common.h>
  14:.\BLEControl.c **** 
  15:.\BLEControl.c **** extern union CharValue xData;
  16:.\BLEControl.c **** extern union CharValue yData;
  17:.\BLEControl.c **** extern union CharValue zData;
  18:.\BLEControl.c **** 
  19:.\BLEControl.c **** uint8 BLEStackStatus = FALSE;
  20:.\BLEControl.c **** 
  21:.\BLEControl.c **** void convertSensorDataToArrays();
  22:.\BLEControl.c **** 
  23:.\BLEControl.c **** void Stack_Handler( uint32 eventCode, void *eventParam )
  24:.\BLEControl.c **** {
  26              		.loc 1 24 0
  27              		.cfi_startproc
  28              	.LVL0:
  29 0000 10B5     		push	{r4, lr}
  30              		.cfi_def_cfa_offset 8
  31              		.cfi_offset 4, -8
  32              		.cfi_offset 14, -4
  33 0002 0C1C     		mov	r4, r1
ARM GAS  C:\Users\Henny\AppData\Local\Temp\ccxALZU6.s 			page 2


  25:.\BLEControl.c ****     CYBLE_GATTS_WRITE_REQ_PARAM_T *wrReq;
  26:.\BLEControl.c ****     
  27:.\BLEControl.c ****     switch ( eventCode )
  34              		.loc 1 27 0
  35 0004 2628     		cmp	r0, #38
  36 0006 16D0     		beq	.L3
  37 0008 04D8     		bhi	.L4
  38 000a 0128     		cmp	r0, #1
  39 000c 08D0     		beq	.L5
  40 000e 0528     		cmp	r0, #5
  41 0010 0DD0     		beq	.L6
  42 0012 63E0     		b	.L1
  43              	.L4:
  44 0014 2828     		cmp	r0, #40
  45 0016 23D0     		beq	.L7
  46 0018 15D3     		bcc	.L8
  47 001a 4C28     		cmp	r0, #76
  48 001c 30D0     		beq	.L9
  49 001e 5DE0     		b	.L1
  50              	.L5:
  28:.\BLEControl.c ****     {
  29:.\BLEControl.c ****         //** GAP **
  30:.\BLEControl.c ****         case CYBLE_EVT_STACK_ON:
  31:.\BLEControl.c ****             CyBle_GappStartAdvertisement( CYBLE_ADVERTISING_FAST );
  51              		.loc 1 31 0
  52 0020 0020     		mov	r0, #0
  53              	.LVL1:
  54 0022 FFF7FEFF 		bl	CyBle_GappStartAdvertisement
  55              	.LVL2:
  32:.\BLEControl.c ****             AdvLED_Write(LED_ON);
  56              		.loc 1 32 0
  57 0026 0020     		mov	r0, #0
  58 0028 FFF7FEFF 		bl	AdvLED_Write
  59              	.LVL3:
  33:.\BLEControl.c ****             break;
  60              		.loc 1 33 0
  61 002c 56E0     		b	.L1
  62              	.LVL4:
  63              	.L6:
  34:.\BLEControl.c ****         case CYBLE_EVT_STACK_BUSY_STATUS: //This event is generated when the internal stack buffer 
  35:.\BLEControl.c ****             BLEStackStatus = *(uint8*)eventParam; //Extract the BLE stack status
  64              		.loc 1 35 0
  65 002e 0A78     		ldrb	r2, [r1]
  66 0030 2B4B     		ldr	r3, .L13
  67 0032 1A70     		strb	r2, [r3]
  36:.\BLEControl.c ****             break;
  68              		.loc 1 36 0
  69 0034 52E0     		b	.L1
  70              	.L3:
  37:.\BLEControl.c ****         case CYBLE_EVT_GAPP_ADVERTISEMENT_START_STOP:
  38:.\BLEControl.c ****             if(CYBLE_STATE_DISCONNECTED == CyBle_GetState())
  71              		.loc 1 38 0
  72 0036 2B4B     		ldr	r3, .L13+4
  73 0038 1B78     		ldrb	r3, [r3]
  74 003a 042B     		cmp	r3, #4
  75 003c 4ED1     		bne	.L1
  39:.\BLEControl.c ****                 AdvLED_Write(LED_ON);
ARM GAS  C:\Users\Henny\AppData\Local\Temp\ccxALZU6.s 			page 3


  76              		.loc 1 39 0
  77 003e 0020     		mov	r0, #0
  78              	.LVL5:
  79 0040 FFF7FEFF 		bl	AdvLED_Write
  80              	.LVL6:
  81 0044 4AE0     		b	.L1
  82              	.LVL7:
  83              	.L8:
  40:.\BLEControl.c ****             break;
  41:.\BLEControl.c ****         
  42:.\BLEControl.c ****         case CYBLE_EVT_GAP_DEVICE_CONNECTED:
  43:.\BLEControl.c ****             debug("Connected to device");
  84              		.loc 1 43 0
  85 0046 2848     		ldr	r0, .L13+8
  86              	.LVL8:
  87 0048 FFF7FEFF 		bl	debug
  88              	.LVL9:
  44:.\BLEControl.c ****             bleConnected = 1;
  89              		.loc 1 44 0
  90 004c 0122     		mov	r2, #1
  91 004e 274B     		ldr	r3, .L13+12
  92 0050 1A60     		str	r2, [r3]
  45:.\BLEControl.c ****             AdvLED_Write(LED_OFF);
  93              		.loc 1 45 0
  94 0052 0120     		mov	r0, #1
  95 0054 FFF7FEFF 		bl	AdvLED_Write
  96              	.LVL10:
  46:.\BLEControl.c ****             ConnectedLED_Write(LED_ON);
  97              		.loc 1 46 0
  98 0058 0020     		mov	r0, #0
  99 005a FFF7FEFF 		bl	ConnectedLED_Write
 100              	.LVL11:
  47:.\BLEControl.c ****             break;
 101              		.loc 1 47 0
 102 005e 3DE0     		b	.L1
 103              	.LVL12:
 104              	.L7:
  48:.\BLEControl.c ****             
  49:.\BLEControl.c ****         case CYBLE_EVT_GAP_DEVICE_DISCONNECTED:
  50:.\BLEControl.c ****             debug("Disconnected from device");
 105              		.loc 1 50 0
 106 0060 2348     		ldr	r0, .L13+16
 107              	.LVL13:
 108 0062 FFF7FEFF 		bl	debug
 109              	.LVL14:
  51:.\BLEControl.c ****             bleConnected = 0;
 110              		.loc 1 51 0
 111 0066 0022     		mov	r2, #0
 112 0068 204B     		ldr	r3, .L13+12
 113 006a 1A60     		str	r2, [r3]
  52:.\BLEControl.c ****             ConnectedLED_Write(LED_OFF);
 114              		.loc 1 52 0
 115 006c 0120     		mov	r0, #1
 116 006e FFF7FEFF 		bl	ConnectedLED_Write
 117              	.LVL15:
  53:.\BLEControl.c ****             AdvLED_Write(LED_ON);
 118              		.loc 1 53 0
ARM GAS  C:\Users\Henny\AppData\Local\Temp\ccxALZU6.s 			page 4


 119 0072 0020     		mov	r0, #0
 120 0074 FFF7FEFF 		bl	AdvLED_Write
 121              	.LVL16:
  54:.\BLEControl.c ****             CyBle_GappStartAdvertisement( CYBLE_ADVERTISING_FAST );
 122              		.loc 1 54 0
 123 0078 0020     		mov	r0, #0
 124 007a FFF7FEFF 		bl	CyBle_GappStartAdvertisement
 125              	.LVL17:
  55:.\BLEControl.c ****             break;
 126              		.loc 1 55 0
 127 007e 2DE0     		b	.L1
 128              	.LVL18:
 129              	.L9:
  56:.\BLEControl.c ****        
  57:.\BLEControl.c ****             
  58:.\BLEControl.c ****         //** GATT **
  59:.\BLEControl.c ****         case CYBLE_EVT_GATT_CONNECT_IND:
  60:.\BLEControl.c ****             break;
  61:.\BLEControl.c ****             
  62:.\BLEControl.c ****         case CYBLE_EVT_GATTS_WRITE_REQ:
  63:.\BLEControl.c ****             wrReq = (CYBLE_GATTS_WRITE_REQ_PARAM_T *) eventParam;
  64:.\BLEControl.c ****             if ( wrReq->handleValPair.attrHandle == CYBLE_SENSOR_X_SENSORCCCD_DESC_HANDLE )
 130              		.loc 1 64 0
 131 0080 8B89     		ldrh	r3, [r1, #12]
 132 0082 112B     		cmp	r3, #17
 133 0084 09D1     		bne	.L10
  65:.\BLEControl.c ****             {
  66:.\BLEControl.c ****                 CyBle_GattsWriteAttributeValue( &wrReq->handleValPair, 0, &cyBle_connHandle, CYBLE_
 134              		.loc 1 66 0
 135 0086 081D     		add	r0, r1, #4
 136              	.LVL19:
 137 0088 0021     		mov	r1, #0
 138              	.LVL20:
 139 008a 1A4A     		ldr	r2, .L13+20
 140 008c 0023     		mov	r3, #0
 141 008e FFF7FEFF 		bl	CyBle_GattsWriteAttributeValue
 142              	.LVL21:
  67:.\BLEControl.c ****                 notifyOn = wrReq->handleValPair.value.val[0];
 143              		.loc 1 67 0
 144 0092 6368     		ldr	r3, [r4, #4]
 145 0094 1A78     		ldrb	r2, [r3]
 146 0096 184B     		ldr	r3, .L13+24
 147 0098 1A60     		str	r2, [r3]
 148              	.L10:
  68:.\BLEControl.c ****             }
  69:.\BLEControl.c ****             if ( wrReq->handleValPair.attrHandle == CYBLE_SENSOR_Y_SENSORCCCD_DESC_HANDLE )
 149              		.loc 1 69 0
 150 009a A389     		ldrh	r3, [r4, #12]
 151 009c 142B     		cmp	r3, #20
 152 009e 09D1     		bne	.L11
  70:.\BLEControl.c ****             {
  71:.\BLEControl.c ****                 CyBle_GattsWriteAttributeValue( &wrReq->handleValPair, 0, &cyBle_connHandle, CYBLE_
 153              		.loc 1 71 0
 154 00a0 201D     		add	r0, r4, #4
 155 00a2 0021     		mov	r1, #0
 156 00a4 134A     		ldr	r2, .L13+20
 157 00a6 0023     		mov	r3, #0
ARM GAS  C:\Users\Henny\AppData\Local\Temp\ccxALZU6.s 			page 5


 158 00a8 FFF7FEFF 		bl	CyBle_GattsWriteAttributeValue
 159              	.LVL22:
  72:.\BLEControl.c ****                 notifyOn = wrReq->handleValPair.value.val[0];
 160              		.loc 1 72 0
 161 00ac 6368     		ldr	r3, [r4, #4]
 162 00ae 1A78     		ldrb	r2, [r3]
 163 00b0 114B     		ldr	r3, .L13+24
 164 00b2 1A60     		str	r2, [r3]
 165              	.L11:
  73:.\BLEControl.c ****             }
  74:.\BLEControl.c ****             if ( wrReq->handleValPair.attrHandle == CYBLE_SENSOR_Z_SENSORCCCD_DESC_HANDLE )
 166              		.loc 1 74 0
 167 00b4 A389     		ldrh	r3, [r4, #12]
 168 00b6 172B     		cmp	r3, #23
 169 00b8 09D1     		bne	.L12
  75:.\BLEControl.c ****             {
  76:.\BLEControl.c ****                 CyBle_GattsWriteAttributeValue( &wrReq->handleValPair, 0, &cyBle_connHandle, CYBLE_
 170              		.loc 1 76 0
 171 00ba 201D     		add	r0, r4, #4
 172 00bc 0021     		mov	r1, #0
 173 00be 0D4A     		ldr	r2, .L13+20
 174 00c0 0023     		mov	r3, #0
 175 00c2 FFF7FEFF 		bl	CyBle_GattsWriteAttributeValue
 176              	.LVL23:
  77:.\BLEControl.c ****                 notifyOn = wrReq->handleValPair.value.val[0];
 177              		.loc 1 77 0
 178 00c6 6368     		ldr	r3, [r4, #4]
 179 00c8 1A78     		ldrb	r2, [r3]
 180 00ca 0B4B     		ldr	r3, .L13+24
 181 00cc 1A60     		str	r2, [r3]
 182              	.L12:
  78:.\BLEControl.c ****             }
  79:.\BLEControl.c ****             CyBle_GattsWriteRsp( cyBle_connHandle );
 183              		.loc 1 79 0
 184 00ce 094A     		ldr	r2, .L13+20
 185 00d0 1378     		ldrb	r3, [r2]
 186 00d2 5078     		ldrb	r0, [r2, #1]
 187 00d4 0002     		lsl	r0, r0, #8
 188 00d6 1843     		orr	r0, r3
 189 00d8 FFF7FEFF 		bl	CyBle_GattsWriteRsp
 190              	.LVL24:
 191              	.L1:
  80:.\BLEControl.c ****             break;
  81:.\BLEControl.c ****            
  82:.\BLEControl.c ****         default:
  83:.\BLEControl.c ****             break;
  84:.\BLEControl.c ****            
  85:.\BLEControl.c ****             
  86:.\BLEControl.c ****     }
  87:.\BLEControl.c **** }
 192              		.loc 1 87 0
 193              		@ sp needed
 194              	.LVL25:
 195 00dc 10BD     		pop	{r4, pc}
 196              	.L14:
 197 00de C046     		.align	2
 198              	.L13:
ARM GAS  C:\Users\Henny\AppData\Local\Temp\ccxALZU6.s 			page 6


 199 00e0 00000000 		.word	.LANCHOR0
 200 00e4 00000000 		.word	cyBle_state
 201 00e8 00000000 		.word	.LC2
 202 00ec 00000000 		.word	bleConnected
 203 00f0 14000000 		.word	.LC5
 204 00f4 00000000 		.word	cyBle_connHandle
 205 00f8 00000000 		.word	notifyOn
 206              		.cfi_endproc
 207              	.LFE37:
 208              		.size	Stack_Handler, .-Stack_Handler
 209              		.section	.text.sendNotifications,"ax",%progbits
 210              		.align	2
 211              		.global	sendNotifications
 212              		.code	16
 213              		.thumb_func
 214              		.type	sendNotifications, %function
 215              	sendNotifications:
 216              	.LFB38:
  88:.\BLEControl.c **** 
  89:.\BLEControl.c **** void sendNotifications()
  90:.\BLEControl.c **** {
 217              		.loc 1 90 0
 218              		.cfi_startproc
 219 0000 10B5     		push	{r4, lr}
 220              		.cfi_def_cfa_offset 8
 221              		.cfi_offset 4, -8
 222              		.cfi_offset 14, -4
 223 0002 8AB0     		sub	sp, sp, #40
 224              		.cfi_def_cfa_offset 48
  91:.\BLEControl.c ****     
  92:.\BLEControl.c ****     // X data handle
  93:.\BLEControl.c ****     CYBLE_GATTS_HANDLE_VALUE_NTF_T xDataHandle;
  94:.\BLEControl.c ****     xDataHandle.attrHandle = CYBLE_SENSOR_X_CHAR_HANDLE;
 225              		.loc 1 94 0
 226 0004 07A8     		add	r0, sp, #28
 227 0006 1023     		mov	r3, #16
 228 0008 0381     		strh	r3, [r0, #8]
  95:.\BLEControl.c ****     xDataHandle.value.len = sizeof(xData);
 229              		.loc 1 95 0
 230 000a 0C3B     		sub	r3, r3, #12
 231 000c 8380     		strh	r3, [r0, #4]
  96:.\BLEControl.c ****     xDataHandle.value.val = (uint8 *)&xData;               
 232              		.loc 1 96 0
 233 000e 274B     		ldr	r3, .L22
 234 0010 0793     		str	r3, [sp, #28]
  97:.\BLEControl.c ****     CyBle_GattsWriteAttributeValue( &xDataHandle, 0u, &cyBle_connHandle, 0 );
 235              		.loc 1 97 0
 236 0012 0021     		mov	r1, #0
 237 0014 264A     		ldr	r2, .L22+4
 238 0016 0023     		mov	r3, #0
 239 0018 FFF7FEFF 		bl	CyBle_GattsWriteAttributeValue
 240              	.LVL26:
  98:.\BLEControl.c ****     while (BLEStackStatus != CYBLE_STACK_STATE_FREE) {CyBle_ProcessEvents();}
 241              		.loc 1 98 0
 242 001c 01E0     		b	.L16
 243              	.L17:
 244              		.loc 1 98 0 is_stmt 0 discriminator 2
ARM GAS  C:\Users\Henny\AppData\Local\Temp\ccxALZU6.s 			page 7


 245 001e FFF7FEFF 		bl	CyBle_ProcessEvents
 246              	.LVL27:
 247              	.L16:
 248              		.loc 1 98 0 discriminator 1
 249 0022 244B     		ldr	r3, .L22+8
 250 0024 1B78     		ldrb	r3, [r3]
 251 0026 002B     		cmp	r3, #0
 252 0028 F9D1     		bne	.L17
  99:.\BLEControl.c ****     CyBle_GattsNotification( cyBle_connHandle, &xDataHandle );
 253              		.loc 1 99 0 is_stmt 1
 254 002a 214C     		ldr	r4, .L22+4
 255 002c 2378     		ldrb	r3, [r4]
 256 002e 6078     		ldrb	r0, [r4, #1]
 257 0030 0002     		lsl	r0, r0, #8
 258 0032 1843     		orr	r0, r3
 259 0034 07A9     		add	r1, sp, #28
 260 0036 FFF7FEFF 		bl	CyBle_GattsNotification
 261              	.LVL28:
 100:.\BLEControl.c ****    
 101:.\BLEControl.c ****     
 102:.\BLEControl.c ****     // Y data handle
 103:.\BLEControl.c ****     CYBLE_GATTS_HANDLE_VALUE_NTF_T yDataHandle;
 104:.\BLEControl.c ****     yDataHandle.attrHandle = CYBLE_SENSOR_Y_CHAR_HANDLE;
 262              		.loc 1 104 0
 263 003a 04A8     		add	r0, sp, #16
 264 003c 1323     		mov	r3, #19
 265 003e 0381     		strh	r3, [r0, #8]
 105:.\BLEControl.c ****     yDataHandle.value.len = sizeof(yData);
 266              		.loc 1 105 0
 267 0040 0F3B     		sub	r3, r3, #15
 268 0042 8380     		strh	r3, [r0, #4]
 106:.\BLEControl.c ****     yDataHandle.value.val = (uint8 *)&yData;               
 269              		.loc 1 106 0
 270 0044 1C4B     		ldr	r3, .L22+12
 271 0046 0493     		str	r3, [sp, #16]
 107:.\BLEControl.c ****     CyBle_GattsWriteAttributeValue( &yDataHandle, 0u, &cyBle_connHandle, 0 ); 
 272              		.loc 1 107 0
 273 0048 0021     		mov	r1, #0
 274 004a 221C     		mov	r2, r4
 275 004c 0023     		mov	r3, #0
 276 004e FFF7FEFF 		bl	CyBle_GattsWriteAttributeValue
 277              	.LVL29:
 108:.\BLEControl.c ****     while (BLEStackStatus != CYBLE_STACK_STATE_FREE) {CyBle_ProcessEvents();}
 278              		.loc 1 108 0
 279 0052 01E0     		b	.L18
 280              	.L19:
 281              		.loc 1 108 0 is_stmt 0 discriminator 2
 282 0054 FFF7FEFF 		bl	CyBle_ProcessEvents
 283              	.LVL30:
 284              	.L18:
 285              		.loc 1 108 0 discriminator 1
 286 0058 164B     		ldr	r3, .L22+8
 287 005a 1B78     		ldrb	r3, [r3]
 288 005c 002B     		cmp	r3, #0
 289 005e F9D1     		bne	.L19
 109:.\BLEControl.c ****     CyBle_GattsNotification( cyBle_connHandle, &yDataHandle );
 290              		.loc 1 109 0 is_stmt 1
ARM GAS  C:\Users\Henny\AppData\Local\Temp\ccxALZU6.s 			page 8


 291 0060 134C     		ldr	r4, .L22+4
 292 0062 2378     		ldrb	r3, [r4]
 293 0064 6078     		ldrb	r0, [r4, #1]
 294 0066 0002     		lsl	r0, r0, #8
 295 0068 1843     		orr	r0, r3
 296 006a 04A9     		add	r1, sp, #16
 297 006c FFF7FEFF 		bl	CyBle_GattsNotification
 298              	.LVL31:
 110:.\BLEControl.c ****     
 111:.\BLEControl.c ****     // Z data handle
 112:.\BLEControl.c ****     CYBLE_GATTS_HANDLE_VALUE_NTF_T zDataHandle;
 113:.\BLEControl.c ****     zDataHandle.attrHandle = CYBLE_SENSOR_Z_CHAR_HANDLE;;
 299              		.loc 1 113 0
 300 0070 01A8     		add	r0, sp, #4
 301 0072 1623     		mov	r3, #22
 302 0074 0381     		strh	r3, [r0, #8]
 114:.\BLEControl.c ****     zDataHandle.value.len = sizeof(zData);
 303              		.loc 1 114 0
 304 0076 123B     		sub	r3, r3, #18
 305 0078 8380     		strh	r3, [r0, #4]
 115:.\BLEControl.c ****     zDataHandle.value.val = (uint8 *)&zData;              
 306              		.loc 1 115 0
 307 007a 104B     		ldr	r3, .L22+16
 308 007c 0193     		str	r3, [sp, #4]
 116:.\BLEControl.c ****     CyBle_GattsWriteAttributeValue( &zDataHandle, 0u, &cyBle_connHandle, 0 );
 309              		.loc 1 116 0
 310 007e 0021     		mov	r1, #0
 311 0080 221C     		mov	r2, r4
 312 0082 0023     		mov	r3, #0
 313 0084 FFF7FEFF 		bl	CyBle_GattsWriteAttributeValue
 314              	.LVL32:
 117:.\BLEControl.c ****     while (BLEStackStatus != CYBLE_STACK_STATE_FREE) {CyBle_ProcessEvents();}
 315              		.loc 1 117 0
 316 0088 01E0     		b	.L20
 317              	.L21:
 318              		.loc 1 117 0 is_stmt 0 discriminator 2
 319 008a FFF7FEFF 		bl	CyBle_ProcessEvents
 320              	.LVL33:
 321              	.L20:
 322              		.loc 1 117 0 discriminator 1
 323 008e 094B     		ldr	r3, .L22+8
 324 0090 1B78     		ldrb	r3, [r3]
 325 0092 002B     		cmp	r3, #0
 326 0094 F9D1     		bne	.L21
 118:.\BLEControl.c ****     CyBle_GattsNotification( cyBle_connHandle, &zDataHandle );
 327              		.loc 1 118 0 is_stmt 1
 328 0096 064A     		ldr	r2, .L22+4
 329 0098 1378     		ldrb	r3, [r2]
 330 009a 5078     		ldrb	r0, [r2, #1]
 331 009c 0002     		lsl	r0, r0, #8
 332 009e 1843     		orr	r0, r3
 333 00a0 01A9     		add	r1, sp, #4
 334 00a2 FFF7FEFF 		bl	CyBle_GattsNotification
 335              	.LVL34:
 119:.\BLEControl.c **** }
 336              		.loc 1 119 0
 337 00a6 0AB0     		add	sp, sp, #40
ARM GAS  C:\Users\Henny\AppData\Local\Temp\ccxALZU6.s 			page 9


 338              		@ sp needed
 339 00a8 10BD     		pop	{r4, pc}
 340              	.L23:
 341 00aa C046     		.align	2
 342              	.L22:
 343 00ac 00000000 		.word	xData
 344 00b0 00000000 		.word	cyBle_connHandle
 345 00b4 00000000 		.word	.LANCHOR0
 346 00b8 00000000 		.word	yData
 347 00bc 00000000 		.word	zData
 348              		.cfi_endproc
 349              	.LFE38:
 350              		.size	sendNotifications, .-sendNotifications
 351              		.global	BLEStackStatus
 352              		.comm	zData,4,4
 353              		.comm	yData,4,4
 354              		.comm	xData,4,4
 355              		.comm	bleConnected,4,4
 356              		.comm	notifyOn,4,4
 357              		.section	.rodata.str1.4,"aMS",%progbits,1
 358              		.align	2
 359              	.LC2:
 360 0000 436F6E6E 		.ascii	"Connected to device\000"
 360      65637465 
 360      6420746F 
 360      20646576 
 360      69636500 
 361              	.LC5:
 362 0014 44697363 		.ascii	"Disconnected from device\000"
 362      6F6E6E65 
 362      63746564 
 362      2066726F 
 362      6D206465 
 363 002d 000000   		.bss
 364              		.set	.LANCHOR0,. + 0
 365              		.type	BLEStackStatus, %object
 366              		.size	BLEStackStatus, 1
 367              	BLEStackStatus:
 368 0000 00       		.space	1
 369              		.text
 370              	.Letext0:
 371              		.file 2 "Generated_Source\\PSoC4/cytypes.h"
 372              		.file 3 "Generated_Source\\PSoC4/BLE_Stack.h"
 373              		.file 4 "Generated_Source\\PSoC4/BLE_StackGatt.h"
 374              		.file 5 "Generated_Source\\PSoC4/BLE_StackGattServer.h"
 375              		.file 6 "Generated_Source\\PSoC4/BLE_eventHandler.h"
 376              		.file 7 "./common.h"
 377              		.file 8 "Generated_Source\\PSoC4/AdvLED.h"
 378              		.file 9 "Generated_Source\\PSoC4/ConnectedLED.h"
 379              		.file 10 "Generated_Source\\PSoC4/BLE.h"
 380              		.file 11 "Generated_Source\\PSoC4/BLE_StackGattDb.h"