ARM GAS  C:\Users\Henny\AppData\Local\Temp\cccdfNai.s 			page 1


   1              		.cpu cortex-m0
   2              		.fpu softvfp
   3              		.eabi_attribute 20, 1
   4              		.eabi_attribute 21, 1
   5              		.eabi_attribute 23, 3
   6              		.eabi_attribute 24, 1
   7              		.eabi_attribute 25, 1
   8              		.eabi_attribute 26, 1
   9              		.eabi_attribute 30, 1
  10              		.eabi_attribute 34, 0
  11              		.eabi_attribute 18, 4
  12              		.code	16
  13              		.file	"common.c"
  14              		.text
  15              	.Ltext0:
  16              		.cfi_sections	.debug_frame
  17              		.section	.text.debug,"ax",%progbits
  18              		.align	2
  19              		.global	debug
  20              		.code	16
  21              		.thumb_func
  22              		.type	debug, %function
  23              	debug:
  24              	.LFB37:
  25              		.file 1 ".\\common.c"
   1:.\common.c    **** /* ========================================
   2:.\common.c    ****  *
   3:.\common.c    ****  * Copyright YOUR COMPANY, THE YEAR
   4:.\common.c    ****  * All Rights Reserved
   5:.\common.c    ****  * UNPUBLISHED, LICENSED SOFTWARE.
   6:.\common.c    ****  *
   7:.\common.c    ****  * CONFIDENTIAL AND PROPRIETARY INFORMATION
   8:.\common.c    ****  * WHICH IS THE PROPERTY OF your company.
   9:.\common.c    ****  *
  10:.\common.c    ****  * ========================================
  11:.\common.c    **** */
  12:.\common.c    **** #include <project.h>
  13:.\common.c    **** #include <stdio.h>
  14:.\common.c    **** 
  15:.\common.c    **** void debug(char msg[])
  16:.\common.c    **** {
  26              		.loc 1 16 0
  27              		.cfi_startproc
  28              	.LVL0:
  29 0000 08B5     		push	{r3, lr}
  30              		.cfi_def_cfa_offset 8
  31              		.cfi_offset 3, -8
  32              		.cfi_offset 14, -4
  17:.\common.c    ****     UART_UartPutString(msg);
  33              		.loc 1 17 0
  34 0002 FFF7FEFF 		bl	UART_UartPutString
  35              	.LVL1:
  18:.\common.c    ****     UART_UartPutString("\r\n");
  36              		.loc 1 18 0
  37 0006 0248     		ldr	r0, .L2
  38 0008 FFF7FEFF 		bl	UART_UartPutString
  39              	.LVL2:
ARM GAS  C:\Users\Henny\AppData\Local\Temp\cccdfNai.s 			page 2


  19:.\common.c    **** }
  40              		.loc 1 19 0
  41              		@ sp needed
  42 000c 08BD     		pop	{r3, pc}
  43              	.L3:
  44 000e C046     		.align	2
  45              	.L2:
  46 0010 00000000 		.word	.LC0
  47              		.cfi_endproc
  48              	.LFE37:
  49              		.size	debug, .-debug
  50              		.section	.text.debugInt,"ax",%progbits
  51              		.align	2
  52              		.global	debugInt
  53              		.code	16
  54              		.thumb_func
  55              		.type	debugInt, %function
  56              	debugInt:
  57              	.LFB38:
  20:.\common.c    **** 
  21:.\common.c    **** void debugInt(int integer)
  22:.\common.c    **** {
  58              		.loc 1 22 0
  59              		.cfi_startproc
  60              	.LVL3:
  61 0000 00B5     		push	{lr}
  62              		.cfi_def_cfa_offset 4
  63              		.cfi_offset 14, -4
  64 0002 85B0     		sub	sp, sp, #20
  65              		.cfi_def_cfa_offset 24
  66 0004 021C     		mov	r2, r0
  23:.\common.c    ****     char string[16];
  24:.\common.c    ****     sprintf(string, "%d", integer);
  67              		.loc 1 24 0
  68 0006 6846     		mov	r0, sp
  69              	.LVL4:
  70 0008 0349     		ldr	r1, .L5
  71 000a FFF7FEFF 		bl	sprintf
  72              	.LVL5:
  25:.\common.c    ****     debug(string);
  73              		.loc 1 25 0
  74 000e 6846     		mov	r0, sp
  75 0010 FFF7FEFF 		bl	debug
  76              	.LVL6:
  26:.\common.c    **** }
  77              		.loc 1 26 0
  78 0014 05B0     		add	sp, sp, #20
  79              		@ sp needed
  80 0016 00BD     		pop	{pc}
  81              	.L6:
  82              		.align	2
  83              	.L5:
  84 0018 04000000 		.word	.LC2
  85              		.cfi_endproc
  86              	.LFE38:
  87              		.size	debugInt, .-debugInt
  88              		.global	__aeabi_f2d
ARM GAS  C:\Users\Henny\AppData\Local\Temp\cccdfNai.s 			page 3


  89              		.section	.text.debugFloat,"ax",%progbits
  90              		.align	2
  91              		.global	debugFloat
  92              		.code	16
  93              		.thumb_func
  94              		.type	debugFloat, %function
  95              	debugFloat:
  96              	.LFB39:
  27:.\common.c    **** 
  28:.\common.c    **** void debugFloat(float f) 
  29:.\common.c    **** {
  97              		.loc 1 29 0
  98              		.cfi_startproc
  99              	.LVL7:
 100 0000 00B5     		push	{lr}
 101              		.cfi_def_cfa_offset 4
 102              		.cfi_offset 14, -4
 103 0002 85B0     		sub	sp, sp, #20
 104              		.cfi_def_cfa_offset 24
  30:.\common.c    ****     char string[16];
  31:.\common.c    ****     sprintf(string, "%f", f);
 105              		.loc 1 31 0
 106 0004 FFF7FEFF 		bl	__aeabi_f2d
 107              	.LVL8:
 108 0008 021C     		mov	r2, r0
 109 000a 0B1C     		mov	r3, r1
 110 000c 6846     		mov	r0, sp
 111 000e 0449     		ldr	r1, .L8
 112 0010 FFF7FEFF 		bl	sprintf
 113              	.LVL9:
  32:.\common.c    ****     debug(string);
 114              		.loc 1 32 0
 115 0014 6846     		mov	r0, sp
 116 0016 FFF7FEFF 		bl	debug
 117              	.LVL10:
  33:.\common.c    **** }
 118              		.loc 1 33 0
 119 001a 05B0     		add	sp, sp, #20
 120              		@ sp needed
 121 001c 00BD     		pop	{pc}
 122              	.L9:
 123 001e C046     		.align	2
 124              	.L8:
 125 0020 08000000 		.word	.LC4
 126              		.cfi_endproc
 127              	.LFE39:
 128              		.size	debugFloat, .-debugFloat
 129              		.section	.text.debugHex,"ax",%progbits
 130              		.align	2
 131              		.global	debugHex
 132              		.code	16
 133              		.thumb_func
 134              		.type	debugHex, %function
 135              	debugHex:
 136              	.LFB40:
  34:.\common.c    **** 
  35:.\common.c    **** void debugHex(int hex)
ARM GAS  C:\Users\Henny\AppData\Local\Temp\cccdfNai.s 			page 4


  36:.\common.c    **** {
 137              		.loc 1 36 0
 138              		.cfi_startproc
 139              	.LVL11:
 140 0000 00B5     		push	{lr}
 141              		.cfi_def_cfa_offset 4
 142              		.cfi_offset 14, -4
 143 0002 85B0     		sub	sp, sp, #20
 144              		.cfi_def_cfa_offset 24
 145 0004 021C     		mov	r2, r0
  37:.\common.c    ****     char string[16];
  38:.\common.c    ****     sprintf(string, "%x", hex);
 146              		.loc 1 38 0
 147 0006 6846     		mov	r0, sp
 148              	.LVL12:
 149 0008 0349     		ldr	r1, .L11
 150 000a FFF7FEFF 		bl	sprintf
 151              	.LVL13:
  39:.\common.c    ****     debug(string);
 152              		.loc 1 39 0
 153 000e 6846     		mov	r0, sp
 154 0010 FFF7FEFF 		bl	debug
 155              	.LVL14:
  40:.\common.c    **** }
 156              		.loc 1 40 0
 157 0014 05B0     		add	sp, sp, #20
 158              		@ sp needed
 159 0016 00BD     		pop	{pc}
 160              	.L12:
 161              		.align	2
 162              	.L11:
 163 0018 0C000000 		.word	.LC6
 164              		.cfi_endproc
 165              	.LFE40:
 166              		.size	debugHex, .-debugHex
 167              		.section	.rodata.str1.4,"aMS",%progbits,1
 168              		.align	2
 169              	.LC0:
 170 0000 0D0A00   		.ascii	"\015\012\000"
 171 0003 00       		.space	1
 172              	.LC2:
 173 0004 256400   		.ascii	"%d\000"
 174 0007 00       		.space	1
 175              	.LC4:
 176 0008 256600   		.ascii	"%f\000"
 177 000b 00       		.space	1
 178              	.LC6:
 179 000c 257800   		.ascii	"%x\000"
 180 000f 00       		.text
 181              	.Letext0:
 182              		.file 2 "Generated_Source\\PSoC4/UART_SPI_UART.h"
 183              		.file 3 "d:\\programy\\cypress\\psoc creator\\3.3\\psoc creator\\import\\gnu\\arm\\4.9.3\\arm-none
 184              		.file 4 "Generated_Source\\PSoC4/cytypes.h"