ARM GAS  C:\Users\Henny\AppData\Local\Temp\ccehGmEq.s 			page 1


   1              		.cpu cortex-m0
   2              		.fpu softvfp
   3              		.eabi_attribute 20, 1
   4              		.eabi_attribute 21, 1
   5              		.eabi_attribute 23, 3
   6              		.eabi_attribute 24, 1
   7              		.eabi_attribute 25, 1
   8              		.eabi_attribute 26, 1
   9              		.eabi_attribute 30, 1
  10              		.eabi_attribute 34, 0
  11              		.eabi_attribute 18, 4
  12              		.code	16
  13              		.file	"PRS.c"
  14              		.text
  15              	.Ltext0:
  16              		.cfi_sections	.debug_frame
  17              		.section	.text.PRS_Enable,"ax",%progbits
  18              		.align	2
  19              		.global	PRS_Enable
  20              		.code	16
  21              		.thumb_func
  22              		.type	PRS_Enable, %function
  23              	PRS_Enable:
  24              	.LFB3:
  25              		.file 1 ".\\Generated_Source\\PSoC4\\PRS.c"
   1:.\Generated_Source\PSoC4/PRS.c **** /*******************************************************************************
   2:.\Generated_Source\PSoC4/PRS.c **** * File Name: PRS.c
   3:.\Generated_Source\PSoC4/PRS.c **** * Version 2.40
   4:.\Generated_Source\PSoC4/PRS.c **** *
   5:.\Generated_Source\PSoC4/PRS.c **** * Description:
   6:.\Generated_Source\PSoC4/PRS.c **** *  This file provides the source code to the API for the PRS component
   7:.\Generated_Source\PSoC4/PRS.c **** *
   8:.\Generated_Source\PSoC4/PRS.c **** * Note:
   9:.\Generated_Source\PSoC4/PRS.c **** *  None
  10:.\Generated_Source\PSoC4/PRS.c **** *
  11:.\Generated_Source\PSoC4/PRS.c **** ********************************************************************************
  12:.\Generated_Source\PSoC4/PRS.c **** * Copyright 2008-2013, Cypress Semiconductor Corporation.  All rights reserved.
  13:.\Generated_Source\PSoC4/PRS.c **** * You may use this file only in accordance with the license, terms, conditions,
  14:.\Generated_Source\PSoC4/PRS.c **** * disclaimers, and limitations in the end user license agreement accompanying
  15:.\Generated_Source\PSoC4/PRS.c **** * the software package with which this file was provided.
  16:.\Generated_Source\PSoC4/PRS.c **** *******************************************************************************/
  17:.\Generated_Source\PSoC4/PRS.c **** 
  18:.\Generated_Source\PSoC4/PRS.c **** #include "PRS.h"
  19:.\Generated_Source\PSoC4/PRS.c **** 
  20:.\Generated_Source\PSoC4/PRS.c **** uint8 PRS_initVar = 0u;
  21:.\Generated_Source\PSoC4/PRS.c **** 
  22:.\Generated_Source\PSoC4/PRS.c **** PRS_BACKUP_STRUCT PRS_backup =
  23:.\Generated_Source\PSoC4/PRS.c **** {
  24:.\Generated_Source\PSoC4/PRS.c ****     0x00u, /* enableState; */
  25:.\Generated_Source\PSoC4/PRS.c **** 
  26:.\Generated_Source\PSoC4/PRS.c ****     #if (PRS_WAKEUP_BEHAVIOUR == PRS__RESUMEWORK)
  27:.\Generated_Source\PSoC4/PRS.c ****         /* Save dff register for time mult */
  28:.\Generated_Source\PSoC4/PRS.c ****         #if (PRS_TIME_MULTIPLEXING_ENABLE)
  29:.\Generated_Source\PSoC4/PRS.c ****             PRS_INIT_STATE, /* dffStatus; */
  30:.\Generated_Source\PSoC4/PRS.c ****         #endif  /* End PRS_TIME_MULTIPLEXING_ENABLE */
  31:.\Generated_Source\PSoC4/PRS.c **** 
  32:.\Generated_Source\PSoC4/PRS.c ****         /* Save A0 and A1 registers are none-retention */
ARM GAS  C:\Users\Henny\AppData\Local\Temp\ccehGmEq.s 			page 2


  33:.\Generated_Source\PSoC4/PRS.c ****         #if(PRS_PRS_SIZE <= 32u)
  34:.\Generated_Source\PSoC4/PRS.c ****             PRS_DEFAULT_SEED, /* seed */
  35:.\Generated_Source\PSoC4/PRS.c **** 
  36:.\Generated_Source\PSoC4/PRS.c ****         #else
  37:.\Generated_Source\PSoC4/PRS.c ****             PRS_DEFAULT_SEED_UPPER, /* seedUpper; */
  38:.\Generated_Source\PSoC4/PRS.c ****             PRS_DEFAULT_SEED_LOWER, /* seedLower; */
  39:.\Generated_Source\PSoC4/PRS.c **** 
  40:.\Generated_Source\PSoC4/PRS.c ****         #endif  /* End (PRS_PRS_SIZE <= 32u) */
  41:.\Generated_Source\PSoC4/PRS.c **** 
  42:.\Generated_Source\PSoC4/PRS.c ****     #endif  /* End (PRS_WAKEUP_BEHAVIOUR == PRS__RESUMEWORK) */
  43:.\Generated_Source\PSoC4/PRS.c **** };
  44:.\Generated_Source\PSoC4/PRS.c **** 
  45:.\Generated_Source\PSoC4/PRS.c **** 
  46:.\Generated_Source\PSoC4/PRS.c **** /*******************************************************************************
  47:.\Generated_Source\PSoC4/PRS.c **** * Function Name: PRS_Init
  48:.\Generated_Source\PSoC4/PRS.c **** ********************************************************************************
  49:.\Generated_Source\PSoC4/PRS.c **** *
  50:.\Generated_Source\PSoC4/PRS.c **** * Summary:
  51:.\Generated_Source\PSoC4/PRS.c **** *  Initializes seed and polynomial registers with initial values.
  52:.\Generated_Source\PSoC4/PRS.c **** *
  53:.\Generated_Source\PSoC4/PRS.c **** * Parameters:
  54:.\Generated_Source\PSoC4/PRS.c **** *  void
  55:.\Generated_Source\PSoC4/PRS.c **** *
  56:.\Generated_Source\PSoC4/PRS.c **** * Return:
  57:.\Generated_Source\PSoC4/PRS.c **** *  void
  58:.\Generated_Source\PSoC4/PRS.c **** *
  59:.\Generated_Source\PSoC4/PRS.c **** *******************************************************************************/
  60:.\Generated_Source\PSoC4/PRS.c **** void PRS_Init(void) 
  61:.\Generated_Source\PSoC4/PRS.c **** {
  62:.\Generated_Source\PSoC4/PRS.c ****     /* Writes seed value and ponynom value provided for customizer */
  63:.\Generated_Source\PSoC4/PRS.c ****     #if (PRS_PRS_SIZE <= 32u)
  64:.\Generated_Source\PSoC4/PRS.c ****         PRS_WritePolynomial(PRS_DEFAULT_POLYNOM);
  65:.\Generated_Source\PSoC4/PRS.c ****         PRS_WriteSeed(PRS_DEFAULT_SEED);
  66:.\Generated_Source\PSoC4/PRS.c ****         #if (PRS_RUN_MODE == PRS__CLOCKED)
  67:.\Generated_Source\PSoC4/PRS.c ****             PRS_ResetSeedInit(PRS_DEFAULT_SEED);
  68:.\Generated_Source\PSoC4/PRS.c ****         #endif  /* End (PRS_RUN_MODE == PRS__CLOCKED) */
  69:.\Generated_Source\PSoC4/PRS.c ****             PRS_Enable();
  70:.\Generated_Source\PSoC4/PRS.c ****     #else
  71:.\Generated_Source\PSoC4/PRS.c ****         PRS_WritePolynomialUpper(PRS_DEFAULT_POLYNOM_UPPER);
  72:.\Generated_Source\PSoC4/PRS.c ****         PRS_WritePolynomialLower(PRS_DEFAULT_POLYNOM_LOWER);
  73:.\Generated_Source\PSoC4/PRS.c ****         PRS_WriteSeedUpper(PRS_DEFAULT_SEED_UPPER);
  74:.\Generated_Source\PSoC4/PRS.c ****         PRS_WriteSeedLower(PRS_DEFAULT_SEED_LOWER);
  75:.\Generated_Source\PSoC4/PRS.c ****         #if (PRS_RUN_MODE == PRS__CLOCKED)
  76:.\Generated_Source\PSoC4/PRS.c ****             PRS_ResetSeedInitUpper(PRS_DEFAULT_SEED_UPPER);
  77:.\Generated_Source\PSoC4/PRS.c ****             PRS_ResetSeedInitLower(PRS_DEFAULT_SEED_LOWER);
  78:.\Generated_Source\PSoC4/PRS.c ****         #endif  /* End (PRS_RUN_MODE == PRS__CLOCKED) */
  79:.\Generated_Source\PSoC4/PRS.c ****             PRS_Enable();
  80:.\Generated_Source\PSoC4/PRS.c ****     #endif  /* End (PRS_PRS_SIZE <= 32u) */
  81:.\Generated_Source\PSoC4/PRS.c **** }
  82:.\Generated_Source\PSoC4/PRS.c **** 
  83:.\Generated_Source\PSoC4/PRS.c **** 
  84:.\Generated_Source\PSoC4/PRS.c **** /*******************************************************************************
  85:.\Generated_Source\PSoC4/PRS.c **** * Function Name: PRS_Enable
  86:.\Generated_Source\PSoC4/PRS.c **** ********************************************************************************
  87:.\Generated_Source\PSoC4/PRS.c **** *
  88:.\Generated_Source\PSoC4/PRS.c **** * Summary:
  89:.\Generated_Source\PSoC4/PRS.c **** *  Starts PRS computation on rising edge of input clock.
ARM GAS  C:\Users\Henny\AppData\Local\Temp\ccehGmEq.s 			page 3


  90:.\Generated_Source\PSoC4/PRS.c **** *
  91:.\Generated_Source\PSoC4/PRS.c **** * Parameters:
  92:.\Generated_Source\PSoC4/PRS.c **** *  void
  93:.\Generated_Source\PSoC4/PRS.c **** *
  94:.\Generated_Source\PSoC4/PRS.c **** * Return:
  95:.\Generated_Source\PSoC4/PRS.c **** *  void
  96:.\Generated_Source\PSoC4/PRS.c **** *
  97:.\Generated_Source\PSoC4/PRS.c **** *******************************************************************************/
  98:.\Generated_Source\PSoC4/PRS.c **** void PRS_Enable(void) 
  99:.\Generated_Source\PSoC4/PRS.c **** {
  26              		.loc 1 99 0
  27              		.cfi_startproc
 100:.\Generated_Source\PSoC4/PRS.c ****         PRS_CONTROL_REG |= PRS_CTRL_ENABLE;
  28              		.loc 1 100 0
  29 0000 024A     		ldr	r2, .L2
  30 0002 1178     		ldrb	r1, [r2]
  31 0004 0123     		mov	r3, #1
  32 0006 0B43     		orr	r3, r1
  33 0008 1370     		strb	r3, [r2]
 101:.\Generated_Source\PSoC4/PRS.c **** }
  34              		.loc 1 101 0
  35              		@ sp needed
  36 000a 7047     		bx	lr
  37              	.L3:
  38              		.align	2
  39              	.L2:
  40 000c 70000F40 		.word	1074724976
  41              		.cfi_endproc
  42              	.LFE3:
  43              		.size	PRS_Enable, .-PRS_Enable
  44              		.section	.text.PRS_Stop,"ax",%progbits
  45              		.align	2
  46              		.global	PRS_Stop
  47              		.code	16
  48              		.thumb_func
  49              		.type	PRS_Stop, %function
  50              	PRS_Stop:
  51              	.LFB5:
 102:.\Generated_Source\PSoC4/PRS.c **** 
 103:.\Generated_Source\PSoC4/PRS.c **** 
 104:.\Generated_Source\PSoC4/PRS.c **** /*******************************************************************************
 105:.\Generated_Source\PSoC4/PRS.c **** * Function Name: PRS_Start
 106:.\Generated_Source\PSoC4/PRS.c **** ********************************************************************************
 107:.\Generated_Source\PSoC4/PRS.c **** *
 108:.\Generated_Source\PSoC4/PRS.c **** * Summary:
 109:.\Generated_Source\PSoC4/PRS.c **** *  Initializes seed and polynomial registers with initial values. Computation
 110:.\Generated_Source\PSoC4/PRS.c **** *  of PRS starts on rising edge of input clock.
 111:.\Generated_Source\PSoC4/PRS.c **** *
 112:.\Generated_Source\PSoC4/PRS.c **** * Parameters:
 113:.\Generated_Source\PSoC4/PRS.c **** *  void
 114:.\Generated_Source\PSoC4/PRS.c **** *
 115:.\Generated_Source\PSoC4/PRS.c **** * Return:
 116:.\Generated_Source\PSoC4/PRS.c **** *  void
 117:.\Generated_Source\PSoC4/PRS.c **** *
 118:.\Generated_Source\PSoC4/PRS.c **** * Global variables:
 119:.\Generated_Source\PSoC4/PRS.c **** *  PRS_initVar: global variable is used to indicate initial
 120:.\Generated_Source\PSoC4/PRS.c **** *  configuration of this component.  The variable is initialized to zero and set
ARM GAS  C:\Users\Henny\AppData\Local\Temp\ccehGmEq.s 			page 4


 121:.\Generated_Source\PSoC4/PRS.c **** *  to 1 the first time PRS_Start() is called. This allows
 122:.\Generated_Source\PSoC4/PRS.c **** *  enable/disable component without re-initialization in all subsequent calls
 123:.\Generated_Source\PSoC4/PRS.c **** *  to the PRS_Start() routine.
 124:.\Generated_Source\PSoC4/PRS.c **** *
 125:.\Generated_Source\PSoC4/PRS.c **** *******************************************************************************/
 126:.\Generated_Source\PSoC4/PRS.c **** void PRS_Start(void) 
 127:.\Generated_Source\PSoC4/PRS.c **** {
 128:.\Generated_Source\PSoC4/PRS.c ****     /* Writes seed value and ponynom value provided from customizer */
 129:.\Generated_Source\PSoC4/PRS.c ****     if (PRS_initVar == 0u)
 130:.\Generated_Source\PSoC4/PRS.c ****     {
 131:.\Generated_Source\PSoC4/PRS.c ****         PRS_Init();
 132:.\Generated_Source\PSoC4/PRS.c ****         PRS_initVar = 1u;
 133:.\Generated_Source\PSoC4/PRS.c ****     }
 134:.\Generated_Source\PSoC4/PRS.c **** 
 135:.\Generated_Source\PSoC4/PRS.c ****     PRS_Enable();
 136:.\Generated_Source\PSoC4/PRS.c **** }
 137:.\Generated_Source\PSoC4/PRS.c **** 
 138:.\Generated_Source\PSoC4/PRS.c **** 
 139:.\Generated_Source\PSoC4/PRS.c **** /*******************************************************************************
 140:.\Generated_Source\PSoC4/PRS.c **** * Function Name: PRS_Stop
 141:.\Generated_Source\PSoC4/PRS.c **** ********************************************************************************
 142:.\Generated_Source\PSoC4/PRS.c **** *
 143:.\Generated_Source\PSoC4/PRS.c **** * Summary:
 144:.\Generated_Source\PSoC4/PRS.c **** *  Stops PRS computation.
 145:.\Generated_Source\PSoC4/PRS.c **** *
 146:.\Generated_Source\PSoC4/PRS.c **** * Parameters:
 147:.\Generated_Source\PSoC4/PRS.c **** *  void
 148:.\Generated_Source\PSoC4/PRS.c **** *
 149:.\Generated_Source\PSoC4/PRS.c **** * Return:
 150:.\Generated_Source\PSoC4/PRS.c **** *  void
 151:.\Generated_Source\PSoC4/PRS.c **** *
 152:.\Generated_Source\PSoC4/PRS.c **** *******************************************************************************/
 153:.\Generated_Source\PSoC4/PRS.c **** void PRS_Stop(void) 
 154:.\Generated_Source\PSoC4/PRS.c **** {
  52              		.loc 1 154 0
  53              		.cfi_startproc
 155:.\Generated_Source\PSoC4/PRS.c ****     PRS_CONTROL_REG &= ((uint8)~PRS_CTRL_ENABLE);
  54              		.loc 1 155 0
  55 0000 024A     		ldr	r2, .L5
  56 0002 1378     		ldrb	r3, [r2]
  57 0004 0121     		mov	r1, #1
  58 0006 8B43     		bic	r3, r1
  59 0008 1370     		strb	r3, [r2]
 156:.\Generated_Source\PSoC4/PRS.c **** }
  60              		.loc 1 156 0
  61              		@ sp needed
  62 000a 7047     		bx	lr
  63              	.L6:
  64              		.align	2
  65              	.L5:
  66 000c 70000F40 		.word	1074724976
  67              		.cfi_endproc
  68              	.LFE5:
  69              		.size	PRS_Stop, .-PRS_Stop
  70              		.section	.text.PRS_ResetSeedInit,"ax",%progbits
  71              		.align	2
  72              		.global	PRS_ResetSeedInit
ARM GAS  C:\Users\Henny\AppData\Local\Temp\ccehGmEq.s 			page 5


  73              		.code	16
  74              		.thumb_func
  75              		.type	PRS_ResetSeedInit, %function
  76              	PRS_ResetSeedInit:
  77              	.LFB6:
 157:.\Generated_Source\PSoC4/PRS.c **** 
 158:.\Generated_Source\PSoC4/PRS.c **** 
 159:.\Generated_Source\PSoC4/PRS.c **** #if (PRS_RUN_MODE == PRS__APISINGLESTEP)
 160:.\Generated_Source\PSoC4/PRS.c ****     /*******************************************************************************
 161:.\Generated_Source\PSoC4/PRS.c ****     * FUNCTION NAME: PRS_Step
 162:.\Generated_Source\PSoC4/PRS.c ****     ********************************************************************************
 163:.\Generated_Source\PSoC4/PRS.c ****     *
 164:.\Generated_Source\PSoC4/PRS.c ****     * Summary:
 165:.\Generated_Source\PSoC4/PRS.c ****     *  Increments the PRS by one when API single step mode is used.
 166:.\Generated_Source\PSoC4/PRS.c ****     *
 167:.\Generated_Source\PSoC4/PRS.c ****     * Parameters:
 168:.\Generated_Source\PSoC4/PRS.c ****     *  void
 169:.\Generated_Source\PSoC4/PRS.c ****     *
 170:.\Generated_Source\PSoC4/PRS.c ****     * Return:
 171:.\Generated_Source\PSoC4/PRS.c ****     *  void
 172:.\Generated_Source\PSoC4/PRS.c ****     *
 173:.\Generated_Source\PSoC4/PRS.c ****     *******************************************************************************/
 174:.\Generated_Source\PSoC4/PRS.c ****     void PRS_Step(void) 
 175:.\Generated_Source\PSoC4/PRS.c ****     {
 176:.\Generated_Source\PSoC4/PRS.c ****         #if (PRS_TIME_MULTIPLEXING_ENABLE)
 177:.\Generated_Source\PSoC4/PRS.c ****             /* Makes 4 pulse, 4x for Time Mult */
 178:.\Generated_Source\PSoC4/PRS.c ****             PRS_EXECUTE_STEP;
 179:.\Generated_Source\PSoC4/PRS.c ****             PRS_EXECUTE_STEP;
 180:.\Generated_Source\PSoC4/PRS.c ****             PRS_EXECUTE_STEP;
 181:.\Generated_Source\PSoC4/PRS.c ****             PRS_EXECUTE_STEP;
 182:.\Generated_Source\PSoC4/PRS.c **** 
 183:.\Generated_Source\PSoC4/PRS.c ****         #else
 184:.\Generated_Source\PSoC4/PRS.c ****             /* One pulse without Time mult required */
 185:.\Generated_Source\PSoC4/PRS.c ****             PRS_EXECUTE_STEP;
 186:.\Generated_Source\PSoC4/PRS.c **** 
 187:.\Generated_Source\PSoC4/PRS.c ****         #endif  /* End PRS_TIME_MULTIPLEXING_ENABLE */
 188:.\Generated_Source\PSoC4/PRS.c ****     }
 189:.\Generated_Source\PSoC4/PRS.c **** #endif  /* End (PRS_RUN_MODE == PRS__APISINGLESTEP) */
 190:.\Generated_Source\PSoC4/PRS.c **** 
 191:.\Generated_Source\PSoC4/PRS.c **** 
 192:.\Generated_Source\PSoC4/PRS.c **** #if (PRS_RUN_MODE == PRS__CLOCKED)
 193:.\Generated_Source\PSoC4/PRS.c ****     #if (PRS_PRS_SIZE <= 32u) /* 8-32 bits PRS */
 194:.\Generated_Source\PSoC4/PRS.c ****         /*******************************************************************************
 195:.\Generated_Source\PSoC4/PRS.c ****         * FUNCTION NAME: PRS_ResetSeedInit
 196:.\Generated_Source\PSoC4/PRS.c ****         ********************************************************************************
 197:.\Generated_Source\PSoC4/PRS.c ****         *
 198:.\Generated_Source\PSoC4/PRS.c ****         * Summary:
 199:.\Generated_Source\PSoC4/PRS.c ****         *  Increments the PRS by one when API single step mode is used.
 200:.\Generated_Source\PSoC4/PRS.c ****         *
 201:.\Generated_Source\PSoC4/PRS.c ****         * Parameters:
 202:.\Generated_Source\PSoC4/PRS.c ****         *  void
 203:.\Generated_Source\PSoC4/PRS.c ****         *
 204:.\Generated_Source\PSoC4/PRS.c ****         * Return:
 205:.\Generated_Source\PSoC4/PRS.c ****         *  void
 206:.\Generated_Source\PSoC4/PRS.c ****         *
 207:.\Generated_Source\PSoC4/PRS.c ****         *******************************************************************************/
 208:.\Generated_Source\PSoC4/PRS.c ****         void PRS_ResetSeedInit(uint8 seed)
ARM GAS  C:\Users\Henny\AppData\Local\Temp\ccehGmEq.s 			page 6


 209:.\Generated_Source\PSoC4/PRS.c ****                                             
 210:.\Generated_Source\PSoC4/PRS.c ****         {
  78              		.loc 1 210 0
  79              		.cfi_startproc
  80              	.LVL0:
  81 0000 10B5     		push	{r4, lr}
  82              		.cfi_def_cfa_offset 8
  83              		.cfi_offset 4, -8
  84              		.cfi_offset 14, -4
  85 0002 041C     		mov	r4, r0
  86              	.LVL1:
 211:.\Generated_Source\PSoC4/PRS.c ****             uint8 enableInterrupts;
 212:.\Generated_Source\PSoC4/PRS.c **** 
 213:.\Generated_Source\PSoC4/PRS.c ****             /* Mask the Seed to cut unused bits */
 214:.\Generated_Source\PSoC4/PRS.c ****             seed &= PRS_MASK;
 215:.\Generated_Source\PSoC4/PRS.c **** 
 216:.\Generated_Source\PSoC4/PRS.c ****             /* Change AuxControl reg, need to be safety */
 217:.\Generated_Source\PSoC4/PRS.c ****             enableInterrupts = CyEnterCriticalSection();
  87              		.loc 1 217 0
  88 0004 FFF7FEFF 		bl	CyEnterCriticalSection
  89              	.LVL2:
 218:.\Generated_Source\PSoC4/PRS.c **** 
 219:.\Generated_Source\PSoC4/PRS.c ****             #if (PRS_TIME_MULTIPLEXING_ENABLE)
 220:.\Generated_Source\PSoC4/PRS.c ****                 /* Set FIFOs to single register */
 221:.\Generated_Source\PSoC4/PRS.c ****                 PRS_AUX_CONTROL_A_REG |= PRS_AUXCTRL_FIFO_SINGLE_REG;
 222:.\Generated_Source\PSoC4/PRS.c **** 
 223:.\Generated_Source\PSoC4/PRS.c ****                 #if(PRS_PRS_SIZE > 16u)       /* 17-32 bits PRS */
 224:.\Generated_Source\PSoC4/PRS.c ****                     PRS_AUX_CONTROL_B_REG |= PRS_AUXCTRL_FIFO_SINGLE_REG;
 225:.\Generated_Source\PSoC4/PRS.c ****                 #endif  /* End (PRS_PRS_SIZE <= 8u) */
 226:.\Generated_Source\PSoC4/PRS.c **** 
 227:.\Generated_Source\PSoC4/PRS.c ****                 /* AuxControl reg settings are done */
 228:.\Generated_Source\PSoC4/PRS.c ****                 CyExitCriticalSection(enableInterrupts);
 229:.\Generated_Source\PSoC4/PRS.c **** 
 230:.\Generated_Source\PSoC4/PRS.c ****                 /* Write Seed COPY */
 231:.\Generated_Source\PSoC4/PRS.c ****                 #if (PRS_PRS_SIZE <= 16u)          /* 16 bits PRS */
 232:.\Generated_Source\PSoC4/PRS.c ****                     PRS_SEED_COPY_A__A1_REG = HI8(seed);
 233:.\Generated_Source\PSoC4/PRS.c ****                     PRS_SEED_COPY_A__A0_REG = LO8(seed);
 234:.\Generated_Source\PSoC4/PRS.c **** 
 235:.\Generated_Source\PSoC4/PRS.c ****                 #elif (PRS_PRS_SIZE <= 24u)        /* 24 bits PRS */
 236:.\Generated_Source\PSoC4/PRS.c ****                     PRS_SEED_COPY_B__A1_REG = LO8(HI16(seed));
 237:.\Generated_Source\PSoC4/PRS.c ****                     PRS_SEED_COPY_B__A0_REG = HI8(seed);
 238:.\Generated_Source\PSoC4/PRS.c ****                     PRS_SEED_COPY_A__A0_REG = LO8(seed);
 239:.\Generated_Source\PSoC4/PRS.c **** 
 240:.\Generated_Source\PSoC4/PRS.c ****                 #else                                           /* 32 bits PRS */
 241:.\Generated_Source\PSoC4/PRS.c ****                     PRS_SEED_COPY_B__A1_REG = HI8(HI16(seed));
 242:.\Generated_Source\PSoC4/PRS.c ****                     PRS_SEED_COPY_A__A1_REG = LO8(HI16(seed));
 243:.\Generated_Source\PSoC4/PRS.c ****                     PRS_SEED_COPY_B__A0_REG = HI8(seed);
 244:.\Generated_Source\PSoC4/PRS.c ****                     PRS_SEED_COPY_A__A0_REG = LO8(seed);
 245:.\Generated_Source\PSoC4/PRS.c ****                 #endif  /* End (PRS_PRS_SIZE <= 32u) */
 246:.\Generated_Source\PSoC4/PRS.c **** 
 247:.\Generated_Source\PSoC4/PRS.c ****             #else
 248:.\Generated_Source\PSoC4/PRS.c ****                 /* Set FIFOs to single register */
 249:.\Generated_Source\PSoC4/PRS.c ****                 #if (PRS_PRS_SIZE <= 8u)      /* 8 bits PRS */
 250:.\Generated_Source\PSoC4/PRS.c ****                     PRS_AUX_CONTROL_A_REG |= PRS_AUXCTRL_FIFO_SINGLE_REG;
  90              		.loc 1 250 0
  91 0008 044A     		ldr	r2, .L8
  92 000a 1178     		ldrb	r1, [r2]
ARM GAS  C:\Users\Henny\AppData\Local\Temp\ccehGmEq.s 			page 7


  93 000c 0323     		mov	r3, #3
  94 000e 0B43     		orr	r3, r1
  95 0010 1370     		strb	r3, [r2]
 251:.\Generated_Source\PSoC4/PRS.c **** 
 252:.\Generated_Source\PSoC4/PRS.c ****                 #elif (PRS_PRS_SIZE <= 16u)      /* 16 bits PRS */
 253:.\Generated_Source\PSoC4/PRS.c ****                     PRS_AUX_CONTROL_A_REG  |= PRS_AUXCTRL_FIFO_SINGLE_REG;
 254:.\Generated_Source\PSoC4/PRS.c ****                     PRS_AUX_CONTROL_B_REG  |= PRS_AUXCTRL_FIFO_SINGLE_REG;
 255:.\Generated_Source\PSoC4/PRS.c **** 
 256:.\Generated_Source\PSoC4/PRS.c ****                 #elif (PRS_PRS_SIZE <= 24u)      /* 24-39 bits PRS */
 257:.\Generated_Source\PSoC4/PRS.c ****                     PRS_AUX_CONTROL_A_REG  |= PRS_AUXCTRL_FIFO_SINGLE_REG;
 258:.\Generated_Source\PSoC4/PRS.c ****                     PRS_AUX_CONTROL_B_REG  |= PRS_AUXCTRL_FIFO_SINGLE_REG;
 259:.\Generated_Source\PSoC4/PRS.c ****                     PRS_AUX_CONTROL_C_REG  |= PRS_AUXCTRL_FIFO_SINGLE_REG;
 260:.\Generated_Source\PSoC4/PRS.c **** 
 261:.\Generated_Source\PSoC4/PRS.c ****                 #elif (PRS_PRS_SIZE <= 32u)      /* 40-55 bits PRS */
 262:.\Generated_Source\PSoC4/PRS.c ****                     PRS_AUX_CONTROL_A_REG  |= PRS_AUXCTRL_FIFO_SINGLE_REG;
 263:.\Generated_Source\PSoC4/PRS.c ****                     PRS_AUX_CONTROL_B_REG  |= PRS_AUXCTRL_FIFO_SINGLE_REG;
 264:.\Generated_Source\PSoC4/PRS.c ****                     PRS_AUX_CONTROL_C_REG  |= PRS_AUXCTRL_FIFO_SINGLE_REG;
 265:.\Generated_Source\PSoC4/PRS.c ****                     PRS_AUX_CONTROL_D_REG  |= PRS_AUXCTRL_FIFO_SINGLE_REG;
 266:.\Generated_Source\PSoC4/PRS.c **** 
 267:.\Generated_Source\PSoC4/PRS.c ****                 #endif  /* End (PRS_PRS_SIZE <= 8u) */
 268:.\Generated_Source\PSoC4/PRS.c **** 
 269:.\Generated_Source\PSoC4/PRS.c ****                 /* AuxControl reg setting are done */
 270:.\Generated_Source\PSoC4/PRS.c ****                 CyExitCriticalSection(enableInterrupts);
  96              		.loc 1 270 0
  97 0012 FFF7FEFF 		bl	CyExitCriticalSection
  98              	.LVL3:
 271:.\Generated_Source\PSoC4/PRS.c **** 
 272:.\Generated_Source\PSoC4/PRS.c ****                 /* Write Seed COPY */
 273:.\Generated_Source\PSoC4/PRS.c ****                 CY_SET_REG8(PRS_SEED_COPY_PTR, seed);
  99              		.loc 1 273 0
 100 0016 024B     		ldr	r3, .L8+4
 101 0018 1C70     		strb	r4, [r3]
 274:.\Generated_Source\PSoC4/PRS.c **** 
 275:.\Generated_Source\PSoC4/PRS.c ****             #endif  /* End (PRS_TIME_MULTIPLEXING_ENABLE) */
 276:.\Generated_Source\PSoC4/PRS.c ****         }
 102              		.loc 1 276 0
 103              		@ sp needed
 104              	.LVL4:
 105 001a 10BD     		pop	{r4, pc}
 106              	.L9:
 107              		.align	2
 108              	.L8:
 109 001c 90000F40 		.word	1074725008
 110 0020 40000F40 		.word	1074724928
 111              		.cfi_endproc
 112              	.LFE6:
 113              		.size	PRS_ResetSeedInit, .-PRS_ResetSeedInit
 114              		.section	.text.PRS_Read,"ax",%progbits
 115              		.align	2
 116              		.global	PRS_Read
 117              		.code	16
 118              		.thumb_func
 119              		.type	PRS_Read, %function
 120              	PRS_Read:
 121              	.LFB7:
 277:.\Generated_Source\PSoC4/PRS.c **** 
 278:.\Generated_Source\PSoC4/PRS.c ****     #else
ARM GAS  C:\Users\Henny\AppData\Local\Temp\ccehGmEq.s 			page 8


 279:.\Generated_Source\PSoC4/PRS.c **** 
 280:.\Generated_Source\PSoC4/PRS.c ****         /*******************************************************************************
 281:.\Generated_Source\PSoC4/PRS.c ****         * FUNCTION NAME: PRS_ResetSeedInitUpper
 282:.\Generated_Source\PSoC4/PRS.c ****         ********************************************************************************
 283:.\Generated_Source\PSoC4/PRS.c ****         *
 284:.\Generated_Source\PSoC4/PRS.c ****         * Summary:
 285:.\Generated_Source\PSoC4/PRS.c ****         *  Increments the PRS by one when API single step mode is used.
 286:.\Generated_Source\PSoC4/PRS.c ****         *
 287:.\Generated_Source\PSoC4/PRS.c ****         * Parameters:
 288:.\Generated_Source\PSoC4/PRS.c ****         *  void
 289:.\Generated_Source\PSoC4/PRS.c ****         *
 290:.\Generated_Source\PSoC4/PRS.c ****         * Return:
 291:.\Generated_Source\PSoC4/PRS.c ****         *  void
 292:.\Generated_Source\PSoC4/PRS.c ****         *
 293:.\Generated_Source\PSoC4/PRS.c ****         *******************************************************************************/
 294:.\Generated_Source\PSoC4/PRS.c ****         void PRS_ResetSeedInitUpper(uint32 seed) 
 295:.\Generated_Source\PSoC4/PRS.c ****         {
 296:.\Generated_Source\PSoC4/PRS.c **** 			uint8 enableInterrupts;
 297:.\Generated_Source\PSoC4/PRS.c **** 
 298:.\Generated_Source\PSoC4/PRS.c **** 			/* Mask the Seed Upper half to cut unused bits */
 299:.\Generated_Source\PSoC4/PRS.c ****             seed &= PRS_MASK;
 300:.\Generated_Source\PSoC4/PRS.c **** 
 301:.\Generated_Source\PSoC4/PRS.c **** 			/* Change AuxControl reg, need to be safety */
 302:.\Generated_Source\PSoC4/PRS.c ****             enableInterrupts = CyEnterCriticalSection();
 303:.\Generated_Source\PSoC4/PRS.c **** 
 304:.\Generated_Source\PSoC4/PRS.c ****             /* Set FIFOs to single register */
 305:.\Generated_Source\PSoC4/PRS.c ****             PRS_AUX_CONTROL_A_REG |= PRS_AUXCTRL_FIFO_SINGLE_REG;
 306:.\Generated_Source\PSoC4/PRS.c ****             PRS_AUX_CONTROL_B_REG |= PRS_AUXCTRL_FIFO_SINGLE_REG;
 307:.\Generated_Source\PSoC4/PRS.c ****             PRS_AUX_CONTROL_C_REG |= PRS_AUXCTRL_FIFO_SINGLE_REG;
 308:.\Generated_Source\PSoC4/PRS.c **** 
 309:.\Generated_Source\PSoC4/PRS.c **** 			#if (PRS_PRS_SIZE > 48u)               /* 49-64 bits PRS */
 310:.\Generated_Source\PSoC4/PRS.c ****                 PRS_AUX_CONTROL_D_REG |= PRS_AUXCTRL_FIFO_SINGLE_REG;
 311:.\Generated_Source\PSoC4/PRS.c ****             #endif  /* End (PRS_PRS_SIZE <= 8u) */
 312:.\Generated_Source\PSoC4/PRS.c **** 
 313:.\Generated_Source\PSoC4/PRS.c ****             /* AuxControl reg settings are done */
 314:.\Generated_Source\PSoC4/PRS.c ****             CyExitCriticalSection(enableInterrupts);
 315:.\Generated_Source\PSoC4/PRS.c **** 
 316:.\Generated_Source\PSoC4/PRS.c ****             /* Write Seed Upper COPY */
 317:.\Generated_Source\PSoC4/PRS.c ****             #if (PRS_PRS_SIZE <= 40u)          /* 40 bits PRS */
 318:.\Generated_Source\PSoC4/PRS.c ****                 PRS_SEED_UPPER_COPY_C__A1_REG = LO8(seed);
 319:.\Generated_Source\PSoC4/PRS.c **** 
 320:.\Generated_Source\PSoC4/PRS.c ****             #elif (PRS_PRS_SIZE <= 48u)        /* 48 bits PRS */
 321:.\Generated_Source\PSoC4/PRS.c ****                 PRS_SEED_UPPER_COPY_C__A1_REG = HI8(seed);
 322:.\Generated_Source\PSoC4/PRS.c ****                 PRS_SEED_UPPER_COPY_B__A1_REG = LO8(seed);
 323:.\Generated_Source\PSoC4/PRS.c **** 
 324:.\Generated_Source\PSoC4/PRS.c ****             #elif (PRS_PRS_SIZE <= 56u)        /* 56 bits PRS */
 325:.\Generated_Source\PSoC4/PRS.c ****                 PRS_SEED_UPPER_COPY_D__A1_REG = LO8(HI16(seed));
 326:.\Generated_Source\PSoC4/PRS.c ****                 PRS_SEED_UPPER_COPY_C__A1_REG = HI8(seed);
 327:.\Generated_Source\PSoC4/PRS.c ****                 PRS_SEED_UPPER_COPY_B__A1_REG = HI8(seed);
 328:.\Generated_Source\PSoC4/PRS.c **** 
 329:.\Generated_Source\PSoC4/PRS.c ****             #else                                           /* 64 bits PRS */
 330:.\Generated_Source\PSoC4/PRS.c ****                 PRS_SEED_UPPER_COPY_D__A1_REG = HI8(HI16(seed));
 331:.\Generated_Source\PSoC4/PRS.c ****                 PRS_SEED_UPPER_COPY_C__A1_REG = LO8(HI16(seed));
 332:.\Generated_Source\PSoC4/PRS.c ****                 PRS_SEED_UPPER_COPY_B__A1_REG = HI8(seed);
 333:.\Generated_Source\PSoC4/PRS.c ****                 PRS_SEED_UPPER_COPY_A__A1_REG = LO8(seed);
 334:.\Generated_Source\PSoC4/PRS.c **** 
 335:.\Generated_Source\PSoC4/PRS.c ****             #endif  /* End (PRS_PRS_SIZE <= 32u) */
ARM GAS  C:\Users\Henny\AppData\Local\Temp\ccehGmEq.s 			page 9


 336:.\Generated_Source\PSoC4/PRS.c ****         }
 337:.\Generated_Source\PSoC4/PRS.c **** 
 338:.\Generated_Source\PSoC4/PRS.c **** 
 339:.\Generated_Source\PSoC4/PRS.c ****         /*******************************************************************************
 340:.\Generated_Source\PSoC4/PRS.c ****         * FUNCTION NAME: PRS_ResetSeedInitLower
 341:.\Generated_Source\PSoC4/PRS.c ****         ********************************************************************************
 342:.\Generated_Source\PSoC4/PRS.c ****         *
 343:.\Generated_Source\PSoC4/PRS.c ****         * Summary:
 344:.\Generated_Source\PSoC4/PRS.c ****         *  Increments the PRS by one when API single step mode is used.
 345:.\Generated_Source\PSoC4/PRS.c ****         *
 346:.\Generated_Source\PSoC4/PRS.c ****         * Parameters:
 347:.\Generated_Source\PSoC4/PRS.c ****         *  void
 348:.\Generated_Source\PSoC4/PRS.c ****         *
 349:.\Generated_Source\PSoC4/PRS.c ****         * Return:
 350:.\Generated_Source\PSoC4/PRS.c ****         *  void
 351:.\Generated_Source\PSoC4/PRS.c ****         *
 352:.\Generated_Source\PSoC4/PRS.c ****         *******************************************************************************/
 353:.\Generated_Source\PSoC4/PRS.c ****         void PRS_ResetSeedInitLower(uint32 seed) 
 354:.\Generated_Source\PSoC4/PRS.c ****         {
 355:.\Generated_Source\PSoC4/PRS.c ****             /* Write Seed Lower COPY */
 356:.\Generated_Source\PSoC4/PRS.c ****             #if (PRS_PRS_SIZE <= 40u)          /* 40 bits PRS */
 357:.\Generated_Source\PSoC4/PRS.c ****                 PRS_SEED_LOWER_COPY_B__A1_REG = HI8(HI16(seed));
 358:.\Generated_Source\PSoC4/PRS.c ****                 PRS_SEED_LOWER_COPY_C__A0_REG = LO8(HI16(seed));
 359:.\Generated_Source\PSoC4/PRS.c ****                 PRS_SEED_LOWER_COPY_B__A0_REG = HI8(seed);
 360:.\Generated_Source\PSoC4/PRS.c ****                 PRS_SEED_LOWER_COPY_A__A0_REG = LO8(seed);
 361:.\Generated_Source\PSoC4/PRS.c **** 
 362:.\Generated_Source\PSoC4/PRS.c ****             #elif (PRS_PRS_SIZE <= 48u)        /* 48 bits PRS */
 363:.\Generated_Source\PSoC4/PRS.c ****                 PRS_SEED_LOWER_COPY_A__A1_REG = HI8(HI16(seed));
 364:.\Generated_Source\PSoC4/PRS.c ****                 PRS_SEED_LOWER_COPY_C__A0_REG = LO8(HI16(seed));
 365:.\Generated_Source\PSoC4/PRS.c ****                 PRS_SEED_LOWER_COPY_B__A0_REG = HI8(seed);
 366:.\Generated_Source\PSoC4/PRS.c ****                 PRS_SEED_LOWER_COPY_A__A0_REG = LO8(seed);
 367:.\Generated_Source\PSoC4/PRS.c **** 
 368:.\Generated_Source\PSoC4/PRS.c ****             #else                                           /* 64 bits PRS */
 369:.\Generated_Source\PSoC4/PRS.c ****                 PRS_SEED_LOWER_COPY_D__A0_REG = HI8(HI16(seed));
 370:.\Generated_Source\PSoC4/PRS.c ****                 PRS_SEED_LOWER_COPY_C__A0_REG = LO8(HI16(seed));
 371:.\Generated_Source\PSoC4/PRS.c ****                 PRS_SEED_LOWER_COPY_B__A0_REG = HI8(seed);
 372:.\Generated_Source\PSoC4/PRS.c ****                 PRS_SEED_LOWER_COPY_A__A0_REG = LO8(seed);
 373:.\Generated_Source\PSoC4/PRS.c **** 
 374:.\Generated_Source\PSoC4/PRS.c ****             #endif  /* End (PRS_PRS_SIZE <= 32u) */
 375:.\Generated_Source\PSoC4/PRS.c ****         }
 376:.\Generated_Source\PSoC4/PRS.c **** 
 377:.\Generated_Source\PSoC4/PRS.c ****     #endif  /* End (PRS_PRS_SIZE <= 32u) */
 378:.\Generated_Source\PSoC4/PRS.c **** 
 379:.\Generated_Source\PSoC4/PRS.c **** #endif  /* End (PRS_RUN_MODE == PRS__CLOCKED) */
 380:.\Generated_Source\PSoC4/PRS.c **** 
 381:.\Generated_Source\PSoC4/PRS.c **** 
 382:.\Generated_Source\PSoC4/PRS.c **** #if(PRS_PRS_SIZE <= 32u) /* 8-32 bits PRS */
 383:.\Generated_Source\PSoC4/PRS.c ****     /*******************************************************************************
 384:.\Generated_Source\PSoC4/PRS.c ****     * Function Name: PRS_Read
 385:.\Generated_Source\PSoC4/PRS.c ****     ********************************************************************************
 386:.\Generated_Source\PSoC4/PRS.c ****     *
 387:.\Generated_Source\PSoC4/PRS.c ****     * Summary:
 388:.\Generated_Source\PSoC4/PRS.c ****     *  Reads PRS value.
 389:.\Generated_Source\PSoC4/PRS.c ****     *
 390:.\Generated_Source\PSoC4/PRS.c ****     * Parameters:
 391:.\Generated_Source\PSoC4/PRS.c ****     *  void
 392:.\Generated_Source\PSoC4/PRS.c ****     *
ARM GAS  C:\Users\Henny\AppData\Local\Temp\ccehGmEq.s 			page 10


 393:.\Generated_Source\PSoC4/PRS.c ****     * Return:
 394:.\Generated_Source\PSoC4/PRS.c ****     *  Returns PRS value.
 395:.\Generated_Source\PSoC4/PRS.c ****     *
 396:.\Generated_Source\PSoC4/PRS.c ****     * Side Effects:
 397:.\Generated_Source\PSoC4/PRS.c ****     *  The seed value is cut according to mask = 2^(Resolution) - 1.
 398:.\Generated_Source\PSoC4/PRS.c ****     *  For example if PRS Resolution is 14 bits the mask value is:
 399:.\Generated_Source\PSoC4/PRS.c ****     *  mask = 2^(14) - 1 = 0x3FFFu.
 400:.\Generated_Source\PSoC4/PRS.c ****     *  The seed value = 0xFFFFu is cut:
 401:.\Generated_Source\PSoC4/PRS.c ****     *  seed & mask = 0xFFFFu & 0x3FFFu = 0x3FFFu.
 402:.\Generated_Source\PSoC4/PRS.c ****     *
 403:.\Generated_Source\PSoC4/PRS.c ****     *******************************************************************************/
 404:.\Generated_Source\PSoC4/PRS.c ****     uint8 PRS_Read(void) 
 405:.\Generated_Source\PSoC4/PRS.c ****     {
 122              		.loc 1 405 0
 123              		.cfi_startproc
 406:.\Generated_Source\PSoC4/PRS.c ****         /* Read PRS */
 407:.\Generated_Source\PSoC4/PRS.c ****         #if (PRS_TIME_MULTIPLEXING_ENABLE)
 408:.\Generated_Source\PSoC4/PRS.c **** 
 409:.\Generated_Source\PSoC4/PRS.c ****             uint8 seed;
 410:.\Generated_Source\PSoC4/PRS.c **** 
 411:.\Generated_Source\PSoC4/PRS.c ****             #if (PRS_PRS_SIZE <= 16u)          /* 16 bits PRS */
 412:.\Generated_Source\PSoC4/PRS.c ****                 seed = ((uint16) PRS_SEED_A__A1_REG) << 8u;
 413:.\Generated_Source\PSoC4/PRS.c ****                 seed |= PRS_SEED_A__A0_REG;
 414:.\Generated_Source\PSoC4/PRS.c **** 
 415:.\Generated_Source\PSoC4/PRS.c ****             #elif (PRS_PRS_SIZE <= 24u)        /* 24 bits PRS */
 416:.\Generated_Source\PSoC4/PRS.c ****                 seed = ((uint32) (PRS_SEED_B__A1_REG)) << 16u;
 417:.\Generated_Source\PSoC4/PRS.c ****                 seed |= ((uint32) (PRS_SEED_B__A0_REG)) << 8u;
 418:.\Generated_Source\PSoC4/PRS.c ****                 seed |= PRS_SEED_A__A0_REG;
 419:.\Generated_Source\PSoC4/PRS.c **** 
 420:.\Generated_Source\PSoC4/PRS.c ****             #else                                           /* 32 bits PRS */
 421:.\Generated_Source\PSoC4/PRS.c ****                 seed = ((uint32) PRS_SEED_B__A1_REG) << 24u;
 422:.\Generated_Source\PSoC4/PRS.c ****                 seed |= ((uint32) PRS_SEED_A__A1_REG) << 16u;
 423:.\Generated_Source\PSoC4/PRS.c ****                 seed |= ((uint32) PRS_SEED_B__A0_REG) << 8u;
 424:.\Generated_Source\PSoC4/PRS.c ****                 seed |= PRS_SEED_A__A0_REG;
 425:.\Generated_Source\PSoC4/PRS.c **** 
 426:.\Generated_Source\PSoC4/PRS.c ****             #endif  /* End (PRS_PRS_SIZE <= 8u) */
 427:.\Generated_Source\PSoC4/PRS.c **** 
 428:.\Generated_Source\PSoC4/PRS.c ****             return (seed  & PRS_MASK);
 429:.\Generated_Source\PSoC4/PRS.c **** 
 430:.\Generated_Source\PSoC4/PRS.c ****         #else
 431:.\Generated_Source\PSoC4/PRS.c **** 
 432:.\Generated_Source\PSoC4/PRS.c ****             return (CY_GET_REG8(PRS_SEED_PTR) & PRS_MASK);
 124              		.loc 1 432 0
 125 0000 014B     		ldr	r3, .L11
 126 0002 1878     		ldrb	r0, [r3]
 127 0004 C0B2     		uxtb	r0, r0
 433:.\Generated_Source\PSoC4/PRS.c **** 
 434:.\Generated_Source\PSoC4/PRS.c ****         #endif  /* End (PRS_TIME_MULTIPLEXING_ENABLE) */
 435:.\Generated_Source\PSoC4/PRS.c ****     }
 128              		.loc 1 435 0
 129              		@ sp needed
 130 0006 7047     		bx	lr
 131              	.L12:
 132              		.align	2
 133              	.L11:
 134 0008 00000F40 		.word	1074724864
 135              		.cfi_endproc
ARM GAS  C:\Users\Henny\AppData\Local\Temp\ccehGmEq.s 			page 11


 136              	.LFE7:
 137              		.size	PRS_Read, .-PRS_Read
 138              		.section	.text.PRS_WriteSeed,"ax",%progbits
 139              		.align	2
 140              		.global	PRS_WriteSeed
 141              		.code	16
 142              		.thumb_func
 143              		.type	PRS_WriteSeed, %function
 144              	PRS_WriteSeed:
 145              	.LFB8:
 436:.\Generated_Source\PSoC4/PRS.c **** 
 437:.\Generated_Source\PSoC4/PRS.c **** 
 438:.\Generated_Source\PSoC4/PRS.c ****     /*******************************************************************************
 439:.\Generated_Source\PSoC4/PRS.c ****     * Function Name: PRS_WriteSeed
 440:.\Generated_Source\PSoC4/PRS.c ****     ********************************************************************************
 441:.\Generated_Source\PSoC4/PRS.c ****     *
 442:.\Generated_Source\PSoC4/PRS.c ****     * Summary:
 443:.\Generated_Source\PSoC4/PRS.c ****     *  Writes seed value.
 444:.\Generated_Source\PSoC4/PRS.c ****     *
 445:.\Generated_Source\PSoC4/PRS.c ****     * Parameters:
 446:.\Generated_Source\PSoC4/PRS.c ****     *  seed:  Seed value.
 447:.\Generated_Source\PSoC4/PRS.c ****     *
 448:.\Generated_Source\PSoC4/PRS.c ****     * Return:
 449:.\Generated_Source\PSoC4/PRS.c ****     *  void
 450:.\Generated_Source\PSoC4/PRS.c ****     *
 451:.\Generated_Source\PSoC4/PRS.c ****     * Side Effects:
 452:.\Generated_Source\PSoC4/PRS.c ****     *  The seed value is cut according to mask = 2^(Resolution) - 1.
 453:.\Generated_Source\PSoC4/PRS.c ****     *  For example if PRS Resolution is 14 bits the mask value is:
 454:.\Generated_Source\PSoC4/PRS.c ****     *  mask = 2^(14) - 1 = 0x3FFFu.
 455:.\Generated_Source\PSoC4/PRS.c ****     *  The seed value = 0xFFFFu is cut:
 456:.\Generated_Source\PSoC4/PRS.c ****     *  seed & mask = 0xFFFFu & 0x3FFFu = 0x3FFFu.
 457:.\Generated_Source\PSoC4/PRS.c ****     *
 458:.\Generated_Source\PSoC4/PRS.c ****     *******************************************************************************/
 459:.\Generated_Source\PSoC4/PRS.c ****     void PRS_WriteSeed(uint8 seed) 
 460:.\Generated_Source\PSoC4/PRS.c ****     {
 146              		.loc 1 460 0
 147              		.cfi_startproc
 148              	.LVL5:
 461:.\Generated_Source\PSoC4/PRS.c ****         /* Masks the Seed to cut unused bits */
 462:.\Generated_Source\PSoC4/PRS.c ****         seed &= PRS_MASK;
 463:.\Generated_Source\PSoC4/PRS.c **** 
 464:.\Generated_Source\PSoC4/PRS.c ****         /* Writes Seed */
 465:.\Generated_Source\PSoC4/PRS.c ****         #if (PRS_TIME_MULTIPLEXING_ENABLE)
 466:.\Generated_Source\PSoC4/PRS.c **** 
 467:.\Generated_Source\PSoC4/PRS.c ****             #if (PRS_PRS_SIZE <= 16u)          /* 16 bits PRS */
 468:.\Generated_Source\PSoC4/PRS.c ****                 PRS_SEED_A__A1_REG = HI8(seed);
 469:.\Generated_Source\PSoC4/PRS.c ****                 PRS_SEED_A__A0_REG = LO8(seed);
 470:.\Generated_Source\PSoC4/PRS.c **** 
 471:.\Generated_Source\PSoC4/PRS.c ****             #elif (PRS_PRS_SIZE <= 24u)        /* 24 bits PRS */
 472:.\Generated_Source\PSoC4/PRS.c ****                 PRS_SEED_B__A1_REG = LO8(HI16(seed));
 473:.\Generated_Source\PSoC4/PRS.c ****                 PRS_SEED_B__A0_REG = HI8(seed);
 474:.\Generated_Source\PSoC4/PRS.c ****                 PRS_SEED_A__A0_REG = LO8(seed);
 475:.\Generated_Source\PSoC4/PRS.c **** 
 476:.\Generated_Source\PSoC4/PRS.c ****             #else                                           /* 32 bits PRS */
 477:.\Generated_Source\PSoC4/PRS.c ****                 PRS_SEED_B__A1_REG = HI8(HI16(seed));
 478:.\Generated_Source\PSoC4/PRS.c ****                 PRS_SEED_A__A1_REG = LO8(HI16(seed));
 479:.\Generated_Source\PSoC4/PRS.c ****                 PRS_SEED_B__A0_REG = HI8(seed);
ARM GAS  C:\Users\Henny\AppData\Local\Temp\ccehGmEq.s 			page 12


 480:.\Generated_Source\PSoC4/PRS.c ****                 PRS_SEED_A__A0_REG = LO8(seed);
 481:.\Generated_Source\PSoC4/PRS.c ****             #endif  /* End (PRS_PRS_SIZE <= 32u) */
 482:.\Generated_Source\PSoC4/PRS.c **** 
 483:.\Generated_Source\PSoC4/PRS.c ****             /* Resets triggers */
 484:.\Generated_Source\PSoC4/PRS.c ****             #if (PRS_WAKEUP_BEHAVIOUR == PRS__RESUMEWORK)
 485:.\Generated_Source\PSoC4/PRS.c ****                 if((PRS_sleepState & PRS_NORMAL_SEQUENCE) != 0u)
 486:.\Generated_Source\PSoC4/PRS.c ****                 {
 487:.\Generated_Source\PSoC4/PRS.c ****                     PRS_EXECUTE_DFF_RESET;
 488:.\Generated_Source\PSoC4/PRS.c ****                 }
 489:.\Generated_Source\PSoC4/PRS.c ****             #else
 490:.\Generated_Source\PSoC4/PRS.c ****                 PRS_EXECUTE_DFF_RESET;
 491:.\Generated_Source\PSoC4/PRS.c ****             #endif  /* (PRS_WAKEUP_BEHAVIOUR == PRS__RESUMEWORK) */
 492:.\Generated_Source\PSoC4/PRS.c **** 
 493:.\Generated_Source\PSoC4/PRS.c ****         #else
 494:.\Generated_Source\PSoC4/PRS.c **** 
 495:.\Generated_Source\PSoC4/PRS.c ****             CY_SET_REG8(PRS_SEED_PTR, seed);
 149              		.loc 1 495 0
 150 0000 014B     		ldr	r3, .L14
 151 0002 1870     		strb	r0, [r3]
 496:.\Generated_Source\PSoC4/PRS.c **** 
 497:.\Generated_Source\PSoC4/PRS.c ****         #endif  /* End (PRS_TIME_MULTIPLEXING_ENABLE) */
 498:.\Generated_Source\PSoC4/PRS.c ****     }
 152              		.loc 1 498 0
 153              		@ sp needed
 154 0004 7047     		bx	lr
 155              	.L15:
 156 0006 C046     		.align	2
 157              	.L14:
 158 0008 00000F40 		.word	1074724864
 159              		.cfi_endproc
 160              	.LFE8:
 161              		.size	PRS_WriteSeed, .-PRS_WriteSeed
 162              		.section	.text.PRS_ReadPolynomial,"ax",%progbits
 163              		.align	2
 164              		.global	PRS_ReadPolynomial
 165              		.code	16
 166              		.thumb_func
 167              		.type	PRS_ReadPolynomial, %function
 168              	PRS_ReadPolynomial:
 169              	.LFB9:
 499:.\Generated_Source\PSoC4/PRS.c **** 
 500:.\Generated_Source\PSoC4/PRS.c **** 
 501:.\Generated_Source\PSoC4/PRS.c ****     /*******************************************************************************
 502:.\Generated_Source\PSoC4/PRS.c ****     * Function Name: PRS_ReadPolynomial
 503:.\Generated_Source\PSoC4/PRS.c ****     ********************************************************************************
 504:.\Generated_Source\PSoC4/PRS.c ****     *
 505:.\Generated_Source\PSoC4/PRS.c ****     * Summary:
 506:.\Generated_Source\PSoC4/PRS.c ****     *  Reads PRS polynomial value.
 507:.\Generated_Source\PSoC4/PRS.c ****     *
 508:.\Generated_Source\PSoC4/PRS.c ****     * Parameters:
 509:.\Generated_Source\PSoC4/PRS.c ****     *  void
 510:.\Generated_Source\PSoC4/PRS.c ****     *
 511:.\Generated_Source\PSoC4/PRS.c ****     * Return:
 512:.\Generated_Source\PSoC4/PRS.c ****     *  Returns PRS polynomial value.
 513:.\Generated_Source\PSoC4/PRS.c ****     *
 514:.\Generated_Source\PSoC4/PRS.c ****     *******************************************************************************/
 515:.\Generated_Source\PSoC4/PRS.c ****     uint8 PRS_ReadPolynomial(void)
ARM GAS  C:\Users\Henny\AppData\Local\Temp\ccehGmEq.s 			page 13


 516:.\Generated_Source\PSoC4/PRS.c ****                                 
 517:.\Generated_Source\PSoC4/PRS.c ****     {
 170              		.loc 1 517 0
 171              		.cfi_startproc
 518:.\Generated_Source\PSoC4/PRS.c ****         /* Reads polynomial */
 519:.\Generated_Source\PSoC4/PRS.c ****         #if (PRS_TIME_MULTIPLEXING_ENABLE)
 520:.\Generated_Source\PSoC4/PRS.c **** 
 521:.\Generated_Source\PSoC4/PRS.c ****             uint8 polynomial;
 522:.\Generated_Source\PSoC4/PRS.c **** 
 523:.\Generated_Source\PSoC4/PRS.c ****             #if (PRS_PRS_SIZE <= 16u)          /* 16 bits PRS */
 524:.\Generated_Source\PSoC4/PRS.c ****                 polynomial = ((uint16) PRS_POLYNOM_A__D1_REG) << 8u;
 525:.\Generated_Source\PSoC4/PRS.c ****                 polynomial |= (PRS_POLYNOM_A__D0_REG);
 526:.\Generated_Source\PSoC4/PRS.c **** 
 527:.\Generated_Source\PSoC4/PRS.c ****             #elif (PRS_PRS_SIZE <= 24u)        /* 24 bits PRS */
 528:.\Generated_Source\PSoC4/PRS.c ****                 polynomial = ((uint32) PRS_POLYNOM_B__D1_REG) << 16u;
 529:.\Generated_Source\PSoC4/PRS.c ****                 polynomial |= ((uint32) PRS_POLYNOM_B__D0_REG) << 8u;
 530:.\Generated_Source\PSoC4/PRS.c ****                 polynomial |= PRS_POLYNOM_A__D0_REG;
 531:.\Generated_Source\PSoC4/PRS.c **** 
 532:.\Generated_Source\PSoC4/PRS.c ****             #else                                           /* 32 bits PRS */
 533:.\Generated_Source\PSoC4/PRS.c ****                 polynomial = ((uint32) PRS_POLYNOM_B__D1_REG) << 24u;
 534:.\Generated_Source\PSoC4/PRS.c ****                 polynomial |= ((uint32) PRS_POLYNOM_A__D1_REG) << 16u;
 535:.\Generated_Source\PSoC4/PRS.c ****                 polynomial |= ((uint32) PRS_POLYNOM_B__D0_REG) << 8u;
 536:.\Generated_Source\PSoC4/PRS.c ****                 polynomial |= PRS_POLYNOM_A__D0_REG;
 537:.\Generated_Source\PSoC4/PRS.c **** 
 538:.\Generated_Source\PSoC4/PRS.c ****             #endif  /* End (PRS_PRS_SIZE <= 32u) */
 539:.\Generated_Source\PSoC4/PRS.c **** 
 540:.\Generated_Source\PSoC4/PRS.c ****             return polynomial;
 541:.\Generated_Source\PSoC4/PRS.c **** 
 542:.\Generated_Source\PSoC4/PRS.c ****         #else
 543:.\Generated_Source\PSoC4/PRS.c **** 
 544:.\Generated_Source\PSoC4/PRS.c ****             return CY_GET_REG8(PRS_POLYNOM_PTR);
 172              		.loc 1 544 0
 173 0000 014B     		ldr	r3, .L17
 174 0002 1878     		ldrb	r0, [r3]
 175 0004 C0B2     		uxtb	r0, r0
 545:.\Generated_Source\PSoC4/PRS.c **** 
 546:.\Generated_Source\PSoC4/PRS.c ****         #endif  /* End (PRS_TIME_MULTIPLEXING_ENABLE) */
 547:.\Generated_Source\PSoC4/PRS.c ****     }
 176              		.loc 1 547 0
 177              		@ sp needed
 178 0006 7047     		bx	lr
 179              	.L18:
 180              		.align	2
 181              	.L17:
 182 0008 20000F40 		.word	1074724896
 183              		.cfi_endproc
 184              	.LFE9:
 185              		.size	PRS_ReadPolynomial, .-PRS_ReadPolynomial
 186              		.section	.text.PRS_WritePolynomial,"ax",%progbits
 187              		.align	2
 188              		.global	PRS_WritePolynomial
 189              		.code	16
 190              		.thumb_func
 191              		.type	PRS_WritePolynomial, %function
 192              	PRS_WritePolynomial:
 193              	.LFB10:
 548:.\Generated_Source\PSoC4/PRS.c **** 
ARM GAS  C:\Users\Henny\AppData\Local\Temp\ccehGmEq.s 			page 14


 549:.\Generated_Source\PSoC4/PRS.c **** 
 550:.\Generated_Source\PSoC4/PRS.c ****     /*******************************************************************************
 551:.\Generated_Source\PSoC4/PRS.c ****     * Function Name: PRS_WritePolynomial
 552:.\Generated_Source\PSoC4/PRS.c ****     ********************************************************************************
 553:.\Generated_Source\PSoC4/PRS.c ****     *
 554:.\Generated_Source\PSoC4/PRS.c ****     * Summary:
 555:.\Generated_Source\PSoC4/PRS.c ****     *  Writes PRS polynomial value.
 556:.\Generated_Source\PSoC4/PRS.c ****     *
 557:.\Generated_Source\PSoC4/PRS.c ****     * Parameters:
 558:.\Generated_Source\PSoC4/PRS.c ****     *  polynomial:  PRS polynomial.
 559:.\Generated_Source\PSoC4/PRS.c ****     *
 560:.\Generated_Source\PSoC4/PRS.c ****     * Return:
 561:.\Generated_Source\PSoC4/PRS.c ****     *  void
 562:.\Generated_Source\PSoC4/PRS.c ****     *
 563:.\Generated_Source\PSoC4/PRS.c ****     * Side Effects:
 564:.\Generated_Source\PSoC4/PRS.c ****     *  The polynomial value is cut according to mask = 2^(Resolution) - 1.
 565:.\Generated_Source\PSoC4/PRS.c ****     *  For example if PRS Resolution is 14 bits the mask value is:
 566:.\Generated_Source\PSoC4/PRS.c ****     *  mask = 2^(14) - 1 = 0x3FFFu.
 567:.\Generated_Source\PSoC4/PRS.c ****     *  The polynomial value = 0xFFFFu is cut:
 568:.\Generated_Source\PSoC4/PRS.c ****     *  polynomial & mask = 0xFFFFu & 0x3FFFu = 0x3FFFu.
 569:.\Generated_Source\PSoC4/PRS.c ****     *
 570:.\Generated_Source\PSoC4/PRS.c ****     *******************************************************************************/
 571:.\Generated_Source\PSoC4/PRS.c ****     void PRS_WritePolynomial(uint8 polynomial)
 572:.\Generated_Source\PSoC4/PRS.c ****                                           
 573:.\Generated_Source\PSoC4/PRS.c ****     {
 194              		.loc 1 573 0
 195              		.cfi_startproc
 196              	.LVL6:
 574:.\Generated_Source\PSoC4/PRS.c ****         /* Mask polynomial to cut unused bits */
 575:.\Generated_Source\PSoC4/PRS.c ****         polynomial &= PRS_MASK;
 576:.\Generated_Source\PSoC4/PRS.c **** 
 577:.\Generated_Source\PSoC4/PRS.c ****         /* Write polynomial */
 578:.\Generated_Source\PSoC4/PRS.c ****         #if (PRS_TIME_MULTIPLEXING_ENABLE)
 579:.\Generated_Source\PSoC4/PRS.c **** 
 580:.\Generated_Source\PSoC4/PRS.c ****             #if (PRS_PRS_SIZE <= 16u)          /* 16 bits PRS */
 581:.\Generated_Source\PSoC4/PRS.c **** 
 582:.\Generated_Source\PSoC4/PRS.c ****                 PRS_POLYNOM_A__D1_REG = HI8(polynomial);
 583:.\Generated_Source\PSoC4/PRS.c ****                 PRS_POLYNOM_A__D0_REG = LO8(polynomial);
 584:.\Generated_Source\PSoC4/PRS.c **** 
 585:.\Generated_Source\PSoC4/PRS.c ****             #elif (PRS_PRS_SIZE <= 24u)        /* 24 bits PRS */
 586:.\Generated_Source\PSoC4/PRS.c ****                 PRS_POLYNOM_B__D1_REG = LO8(HI16(polynomial));
 587:.\Generated_Source\PSoC4/PRS.c ****                 PRS_POLYNOM_B__D0_REG = HI8(polynomial);
 588:.\Generated_Source\PSoC4/PRS.c ****                 PRS_POLYNOM_A__D0_REG = LO8(polynomial);
 589:.\Generated_Source\PSoC4/PRS.c **** 
 590:.\Generated_Source\PSoC4/PRS.c ****             #else                                           /* 32 bits PRS */
 591:.\Generated_Source\PSoC4/PRS.c ****                 PRS_POLYNOM_B__D1_REG = HI8(HI16(polynomial));
 592:.\Generated_Source\PSoC4/PRS.c ****                 PRS_POLYNOM_A__D1_REG = LO8(HI16(polynomial));
 593:.\Generated_Source\PSoC4/PRS.c ****                 PRS_POLYNOM_B__D0_REG = HI8(polynomial);
 594:.\Generated_Source\PSoC4/PRS.c ****                 PRS_POLYNOM_A__D0_REG = LO8(polynomial);
 595:.\Generated_Source\PSoC4/PRS.c **** 
 596:.\Generated_Source\PSoC4/PRS.c ****             #endif  /* End (PRS_PRS_SIZE <= 32u) */
 597:.\Generated_Source\PSoC4/PRS.c **** 
 598:.\Generated_Source\PSoC4/PRS.c ****             /* Resets triggers */
 599:.\Generated_Source\PSoC4/PRS.c ****             #if (PRS_WAKEUP_BEHAVIOUR == PRS__RESUMEWORK)
 600:.\Generated_Source\PSoC4/PRS.c ****                 if((PRS_sleepState & PRS_NORMAL_SEQUENCE) != 0u)
 601:.\Generated_Source\PSoC4/PRS.c ****                 {
 602:.\Generated_Source\PSoC4/PRS.c ****                     PRS_EXECUTE_DFF_RESET;
ARM GAS  C:\Users\Henny\AppData\Local\Temp\ccehGmEq.s 			page 15


 603:.\Generated_Source\PSoC4/PRS.c ****                 }
 604:.\Generated_Source\PSoC4/PRS.c ****             #else
 605:.\Generated_Source\PSoC4/PRS.c ****                 PRS_EXECUTE_DFF_RESET;
 606:.\Generated_Source\PSoC4/PRS.c ****             #endif  /* (PRS_WAKEUP_BEHAVIOUR == PRS__RESUMEWORK) */
 607:.\Generated_Source\PSoC4/PRS.c **** 
 608:.\Generated_Source\PSoC4/PRS.c ****         #else
 609:.\Generated_Source\PSoC4/PRS.c **** 
 610:.\Generated_Source\PSoC4/PRS.c ****             CY_SET_REG8(PRS_POLYNOM_PTR, polynomial);
 197              		.loc 1 610 0
 198 0000 014B     		ldr	r3, .L20
 199 0002 1870     		strb	r0, [r3]
 611:.\Generated_Source\PSoC4/PRS.c **** 
 612:.\Generated_Source\PSoC4/PRS.c ****         #endif  /* End (PRS_TIME_MULTIPLEXING_ENABLE) */
 613:.\Generated_Source\PSoC4/PRS.c ****     }
 200              		.loc 1 613 0
 201              		@ sp needed
 202 0004 7047     		bx	lr
 203              	.L21:
 204 0006 C046     		.align	2
 205              	.L20:
 206 0008 20000F40 		.word	1074724896
 207              		.cfi_endproc
 208              	.LFE10:
 209              		.size	PRS_WritePolynomial, .-PRS_WritePolynomial
 210              		.section	.text.PRS_Init,"ax",%progbits
 211              		.align	2
 212              		.global	PRS_Init
 213              		.code	16
 214              		.thumb_func
 215              		.type	PRS_Init, %function
 216              	PRS_Init:
 217              	.LFB2:
  61:.\Generated_Source\PSoC4/PRS.c ****     /* Writes seed value and ponynom value provided for customizer */
 218              		.loc 1 61 0
 219              		.cfi_startproc
 220 0000 08B5     		push	{r3, lr}
 221              		.cfi_def_cfa_offset 8
 222              		.cfi_offset 3, -8
 223              		.cfi_offset 14, -4
  64:.\Generated_Source\PSoC4/PRS.c ****         PRS_WriteSeed(PRS_DEFAULT_SEED);
 224              		.loc 1 64 0
 225 0002 B820     		mov	r0, #184
 226 0004 FFF7FEFF 		bl	PRS_WritePolynomial
 227              	.LVL7:
  65:.\Generated_Source\PSoC4/PRS.c ****         #if (PRS_RUN_MODE == PRS__CLOCKED)
 228              		.loc 1 65 0
 229 0008 FF20     		mov	r0, #255
 230 000a FFF7FEFF 		bl	PRS_WriteSeed
 231              	.LVL8:
  67:.\Generated_Source\PSoC4/PRS.c ****         #endif  /* End (PRS_RUN_MODE == PRS__CLOCKED) */
 232              		.loc 1 67 0
 233 000e FF20     		mov	r0, #255
 234 0010 FFF7FEFF 		bl	PRS_ResetSeedInit
 235              	.LVL9:
  69:.\Generated_Source\PSoC4/PRS.c ****     #else
 236              		.loc 1 69 0
 237 0014 FFF7FEFF 		bl	PRS_Enable
ARM GAS  C:\Users\Henny\AppData\Local\Temp\ccehGmEq.s 			page 16


 238              	.LVL10:
  81:.\Generated_Source\PSoC4/PRS.c **** 
 239              		.loc 1 81 0
 240              		@ sp needed
 241 0018 08BD     		pop	{r3, pc}
 242              		.cfi_endproc
 243              	.LFE2:
 244              		.size	PRS_Init, .-PRS_Init
 245 001a C046     		.section	.text.PRS_Start,"ax",%progbits
 246              		.align	2
 247              		.global	PRS_Start
 248              		.code	16
 249              		.thumb_func
 250              		.type	PRS_Start, %function
 251              	PRS_Start:
 252              	.LFB4:
 127:.\Generated_Source\PSoC4/PRS.c ****     /* Writes seed value and ponynom value provided from customizer */
 253              		.loc 1 127 0
 254              		.cfi_startproc
 255 0000 08B5     		push	{r3, lr}
 256              		.cfi_def_cfa_offset 8
 257              		.cfi_offset 3, -8
 258              		.cfi_offset 14, -4
 129:.\Generated_Source\PSoC4/PRS.c ****     {
 259              		.loc 1 129 0
 260 0002 064B     		ldr	r3, .L25
 261 0004 1B78     		ldrb	r3, [r3]
 262 0006 002B     		cmp	r3, #0
 263 0008 04D1     		bne	.L24
 131:.\Generated_Source\PSoC4/PRS.c ****         PRS_initVar = 1u;
 264              		.loc 1 131 0
 265 000a FFF7FEFF 		bl	PRS_Init
 266              	.LVL11:
 132:.\Generated_Source\PSoC4/PRS.c ****     }
 267              		.loc 1 132 0
 268 000e 0122     		mov	r2, #1
 269 0010 024B     		ldr	r3, .L25
 270 0012 1A70     		strb	r2, [r3]
 271              	.L24:
 135:.\Generated_Source\PSoC4/PRS.c **** }
 272              		.loc 1 135 0
 273 0014 FFF7FEFF 		bl	PRS_Enable
 274              	.LVL12:
 136:.\Generated_Source\PSoC4/PRS.c **** 
 275              		.loc 1 136 0
 276              		@ sp needed
 277 0018 08BD     		pop	{r3, pc}
 278              	.L26:
 279 001a C046     		.align	2
 280              	.L25:
 281 001c 00000000 		.word	.LANCHOR0
 282              		.cfi_endproc
 283              	.LFE4:
 284              		.size	PRS_Start, .-PRS_Start
 285              		.global	PRS_backup
 286              		.global	PRS_initVar
 287              		.data
ARM GAS  C:\Users\Henny\AppData\Local\Temp\ccehGmEq.s 			page 17


 288              		.align	2
 289              		.type	PRS_backup, %object
 290              		.size	PRS_backup, 2
 291              	PRS_backup:
 292 0000 00       		.byte	0
 293 0001 FF       		.byte	-1
 294 0002 0000     		.bss
 295              		.set	.LANCHOR0,. + 0
 296              		.type	PRS_initVar, %object
 297              		.size	PRS_initVar, 1
 298              	PRS_initVar:
 299 0000 00       		.space	1
 300              		.text
 301              	.Letext0:
 302              		.file 2 ".\\Generated_Source\\PSoC4\\cytypes.h"
 303              		.file 3 ".\\Generated_Source\\PSoC4\\PRS.h"
 304              		.file 4 ".\\Generated_Source\\PSoC4\\CyLib.h"