ARM GAS  C:\Users\Henny\AppData\Local\Temp\ccmp9WGO.s 			page 1


   1              		.cpu cortex-m0
   2              		.fpu softvfp
   3              		.eabi_attribute 20, 1
   4              		.eabi_attribute 21, 1
   5              		.eabi_attribute 23, 3
   6              		.eabi_attribute 24, 1
   7              		.eabi_attribute 25, 1
   8              		.eabi_attribute 26, 1
   9              		.eabi_attribute 30, 1
  10              		.eabi_attribute 34, 0
  11              		.eabi_attribute 18, 4
  12              		.code	16
  13              		.file	"CapSense_SMS.c"
  14              		.text
  15              	.Ltext0:
  16              		.cfi_sections	.debug_frame
  17              		.section	.text.CapSense_UpdateThresholds,"ax",%progbits
  18              		.align	2
  19              		.global	CapSense_UpdateThresholds
  20              		.code	16
  21              		.thumb_func
  22              		.type	CapSense_UpdateThresholds, %function
  23              	CapSense_UpdateThresholds:
  24              	.LFB37:
  25              		.file 1 ".\\Generated_Source\\PSoC4\\CapSense_SMS.c"
   1:.\Generated_Source\PSoC4/CapSense_SMS.c **** /*******************************************************************************
   2:.\Generated_Source\PSoC4/CapSense_SMS.c **** * File Name: CapSense_SMS.c
   3:.\Generated_Source\PSoC4/CapSense_SMS.c **** * Version 2.40
   4:.\Generated_Source\PSoC4/CapSense_SMS.c **** *
   5:.\Generated_Source\PSoC4/CapSense_SMS.c **** * Description:
   6:.\Generated_Source\PSoC4/CapSense_SMS.c **** *  This file provides the source code of wrapper between CapSense CSD component
   7:.\Generated_Source\PSoC4/CapSense_SMS.c **** *  and Auto Tuning library.
   8:.\Generated_Source\PSoC4/CapSense_SMS.c **** *
   9:.\Generated_Source\PSoC4/CapSense_SMS.c **** * Note:
  10:.\Generated_Source\PSoC4/CapSense_SMS.c **** *
  11:.\Generated_Source\PSoC4/CapSense_SMS.c **** ********************************************************************************
  12:.\Generated_Source\PSoC4/CapSense_SMS.c **** * Copyright 2013-2015, Cypress Semiconductor Corporation.  All rights reserved.
  13:.\Generated_Source\PSoC4/CapSense_SMS.c **** * You may use this file only in accordance with the license, terms, conditions,
  14:.\Generated_Source\PSoC4/CapSense_SMS.c **** * disclaimers, and limitations in the end user license agreement accompanying
  15:.\Generated_Source\PSoC4/CapSense_SMS.c **** * the software package with which this file was provided.
  16:.\Generated_Source\PSoC4/CapSense_SMS.c **** *******************************************************************************/
  17:.\Generated_Source\PSoC4/CapSense_SMS.c **** 
  18:.\Generated_Source\PSoC4/CapSense_SMS.c **** #include "CapSense_SMS.h"
  19:.\Generated_Source\PSoC4/CapSense_SMS.c **** #include "CapSense_PVT.h"
  20:.\Generated_Source\PSoC4/CapSense_SMS.c **** 
  21:.\Generated_Source\PSoC4/CapSense_SMS.c **** #include "cytypes.h"
  22:.\Generated_Source\PSoC4/CapSense_SMS.c **** 
  23:.\Generated_Source\PSoC4/CapSense_SMS.c **** #if (CapSense_TUNING_METHOD == CapSense__TUNING_AUTO)
  24:.\Generated_Source\PSoC4/CapSense_SMS.c **** 
  25:.\Generated_Source\PSoC4/CapSense_SMS.c **** 
  26:.\Generated_Source\PSoC4/CapSense_SMS.c **** /*  Real Charge Divider values */
  27:.\Generated_Source\PSoC4/CapSense_SMS.c **** #if ((0u != CapSense_IS_M0S8PERI_BLOCK) && (0u == CY_PSOC4_4000))
  28:.\Generated_Source\PSoC4/CapSense_SMS.c ****     /*  Dividers are not chained */
  29:.\Generated_Source\PSoC4/CapSense_SMS.c ****     #if (CYDEV_BCLK__HFCLK__MHZ > 24u)
  30:.\Generated_Source\PSoC4/CapSense_SMS.c ****         const uint8 CapSense_prescalerTable[CapSense_PRESCALERS_TBL_SIZE] = {
  31:.\Generated_Source\PSoC4/CapSense_SMS.c ****             4u,     4u,     4u,    8u,    8u,    8u,    8u,    16u,    16u,    16u,    16u,    16u,
  32:.\Generated_Source\PSoC4/CapSense_SMS.c ****         };
ARM GAS  C:\Users\Henny\AppData\Local\Temp\ccmp9WGO.s 			page 2


  33:.\Generated_Source\PSoC4/CapSense_SMS.c ****     #elif (CYDEV_BCLK__HFCLK__MHZ >12u)
  34:.\Generated_Source\PSoC4/CapSense_SMS.c ****         const uint8 CapSense_prescalerTable[CapSense_PRESCALERS_TBL_SIZE] = {
  35:.\Generated_Source\PSoC4/CapSense_SMS.c ****             2u,     2u,     2u,    4u,    4u,    4u,    4u,    8u,    8u,    8u,    8u,    8u,    8
  36:.\Generated_Source\PSoC4/CapSense_SMS.c ****         };
  37:.\Generated_Source\PSoC4/CapSense_SMS.c ****     #else   /* (CYDEV_BCLK__HFCLK__MHZ > 12u) */
  38:.\Generated_Source\PSoC4/CapSense_SMS.c ****         const uint8 CapSense_prescalerTable[CapSense_PRESCALERS_TBL_SIZE] = {
  39:.\Generated_Source\PSoC4/CapSense_SMS.c ****             1u,     1u,     1u,    2u,    2u,    2u,    2u,    4u,    4u,    4u,    4u,    4u,    4
  40:.\Generated_Source\PSoC4/CapSense_SMS.c ****         };
  41:.\Generated_Source\PSoC4/CapSense_SMS.c ****     #endif /* (CYDEV_BCLK__HFCLK__MHZ > 24u) */
  42:.\Generated_Source\PSoC4/CapSense_SMS.c **** 
  43:.\Generated_Source\PSoC4/CapSense_SMS.c **** #elif (0u != CapSense_IS_M0S8PERI_BLOCK)
  44:.\Generated_Source\PSoC4/CapSense_SMS.c ****     /*  Dividers are not chained (PSoC 4000) */
  45:.\Generated_Source\PSoC4/CapSense_SMS.c ****     #if (CYDEV_BCLK__HFCLK__MHZ >= 12u)
  46:.\Generated_Source\PSoC4/CapSense_SMS.c ****         const uint8 CapSense_prescalerTable[CapSense_PRESCALERS_TBL_SIZE] = {
  47:.\Generated_Source\PSoC4/CapSense_SMS.c ****             1u,     1u,     1u,    2u,    2u,    2u,    2u,    4u,    4u,    4u,    4u,    4u,    4
  48:.\Generated_Source\PSoC4/CapSense_SMS.c ****         };
  49:.\Generated_Source\PSoC4/CapSense_SMS.c **** 
  50:.\Generated_Source\PSoC4/CapSense_SMS.c ****     #elif (CYDEV_BCLK__HFCLK__MHZ >= 6u)
  51:.\Generated_Source\PSoC4/CapSense_SMS.c ****         const uint8 CapSense_prescalerTable[CapSense_PRESCALERS_TBL_SIZE] = {
  52:.\Generated_Source\PSoC4/CapSense_SMS.c ****             1u,     1u,     1u,    1u,    1u,    1u,    1u,    2u,    2u,    2u,    2u,    2u,    2
  53:.\Generated_Source\PSoC4/CapSense_SMS.c ****         };
  54:.\Generated_Source\PSoC4/CapSense_SMS.c ****     #else
  55:.\Generated_Source\PSoC4/CapSense_SMS.c ****         const uint8 CapSense_prescalerTable[CapSense_PRESCALERS_TBL_SIZE] = {
  56:.\Generated_Source\PSoC4/CapSense_SMS.c ****             1u,     1u,     1u,    1u,    1u,    1u,    1u,    1u,    1u,    1u,    1u,    1u,    1
  57:.\Generated_Source\PSoC4/CapSense_SMS.c ****         };
  58:.\Generated_Source\PSoC4/CapSense_SMS.c ****     #endif /* (CYDEV_BCLK__HFCLK__MHZ > 12u) */
  59:.\Generated_Source\PSoC4/CapSense_SMS.c **** 
  60:.\Generated_Source\PSoC4/CapSense_SMS.c **** #else
  61:.\Generated_Source\PSoC4/CapSense_SMS.c ****     /*  Dividers are chained (PSoC 4100, PSoC 4200) */
  62:.\Generated_Source\PSoC4/CapSense_SMS.c ****     #if (CYDEV_BCLK__HFCLK__MHZ > 24u)
  63:.\Generated_Source\PSoC4/CapSense_SMS.c ****         const uint8 CapSense_prescalerTable[CapSense_PRESCALERS_TBL_SIZE] = {
  64:.\Generated_Source\PSoC4/CapSense_SMS.c ****             2u,     2u,     2u,    4u,    4u,    4u,    4u,    8u,    8u,    8u,    8u,    8u,    8
  65:.\Generated_Source\PSoC4/CapSense_SMS.c ****         };
  66:.\Generated_Source\PSoC4/CapSense_SMS.c **** 
  67:.\Generated_Source\PSoC4/CapSense_SMS.c ****     #elif (CYDEV_BCLK__HFCLK__MHZ >12u)
  68:.\Generated_Source\PSoC4/CapSense_SMS.c ****         const uint8 CapSense_prescalerTable[CapSense_PRESCALERS_TBL_SIZE] = {
  69:.\Generated_Source\PSoC4/CapSense_SMS.c ****             1u,     1u,     1u,    2u,    2u,    2u,    2u,    4u,    4u,    4u,    4u,    4u,    4
  70:.\Generated_Source\PSoC4/CapSense_SMS.c ****         };
  71:.\Generated_Source\PSoC4/CapSense_SMS.c ****     #else   /* (CYDEV_BCLK__HFCLK__MHZ > 12u) */
  72:.\Generated_Source\PSoC4/CapSense_SMS.c ****         const uint8 CapSense_prescalerTable[CapSense_PRESCALERS_TBL_SIZE] = {
  73:.\Generated_Source\PSoC4/CapSense_SMS.c ****             1u,     1u,     1u,    1u,    1u,    1u,    1u,    2u,    2u,    2u,    2u,    2u,    2
  74:.\Generated_Source\PSoC4/CapSense_SMS.c ****         };
  75:.\Generated_Source\PSoC4/CapSense_SMS.c ****     #endif /* (CYDEV_BCLK__HFCLK__MHZ > 24u) */
  76:.\Generated_Source\PSoC4/CapSense_SMS.c **** #endif /* ((0u != CapSense_IS_M0S8PERI_BLOCK) && (0u == CY_PSOC4_4000)) */
  77:.\Generated_Source\PSoC4/CapSense_SMS.c **** 
  78:.\Generated_Source\PSoC4/CapSense_SMS.c **** 
  79:.\Generated_Source\PSoC4/CapSense_SMS.c **** uint8 CapSense_noiseEnvelopeTbl[CapSense_TOTAL_SENSOR_COUNT];
  80:.\Generated_Source\PSoC4/CapSense_SMS.c **** uint8 CapSense_runningDifferenceTbl[CapSense_TOTAL_SENSOR_COUNT];
  81:.\Generated_Source\PSoC4/CapSense_SMS.c **** uint8 CapSense_signRegisterTbl[CapSense_TOTAL_SENSOR_COUNT];
  82:.\Generated_Source\PSoC4/CapSense_SMS.c **** uint16 CapSense_sampleMinTbl[CapSense_TOTAL_SENSOR_COUNT];
  83:.\Generated_Source\PSoC4/CapSense_SMS.c **** uint16 CapSense_sampleMaxTbl[CapSense_TOTAL_SENSOR_COUNT];
  84:.\Generated_Source\PSoC4/CapSense_SMS.c **** uint16 CapSense_previousSampleTbl[CapSense_TOTAL_SENSOR_COUNT];
  85:.\Generated_Source\PSoC4/CapSense_SMS.c **** uint8 CapSense_kValueTbl[CapSense_TOTAL_SENSOR_COUNT];
  86:.\Generated_Source\PSoC4/CapSense_SMS.c **** 
  87:.\Generated_Source\PSoC4/CapSense_SMS.c **** uint8 CapSense_sensorSensitivity[] = {
  88:.\Generated_Source\PSoC4/CapSense_SMS.c ****     2u, 2u, 2u, 2u, 2u, 
  89:.\Generated_Source\PSoC4/CapSense_SMS.c **** };
ARM GAS  C:\Users\Henny\AppData\Local\Temp\ccmp9WGO.s 			page 3


  90:.\Generated_Source\PSoC4/CapSense_SMS.c **** 
  91:.\Generated_Source\PSoC4/CapSense_SMS.c **** CapSense_CONFIG_TYPE_P4_v2_40 CapSense_config;
  92:.\Generated_Source\PSoC4/CapSense_SMS.c **** CapSense_CONFIG_TYPE_POINTERS_P4_v2_40 const CapSense_configPointers = {
  93:.\Generated_Source\PSoC4/CapSense_SMS.c ****     CapSense_modulationIDAC,
  94:.\Generated_Source\PSoC4/CapSense_SMS.c ****     CapSense_compensationIDAC,
  95:.\Generated_Source\PSoC4/CapSense_SMS.c ****     CapSense_sensorSensitivity,
  96:.\Generated_Source\PSoC4/CapSense_SMS.c ****     CapSense_senseClkDividerVal,
  97:.\Generated_Source\PSoC4/CapSense_SMS.c ****     CapSense_sampleClkDividerVal,
  98:.\Generated_Source\PSoC4/CapSense_SMS.c ****     CapSense_widgetNumber,
  99:.\Generated_Source\PSoC4/CapSense_SMS.c ****     CapSense_widgetResolution,
 100:.\Generated_Source\PSoC4/CapSense_SMS.c ****     CapSense_noiseEnvelopeTbl,
 101:.\Generated_Source\PSoC4/CapSense_SMS.c ****     CapSense_runningDifferenceTbl,
 102:.\Generated_Source\PSoC4/CapSense_SMS.c ****     CapSense_signRegisterTbl,
 103:.\Generated_Source\PSoC4/CapSense_SMS.c ****     CapSense_sampleMinTbl,
 104:.\Generated_Source\PSoC4/CapSense_SMS.c ****     CapSense_sampleMaxTbl,
 105:.\Generated_Source\PSoC4/CapSense_SMS.c ****     CapSense_previousSampleTbl,
 106:.\Generated_Source\PSoC4/CapSense_SMS.c ****     CapSense_kValueTbl,
 107:.\Generated_Source\PSoC4/CapSense_SMS.c ****     CapSense_scanSpeedTbl,
 108:.\Generated_Source\PSoC4/CapSense_SMS.c ****     CapSense_prescalerTable,
 109:.\Generated_Source\PSoC4/CapSense_SMS.c ****     (const uint8  *)CapSense_rawDataIndex,
 110:.\Generated_Source\PSoC4/CapSense_SMS.c ****     (const uint8  *)CapSense_numberOfSensors,
 111:.\Generated_Source\PSoC4/CapSense_SMS.c ****     &CapSense_GetSensorRaw,
 112:.\Generated_Source\PSoC4/CapSense_SMS.c ****     &CapSense_PreScan,
 113:.\Generated_Source\PSoC4/CapSense_SMS.c ****     &CapSense_ReadSensorRaw,
 114:.\Generated_Source\PSoC4/CapSense_SMS.c ****     &CapSense_GetBitValue,
 115:.\Generated_Source\PSoC4/CapSense_SMS.c ****     &CapSense_SetBitValue
 116:.\Generated_Source\PSoC4/CapSense_SMS.c **** };
 117:.\Generated_Source\PSoC4/CapSense_SMS.c **** 
 118:.\Generated_Source\PSoC4/CapSense_SMS.c **** 
 119:.\Generated_Source\PSoC4/CapSense_SMS.c **** /*******************************************************************************
 120:.\Generated_Source\PSoC4/CapSense_SMS.c **** * Function Name: CapSense_AutoTune
 121:.\Generated_Source\PSoC4/CapSense_SMS.c **** ********************************************************************************
 122:.\Generated_Source\PSoC4/CapSense_SMS.c **** *
 123:.\Generated_Source\PSoC4/CapSense_SMS.c **** * Summary:
 124:.\Generated_Source\PSoC4/CapSense_SMS.c **** *  Provides the tuning procedure for all sensors.
 125:.\Generated_Source\PSoC4/CapSense_SMS.c **** *
 126:.\Generated_Source\PSoC4/CapSense_SMS.c **** * Parameters:
 127:.\Generated_Source\PSoC4/CapSense_SMS.c **** *  None
 128:.\Generated_Source\PSoC4/CapSense_SMS.c **** *
 129:.\Generated_Source\PSoC4/CapSense_SMS.c **** * Return:
 130:.\Generated_Source\PSoC4/CapSense_SMS.c **** *  None
 131:.\Generated_Source\PSoC4/CapSense_SMS.c **** *
 132:.\Generated_Source\PSoC4/CapSense_SMS.c **** * Global Variables:
 133:.\Generated_Source\PSoC4/CapSense_SMS.c **** *   CapSense_config: the structure which contains configuration parameters
 134:.\Generated_Source\PSoC4/CapSense_SMS.c **** *   CapSense_senseClkDividerVal[]: used to store the Analog Switch
 135:.\Generated_Source\PSoC4/CapSense_SMS.c **** *   dividers for each sensor.
 136:.\Generated_Source\PSoC4/CapSense_SMS.c **** *   CapSense_senseClkDividerVal[]: used to store the
 137:.\Generated_Source\PSoC4/CapSense_SMS.c **** *    Analog Switch divider for all sensors.
 138:.\Generated_Source\PSoC4/CapSense_SMS.c **** *   CapSense_prescalersTuningDone - used to notify the Tuner GUI that
 139:.\Generated_Source\PSoC4/CapSense_SMS.c **** *   the pre-scalers tuning  is done.
 140:.\Generated_Source\PSoC4/CapSense_SMS.c **** *
 141:.\Generated_Source\PSoC4/CapSense_SMS.c **** * Side Effects:
 142:.\Generated_Source\PSoC4/CapSense_SMS.c **** *  None
 143:.\Generated_Source\PSoC4/CapSense_SMS.c **** *
 144:.\Generated_Source\PSoC4/CapSense_SMS.c **** *******************************************************************************/
 145:.\Generated_Source\PSoC4/CapSense_SMS.c **** void CapSense_AutoTune(void)
 146:.\Generated_Source\PSoC4/CapSense_SMS.c **** {
ARM GAS  C:\Users\Henny\AppData\Local\Temp\ccmp9WGO.s 			page 4


 147:.\Generated_Source\PSoC4/CapSense_SMS.c ****     uint32 curSensor;
 148:.\Generated_Source\PSoC4/CapSense_SMS.c ****     uint32 widget;
 149:.\Generated_Source\PSoC4/CapSense_SMS.c **** 
 150:.\Generated_Source\PSoC4/CapSense_SMS.c ****     CapSense_config.totalScanslotsNum = CapSense_TOTAL_SCANSLOT_COUNT;
 151:.\Generated_Source\PSoC4/CapSense_SMS.c ****     CapSense_config.totalWidgetsNum = CapSense_END_OF_WIDGETS_INDEX;
 152:.\Generated_Source\PSoC4/CapSense_SMS.c ****     CapSense_config.totalSensorsNum = CapSense_TOTAL_SENSOR_COUNT;
 153:.\Generated_Source\PSoC4/CapSense_SMS.c **** 
 154:.\Generated_Source\PSoC4/CapSense_SMS.c ****     CapSense_config.hfclkFreq_MHz = CYDEV_BCLK__HFCLK__MHZ;
 155:.\Generated_Source\PSoC4/CapSense_SMS.c ****     CapSense_config.sensetivitySeed = CapSense_SENSETIVITY_FACTOR;
 156:.\Generated_Source\PSoC4/CapSense_SMS.c **** 
 157:.\Generated_Source\PSoC4/CapSense_SMS.c ****     CapSense_config.pointers = &CapSense_configPointers;
 158:.\Generated_Source\PSoC4/CapSense_SMS.c **** 
 159:.\Generated_Source\PSoC4/CapSense_SMS.c ****     CapSense_SetAnalogSwitchesSrcDirect();
 160:.\Generated_Source\PSoC4/CapSense_SMS.c **** 
 161:.\Generated_Source\PSoC4/CapSense_SMS.c ****     for(widget = 0u; widget < CapSense_config.totalWidgetsNum; widget++)
 162:.\Generated_Source\PSoC4/CapSense_SMS.c ****     {
 163:.\Generated_Source\PSoC4/CapSense_SMS.c ****         CapSense_widgetResolution[widget] = CapSense_CALIBRATION_RESOLUTION;
 164:.\Generated_Source\PSoC4/CapSense_SMS.c ****     }
 165:.\Generated_Source\PSoC4/CapSense_SMS.c **** 
 166:.\Generated_Source\PSoC4/CapSense_SMS.c **** 
 167:.\Generated_Source\PSoC4/CapSense_SMS.c ****     for(curSensor = 0u; curSensor < CapSense_TOTAL_SCANSLOT_COUNT; curSensor++)
 168:.\Generated_Source\PSoC4/CapSense_SMS.c ****     {
 169:.\Generated_Source\PSoC4/CapSense_SMS.c ****         CapSense_senseClkDividerVal[curSensor] = CapSense_CALIBRATION_ASD;
 170:.\Generated_Source\PSoC4/CapSense_SMS.c ****         CapSense_sampleClkDividerVal[curSensor] = CapSense_CALIBRATION_MD;
 171:.\Generated_Source\PSoC4/CapSense_SMS.c ****     }
 172:.\Generated_Source\PSoC4/CapSense_SMS.c **** 
 173:.\Generated_Source\PSoC4/CapSense_SMS.c ****     CapSense_DisableBaselineIDAC();
 174:.\Generated_Source\PSoC4/CapSense_SMS.c **** 
 175:.\Generated_Source\PSoC4/CapSense_SMS.c ****     CalibrateSensors_P4_v2_40(&CapSense_config, CapSense_CAL_RAW_COUNT);
 176:.\Generated_Source\PSoC4/CapSense_SMS.c **** 
 177:.\Generated_Source\PSoC4/CapSense_SMS.c ****     #if(0u != CapSense_TOTAL_CENTROIDS_COUNT)
 178:.\Generated_Source\PSoC4/CapSense_SMS.c ****         CapSense_NormalizeWidgets(CapSense_END_OF_WIDGETS_INDEX, CapSense_modulationIDAC);
 179:.\Generated_Source\PSoC4/CapSense_SMS.c ****     #endif /* (0u != CapSense_TOTAL_CENTROIDS_COUNT)  */
 180:.\Generated_Source\PSoC4/CapSense_SMS.c **** 
 181:.\Generated_Source\PSoC4/CapSense_SMS.c ****     TunePrescalers_P4_v2_40(&CapSense_config);
 182:.\Generated_Source\PSoC4/CapSense_SMS.c **** 
 183:.\Generated_Source\PSoC4/CapSense_SMS.c ****     #if(CapSense_PRS_OPTIONS != CapSense__PRS_NONE)
 184:.\Generated_Source\PSoC4/CapSense_SMS.c ****         CapSense_prescalersTuningDone = 1u;
 185:.\Generated_Source\PSoC4/CapSense_SMS.c ****     #endif /* (CapSense_PRS_OPTIONS == CapSense__PRS_NONE) */
 186:.\Generated_Source\PSoC4/CapSense_SMS.c **** 
 187:.\Generated_Source\PSoC4/CapSense_SMS.c ****     CalibrateSensors_P4_v2_40(&CapSense_config, CapSense_CAL_RAW_COUNT);
 188:.\Generated_Source\PSoC4/CapSense_SMS.c ****     #if(0u != CapSense_TOTAL_CENTROIDS_COUNT)
 189:.\Generated_Source\PSoC4/CapSense_SMS.c ****         CapSense_NormalizeWidgets(CapSense_END_OF_WIDGETS_INDEX, CapSense_modulationIDAC);
 190:.\Generated_Source\PSoC4/CapSense_SMS.c ****     #endif /* (0u != CapSense_TOTAL_CENTROIDS_COUNT)  */
 191:.\Generated_Source\PSoC4/CapSense_SMS.c ****     TuneSensitivity_P4_v2_40(&CapSense_config);
 192:.\Generated_Source\PSoC4/CapSense_SMS.c **** 
 193:.\Generated_Source\PSoC4/CapSense_SMS.c ****     CapSense_EnableBaselineIDAC(&CapSense_config);
 194:.\Generated_Source\PSoC4/CapSense_SMS.c **** 
 195:.\Generated_Source\PSoC4/CapSense_SMS.c ****     for(curSensor = 0u; curSensor < CapSense_TOTAL_SCANSLOT_COUNT; curSensor++)
 196:.\Generated_Source\PSoC4/CapSense_SMS.c ****     {
 197:.\Generated_Source\PSoC4/CapSense_SMS.c ****         CapSense_UpdateThresholds(curSensor);
 198:.\Generated_Source\PSoC4/CapSense_SMS.c ****     }
 199:.\Generated_Source\PSoC4/CapSense_SMS.c **** }
 200:.\Generated_Source\PSoC4/CapSense_SMS.c **** 
 201:.\Generated_Source\PSoC4/CapSense_SMS.c **** 
 202:.\Generated_Source\PSoC4/CapSense_SMS.c **** /*******************************************************************************
 203:.\Generated_Source\PSoC4/CapSense_SMS.c **** * Function Name: CapSense_UpdateThresholds
ARM GAS  C:\Users\Henny\AppData\Local\Temp\ccmp9WGO.s 			page 5


 204:.\Generated_Source\PSoC4/CapSense_SMS.c **** ********************************************************************************
 205:.\Generated_Source\PSoC4/CapSense_SMS.c **** *
 206:.\Generated_Source\PSoC4/CapSense_SMS.c **** * Summary:
 207:.\Generated_Source\PSoC4/CapSense_SMS.c **** *  The API updates the Finger Threshold, Hysteresis, Noise Threshold, and
 208:.\Generated_Source\PSoC4/CapSense_SMS.c **** *  Negative Noise Threshold in the AutoTuning (Smartsense) Mode.
 209:.\Generated_Source\PSoC4/CapSense_SMS.c **** *
 210:.\Generated_Source\PSoC4/CapSense_SMS.c **** * Parameters:
 211:.\Generated_Source\PSoC4/CapSense_SMS.c **** *  sensor: sensor number.
 212:.\Generated_Source\PSoC4/CapSense_SMS.c **** *
 213:.\Generated_Source\PSoC4/CapSense_SMS.c **** * Return:
 214:.\Generated_Source\PSoC4/CapSense_SMS.c **** *  None
 215:.\Generated_Source\PSoC4/CapSense_SMS.c **** *
 216:.\Generated_Source\PSoC4/CapSense_SMS.c **** * Global Variables:
 217:.\Generated_Source\PSoC4/CapSense_SMS.c **** *  CapSense_widgetNumber[] - contains widget Number for given sensor.
 218:.\Generated_Source\PSoC4/CapSense_SMS.c **** *  0 through 7 (sensor 0 is bit 0, sensor 1 is bit 1).
 219:.\Generated_Source\PSoC4/CapSense_SMS.c **** *  For other sensors the array element equals to 255.
 220:.\Generated_Source\PSoC4/CapSense_SMS.c **** *  CapSense_numberOfSensors[widget] - Number of sensors in the widget.
 221:.\Generated_Source\PSoC4/CapSense_SMS.c **** *   CapSense_fingerThreshold[] - contains the level of signal for each sensor
 222:.\Generated_Source\PSoC4/CapSense_SMS.c **** *   that determines if a finger present on the sensor.
 223:.\Generated_Source\PSoC4/CapSense_SMS.c **** *   CapSense_negativeNoiseThreshold[] - negative Noise Threshold
 224:.\Generated_Source\PSoC4/CapSense_SMS.c **** *   CapSense_hysteresis[] - the array with hysteresis values.
 225:.\Generated_Source\PSoC4/CapSense_SMS.c **** *
 226:.\Generated_Source\PSoC4/CapSense_SMS.c **** * Side Effects:
 227:.\Generated_Source\PSoC4/CapSense_SMS.c **** *  None
 228:.\Generated_Source\PSoC4/CapSense_SMS.c **** *
 229:.\Generated_Source\PSoC4/CapSense_SMS.c **** *******************************************************************************/
 230:.\Generated_Source\PSoC4/CapSense_SMS.c **** void CapSense_UpdateThresholds(uint32 sensor)
 231:.\Generated_Source\PSoC4/CapSense_SMS.c **** {
  26              		.loc 1 231 0
  27              		.cfi_startproc
  28              	.LVL0:
 232:.\Generated_Source\PSoC4/CapSense_SMS.c ****     uint8 fingerThreshold;
 233:.\Generated_Source\PSoC4/CapSense_SMS.c ****     uint32 widget;
 234:.\Generated_Source\PSoC4/CapSense_SMS.c **** 
 235:.\Generated_Source\PSoC4/CapSense_SMS.c ****     widget = CapSense_widgetNumber[sensor];
  29              		.loc 1 235 0
  30 0000 064B     		ldr	r3, .L2
  31 0002 1B5C     		ldrb	r3, [r3, r0]
  32              	.LVL1:
 236:.\Generated_Source\PSoC4/CapSense_SMS.c **** 
 237:.\Generated_Source\PSoC4/CapSense_SMS.c ****     #if(0u != CapSense_FLEXIBLE_THRESHOLDS_EN)
 238:.\Generated_Source\PSoC4/CapSense_SMS.c ****         fingerThreshold = CapSense_fingerThreshold[widget];
  33              		.loc 1 238 0
  34 0004 064A     		ldr	r2, .L2+4
  35 0006 D25C     		ldrb	r2, [r2, r3]
  36              	.LVL2:
 239:.\Generated_Source\PSoC4/CapSense_SMS.c ****         /* Update Threshold manually (flexible) */
 240:.\Generated_Source\PSoC4/CapSense_SMS.c ****         CapSense_noiseThreshold[widget] = (uint8)(fingerThreshold >> 1u);
  37              		.loc 1 240 0
  38 0008 5108     		lsr	r1, r2, #1
  39 000a 0648     		ldr	r0, .L2+8
  40              	.LVL3:
  41 000c C154     		strb	r1, [r0, r3]
 241:.\Generated_Source\PSoC4/CapSense_SMS.c ****         CapSense_negativeNoiseThreshold[widget] = (uint8)(fingerThreshold >> 1u);
  42              		.loc 1 241 0
  43 000e 0648     		ldr	r0, .L2+12
  44 0010 C154     		strb	r1, [r0, r3]
ARM GAS  C:\Users\Henny\AppData\Local\Temp\ccmp9WGO.s 			page 6


 242:.\Generated_Source\PSoC4/CapSense_SMS.c ****         CapSense_hysteresis[widget] = (uint8)(fingerThreshold >> 3u);
  45              		.loc 1 242 0
  46 0012 D208     		lsr	r2, r2, #3
  47              	.LVL4:
  48 0014 0549     		ldr	r1, .L2+16
  49 0016 CA54     		strb	r2, [r1, r3]
 243:.\Generated_Source\PSoC4/CapSense_SMS.c ****     #else
 244:.\Generated_Source\PSoC4/CapSense_SMS.c ****         /* Calculate Finger Threshold and Noise Threshold with Smartsense (automatic) */
 245:.\Generated_Source\PSoC4/CapSense_SMS.c ****         CalculateThresholds_P4_v2_40(&CapSense_config, (uint8)sensor, (uint8)widget, CapSense_finge
 246:.\Generated_Source\PSoC4/CapSense_SMS.c **** 
 247:.\Generated_Source\PSoC4/CapSense_SMS.c ****         fingerThreshold = CapSense_fingerThreshold[widget];
 248:.\Generated_Source\PSoC4/CapSense_SMS.c **** 
 249:.\Generated_Source\PSoC4/CapSense_SMS.c ****         /* Update Threshold based on calculated with Smartsense (automatic) */
 250:.\Generated_Source\PSoC4/CapSense_SMS.c ****         CapSense_negativeNoiseThreshold[widget] = CapSense_noiseThreshold[widget];
 251:.\Generated_Source\PSoC4/CapSense_SMS.c **** 
 252:.\Generated_Source\PSoC4/CapSense_SMS.c ****         if(fingerThreshold < CapSense_THRESHOLD_1)
 253:.\Generated_Source\PSoC4/CapSense_SMS.c ****         {
 254:.\Generated_Source\PSoC4/CapSense_SMS.c ****             CapSense_hysteresis[widget] = (uint8)(fingerThreshold >> 3u);
 255:.\Generated_Source\PSoC4/CapSense_SMS.c ****         }
 256:.\Generated_Source\PSoC4/CapSense_SMS.c ****         else if(fingerThreshold <  CapSense_THRESHOLD_2)
 257:.\Generated_Source\PSoC4/CapSense_SMS.c ****         {
 258:.\Generated_Source\PSoC4/CapSense_SMS.c ****             CapSense_hysteresis[widget] = (uint8)(fingerThreshold >> 4u);
 259:.\Generated_Source\PSoC4/CapSense_SMS.c ****         }
 260:.\Generated_Source\PSoC4/CapSense_SMS.c ****         else if(fingerThreshold <  CapSense_THRESHOLD_3)
 261:.\Generated_Source\PSoC4/CapSense_SMS.c ****         {
 262:.\Generated_Source\PSoC4/CapSense_SMS.c ****             CapSense_hysteresis[widget] = (uint8)(fingerThreshold >> 5u);
 263:.\Generated_Source\PSoC4/CapSense_SMS.c ****         }
 264:.\Generated_Source\PSoC4/CapSense_SMS.c ****         else if(fingerThreshold <  CapSense_THRESHOLD_4)
 265:.\Generated_Source\PSoC4/CapSense_SMS.c ****         {
 266:.\Generated_Source\PSoC4/CapSense_SMS.c ****             CapSense_hysteresis[widget] = (uint8)(fingerThreshold >> 6u);
 267:.\Generated_Source\PSoC4/CapSense_SMS.c ****         }
 268:.\Generated_Source\PSoC4/CapSense_SMS.c ****         else
 269:.\Generated_Source\PSoC4/CapSense_SMS.c ****         {
 270:.\Generated_Source\PSoC4/CapSense_SMS.c ****             CapSense_hysteresis[widget] = 0u;
 271:.\Generated_Source\PSoC4/CapSense_SMS.c ****         }
 272:.\Generated_Source\PSoC4/CapSense_SMS.c ****     #endif /* (0u != CapSense_FLEXIBLE_THRESHOLDS_EN)  */
 273:.\Generated_Source\PSoC4/CapSense_SMS.c **** }
  50              		.loc 1 273 0
  51              		@ sp needed
  52 0018 7047     		bx	lr
  53              	.L3:
  54 001a C046     		.align	2
  55              	.L2:
  56 001c 00000000 		.word	CapSense_widgetNumber
  57 0020 00000000 		.word	CapSense_fingerThreshold
  58 0024 00000000 		.word	CapSense_noiseThreshold
  59 0028 00000000 		.word	CapSense_negativeNoiseThreshold
  60 002c 00000000 		.word	CapSense_hysteresis
  61              		.cfi_endproc
  62              	.LFE37:
  63              		.size	CapSense_UpdateThresholds, .-CapSense_UpdateThresholds
  64              		.section	.text.CapSense_SetAnalogSwitchesSrcDirect,"ax",%progbits
  65              		.align	2
  66              		.global	CapSense_SetAnalogSwitchesSrcDirect
  67              		.code	16
  68              		.thumb_func
  69              		.type	CapSense_SetAnalogSwitchesSrcDirect, %function
ARM GAS  C:\Users\Henny\AppData\Local\Temp\ccmp9WGO.s 			page 7


  70              	CapSense_SetAnalogSwitchesSrcDirect:
  71              	.LFB38:
 274:.\Generated_Source\PSoC4/CapSense_SMS.c **** 
 275:.\Generated_Source\PSoC4/CapSense_SMS.c **** /*******************************************************************************
 276:.\Generated_Source\PSoC4/CapSense_SMS.c **** * Function Name: CapSense_SetAnalogSwitchesSrcDirect
 277:.\Generated_Source\PSoC4/CapSense_SMS.c **** ********************************************************************************
 278:.\Generated_Source\PSoC4/CapSense_SMS.c **** *
 279:.\Generated_Source\PSoC4/CapSense_SMS.c **** * Summary:
 280:.\Generated_Source\PSoC4/CapSense_SMS.c **** *  This API switches the charge clock source to prescaler.
 281:.\Generated_Source\PSoC4/CapSense_SMS.c **** *
 282:.\Generated_Source\PSoC4/CapSense_SMS.c **** * Parameters:
 283:.\Generated_Source\PSoC4/CapSense_SMS.c **** *  None
 284:.\Generated_Source\PSoC4/CapSense_SMS.c **** *
 285:.\Generated_Source\PSoC4/CapSense_SMS.c **** * Return:
 286:.\Generated_Source\PSoC4/CapSense_SMS.c **** *  None
 287:.\Generated_Source\PSoC4/CapSense_SMS.c **** *
 288:.\Generated_Source\PSoC4/CapSense_SMS.c **** * Global Variables:
 289:.\Generated_Source\PSoC4/CapSense_SMS.c **** *  None
 290:.\Generated_Source\PSoC4/CapSense_SMS.c **** *
 291:.\Generated_Source\PSoC4/CapSense_SMS.c **** * Side Effects:
 292:.\Generated_Source\PSoC4/CapSense_SMS.c **** *  None
 293:.\Generated_Source\PSoC4/CapSense_SMS.c **** *
 294:.\Generated_Source\PSoC4/CapSense_SMS.c **** *******************************************************************************/
 295:.\Generated_Source\PSoC4/CapSense_SMS.c **** void CapSense_SetAnalogSwitchesSrcDirect(void)
 296:.\Generated_Source\PSoC4/CapSense_SMS.c **** {
  72              		.loc 1 296 0
  73              		.cfi_startproc
 297:.\Generated_Source\PSoC4/CapSense_SMS.c ****     CapSense_CSD_CFG_REG &= ~(CapSense_CSD_CFG_PRS_SELECT);
  74              		.loc 1 297 0
  75 0000 024A     		ldr	r2, .L5
  76 0002 1368     		ldr	r3, [r2]
  77 0004 4021     		mov	r1, #64
  78 0006 8B43     		bic	r3, r1
  79 0008 1360     		str	r3, [r2]
 298:.\Generated_Source\PSoC4/CapSense_SMS.c **** }
  80              		.loc 1 298 0
  81              		@ sp needed
  82 000a 7047     		bx	lr
  83              	.L6:
  84              		.align	2
  85              	.L5:
  86 000c 04002840 		.word	1076363268
  87              		.cfi_endproc
  88              	.LFE38:
  89              		.size	CapSense_SetAnalogSwitchesSrcDirect, .-CapSense_SetAnalogSwitchesSrcDirect
  90              		.section	.text.CapSense_DisableBaselineIDAC,"ax",%progbits
  91              		.align	2
  92              		.global	CapSense_DisableBaselineIDAC
  93              		.code	16
  94              		.thumb_func
  95              		.type	CapSense_DisableBaselineIDAC, %function
  96              	CapSense_DisableBaselineIDAC:
  97              	.LFB39:
 299:.\Generated_Source\PSoC4/CapSense_SMS.c **** 
 300:.\Generated_Source\PSoC4/CapSense_SMS.c **** 
 301:.\Generated_Source\PSoC4/CapSense_SMS.c **** /*******************************************************************************
 302:.\Generated_Source\PSoC4/CapSense_SMS.c **** * Function Name: CapSense_DisableBaselineIDAC
ARM GAS  C:\Users\Henny\AppData\Local\Temp\ccmp9WGO.s 			page 8


 303:.\Generated_Source\PSoC4/CapSense_SMS.c **** ********************************************************************************
 304:.\Generated_Source\PSoC4/CapSense_SMS.c **** *
 305:.\Generated_Source\PSoC4/CapSense_SMS.c **** * Summary:
 306:.\Generated_Source\PSoC4/CapSense_SMS.c **** *  The API disables the Compensation IDAC.
 307:.\Generated_Source\PSoC4/CapSense_SMS.c **** *
 308:.\Generated_Source\PSoC4/CapSense_SMS.c **** * Parameters:
 309:.\Generated_Source\PSoC4/CapSense_SMS.c **** *  None
 310:.\Generated_Source\PSoC4/CapSense_SMS.c **** *
 311:.\Generated_Source\PSoC4/CapSense_SMS.c **** * Return:
 312:.\Generated_Source\PSoC4/CapSense_SMS.c **** *  None
 313:.\Generated_Source\PSoC4/CapSense_SMS.c **** *
 314:.\Generated_Source\PSoC4/CapSense_SMS.c **** * Global Variables:
 315:.\Generated_Source\PSoC4/CapSense_SMS.c **** *  None
 316:.\Generated_Source\PSoC4/CapSense_SMS.c **** *
 317:.\Generated_Source\PSoC4/CapSense_SMS.c **** * Side Effects:
 318:.\Generated_Source\PSoC4/CapSense_SMS.c **** *  None
 319:.\Generated_Source\PSoC4/CapSense_SMS.c **** *
 320:.\Generated_Source\PSoC4/CapSense_SMS.c **** *******************************************************************************/
 321:.\Generated_Source\PSoC4/CapSense_SMS.c **** void CapSense_DisableBaselineIDAC(void)
 322:.\Generated_Source\PSoC4/CapSense_SMS.c **** {
  98              		.loc 1 322 0
  99              		.cfi_startproc
 323:.\Generated_Source\PSoC4/CapSense_SMS.c ****     uint32 newRegValue;
 324:.\Generated_Source\PSoC4/CapSense_SMS.c **** 
 325:.\Generated_Source\PSoC4/CapSense_SMS.c ****     newRegValue = CapSense_CSD_IDAC_REG;
 100              		.loc 1 325 0
 101 0000 044A     		ldr	r2, .L8
 102 0002 1168     		ldr	r1, [r2]
 103              	.LVL5:
 326:.\Generated_Source\PSoC4/CapSense_SMS.c **** 
 327:.\Generated_Source\PSoC4/CapSense_SMS.c ****     newRegValue &= ~(CapSense_CSD_IDAC1_MODE_MASK | CapSense_CSD_IDAC2_MODE_MASK);
 104              		.loc 1 327 0
 105 0004 044B     		ldr	r3, .L8+4
 106 0006 0B40     		and	r3, r1
 107              	.LVL6:
 328:.\Generated_Source\PSoC4/CapSense_SMS.c ****     newRegValue |= CapSense_CSD_IDAC1_MODE_VARIABLE;
 108              		.loc 1 328 0
 109 0008 8021     		mov	r1, #128
 110 000a 8900     		lsl	r1, r1, #2
 111 000c 0B43     		orr	r3, r1
 112              	.LVL7:
 329:.\Generated_Source\PSoC4/CapSense_SMS.c **** 
 330:.\Generated_Source\PSoC4/CapSense_SMS.c ****     CapSense_CSD_IDAC_REG = newRegValue;
 113              		.loc 1 330 0
 114 000e 1360     		str	r3, [r2]
 331:.\Generated_Source\PSoC4/CapSense_SMS.c **** }
 115              		.loc 1 331 0
 116              		@ sp needed
 117 0010 7047     		bx	lr
 118              	.L9:
 119 0012 C046     		.align	2
 120              	.L8:
 121 0014 08002840 		.word	1076363272
 122 0018 FFFCFFFC 		.word	-50332417
 123              		.cfi_endproc
 124              	.LFE39:
 125              		.size	CapSense_DisableBaselineIDAC, .-CapSense_DisableBaselineIDAC
ARM GAS  C:\Users\Henny\AppData\Local\Temp\ccmp9WGO.s 			page 9


 126              		.section	.text.CapSense_EnableBaselineIDAC,"ax",%progbits
 127              		.align	2
 128              		.global	CapSense_EnableBaselineIDAC
 129              		.code	16
 130              		.thumb_func
 131              		.type	CapSense_EnableBaselineIDAC, %function
 132              	CapSense_EnableBaselineIDAC:
 133              	.LFB40:
 332:.\Generated_Source\PSoC4/CapSense_SMS.c **** 
 333:.\Generated_Source\PSoC4/CapSense_SMS.c **** 
 334:.\Generated_Source\PSoC4/CapSense_SMS.c **** /*******************************************************************************
 335:.\Generated_Source\PSoC4/CapSense_SMS.c **** * Function Name: CapSense_EnableBaselineIDAC
 336:.\Generated_Source\PSoC4/CapSense_SMS.c **** ********************************************************************************
 337:.\Generated_Source\PSoC4/CapSense_SMS.c **** *
 338:.\Generated_Source\PSoC4/CapSense_SMS.c **** * Summary:
 339:.\Generated_Source\PSoC4/CapSense_SMS.c **** *  The API enables the Compensation IDAC.
 340:.\Generated_Source\PSoC4/CapSense_SMS.c **** *
 341:.\Generated_Source\PSoC4/CapSense_SMS.c **** * Parameters:
 342:.\Generated_Source\PSoC4/CapSense_SMS.c **** *  None
 343:.\Generated_Source\PSoC4/CapSense_SMS.c **** *
 344:.\Generated_Source\PSoC4/CapSense_SMS.c **** * Return:
 345:.\Generated_Source\PSoC4/CapSense_SMS.c **** *  None
 346:.\Generated_Source\PSoC4/CapSense_SMS.c **** *
 347:.\Generated_Source\PSoC4/CapSense_SMS.c **** * Global Variables:
 348:.\Generated_Source\PSoC4/CapSense_SMS.c **** *  CapSense_compensationIDAC[] - used to store a 7-bit idac value for all the sensors.
 349:.\Generated_Source\PSoC4/CapSense_SMS.c **** *
 350:.\Generated_Source\PSoC4/CapSense_SMS.c **** * Side Effects:
 351:.\Generated_Source\PSoC4/CapSense_SMS.c **** *  None
 352:.\Generated_Source\PSoC4/CapSense_SMS.c **** *
 353:.\Generated_Source\PSoC4/CapSense_SMS.c **** *******************************************************************************/
 354:.\Generated_Source\PSoC4/CapSense_SMS.c **** void  CapSense_EnableBaselineIDAC(const CapSense_CONFIG_TYPE_P4_v2_40 *config)
 355:.\Generated_Source\PSoC4/CapSense_SMS.c **** {
 134              		.loc 1 355 0
 135              		.cfi_startproc
 136              	.LVL8:
 137 0000 38B5     		push	{r3, r4, r5, lr}
 138              		.cfi_def_cfa_offset 16
 139              		.cfi_offset 3, -16
 140              		.cfi_offset 4, -12
 141              		.cfi_offset 5, -8
 142              		.cfi_offset 14, -4
 143              	.LVL9:
 356:.\Generated_Source\PSoC4/CapSense_SMS.c ****     uint32 curSensor;
 357:.\Generated_Source\PSoC4/CapSense_SMS.c ****     uint32 newRegValue;
 358:.\Generated_Source\PSoC4/CapSense_SMS.c **** 
 359:.\Generated_Source\PSoC4/CapSense_SMS.c ****     for(curSensor = 0u; curSensor < config->totalScanslotsNum; curSensor++)
 144              		.loc 1 359 0
 145 0002 0022     		mov	r2, #0
 146 0004 08E0     		b	.L11
 147              	.LVL10:
 148              	.L12:
 360:.\Generated_Source\PSoC4/CapSense_SMS.c ****     {
 361:.\Generated_Source\PSoC4/CapSense_SMS.c ****         CapSense_compensationIDAC[curSensor] = CapSense_modulationIDAC[curSensor] / 2u;
 149              		.loc 1 361 0 discriminator 3
 150 0006 0D49     		ldr	r1, .L13
 151 0008 8B5C     		ldrb	r3, [r1, r2]
 152 000a 5D08     		lsr	r5, r3, #1
ARM GAS  C:\Users\Henny\AppData\Local\Temp\ccmp9WGO.s 			page 10


 153 000c 0C4C     		ldr	r4, .L13+4
 154 000e A554     		strb	r5, [r4, r2]
 362:.\Generated_Source\PSoC4/CapSense_SMS.c ****         CapSense_modulationIDAC[curSensor] = (CapSense_modulationIDAC[curSensor] + 1u) / 2u;
 155              		.loc 1 362 0 discriminator 3
 156 0010 0133     		add	r3, r3, #1
 157 0012 5B08     		lsr	r3, r3, #1
 158 0014 8B54     		strb	r3, [r1, r2]
 359:.\Generated_Source\PSoC4/CapSense_SMS.c ****     {
 159              		.loc 1 359 0 discriminator 3
 160 0016 0132     		add	r2, r2, #1
 161              	.LVL11:
 162              	.L11:
 359:.\Generated_Source\PSoC4/CapSense_SMS.c ****     {
 163              		.loc 1 359 0 is_stmt 0 discriminator 1
 164 0018 0378     		ldrb	r3, [r0]
 165 001a 9342     		cmp	r3, r2
 166 001c F3D8     		bhi	.L12
 363:.\Generated_Source\PSoC4/CapSense_SMS.c ****     }
 364:.\Generated_Source\PSoC4/CapSense_SMS.c **** 
 365:.\Generated_Source\PSoC4/CapSense_SMS.c ****     CyIntDisable(CapSense_ISR_NUMBER);
 167              		.loc 1 365 0 is_stmt 1
 168 001e 1020     		mov	r0, #16
 169              	.LVL12:
 170 0020 FFF7FEFF 		bl	CyIntDisable
 171              	.LVL13:
 366:.\Generated_Source\PSoC4/CapSense_SMS.c **** 
 367:.\Generated_Source\PSoC4/CapSense_SMS.c ****     newRegValue = CapSense_CSD_IDAC_REG;
 172              		.loc 1 367 0
 173 0024 074A     		ldr	r2, .L13+8
 174 0026 1168     		ldr	r1, [r2]
 175              	.LVL14:
 368:.\Generated_Source\PSoC4/CapSense_SMS.c ****     newRegValue &= ~(CapSense_CSD_IDAC1_MODE_MASK | CapSense_CSD_IDAC2_MODE_MASK);
 176              		.loc 1 368 0
 177 0028 074B     		ldr	r3, .L13+12
 178 002a 0B40     		and	r3, r1
 179              	.LVL15:
 369:.\Generated_Source\PSoC4/CapSense_SMS.c ****     newRegValue |= (CapSense_CSD_IDAC1_MODE_VARIABLE | CapSense_CSD_IDAC2_MODE_FIXED);
 180              		.loc 1 369 0
 181 002c 0749     		ldr	r1, .L13+16
 182 002e 0B43     		orr	r3, r1
 183              	.LVL16:
 370:.\Generated_Source\PSoC4/CapSense_SMS.c ****     CapSense_CSD_IDAC_REG = newRegValue;
 184              		.loc 1 370 0
 185 0030 1360     		str	r3, [r2]
 371:.\Generated_Source\PSoC4/CapSense_SMS.c **** 
 372:.\Generated_Source\PSoC4/CapSense_SMS.c ****     CyIntEnable(CapSense_ISR_NUMBER);
 186              		.loc 1 372 0
 187 0032 1020     		mov	r0, #16
 188 0034 FFF7FEFF 		bl	CyIntEnable
 189              	.LVL17:
 373:.\Generated_Source\PSoC4/CapSense_SMS.c **** }
 190              		.loc 1 373 0
 191              		@ sp needed
 192 0038 38BD     		pop	{r3, r4, r5, pc}
 193              	.L14:
 194 003a C046     		.align	2
 195              	.L13:
ARM GAS  C:\Users\Henny\AppData\Local\Temp\ccmp9WGO.s 			page 11


 196 003c 00000000 		.word	CapSense_modulationIDAC
 197 0040 00000000 		.word	CapSense_compensationIDAC
 198 0044 08002840 		.word	1076363272
 199 0048 FFFCFFFC 		.word	-50332417
 200 004c 00020001 		.word	16777728
 201              		.cfi_endproc
 202              	.LFE40:
 203              		.size	CapSense_EnableBaselineIDAC, .-CapSense_EnableBaselineIDAC
 204              		.section	.text.CapSense_AutoTune,"ax",%progbits
 205              		.align	2
 206              		.global	CapSense_AutoTune
 207              		.code	16
 208              		.thumb_func
 209              		.type	CapSense_AutoTune, %function
 210              	CapSense_AutoTune:
 211              	.LFB36:
 146:.\Generated_Source\PSoC4/CapSense_SMS.c ****     uint32 curSensor;
 212              		.loc 1 146 0
 213              		.cfi_startproc
 214 0000 70B5     		push	{r4, r5, r6, lr}
 215              		.cfi_def_cfa_offset 16
 216              		.cfi_offset 4, -16
 217              		.cfi_offset 5, -12
 218              		.cfi_offset 6, -8
 219              		.cfi_offset 14, -4
 150:.\Generated_Source\PSoC4/CapSense_SMS.c ****     CapSense_config.totalWidgetsNum = CapSense_END_OF_WIDGETS_INDEX;
 220              		.loc 1 150 0
 221 0002 254B     		ldr	r3, .L22
 222 0004 0522     		mov	r2, #5
 223 0006 1A70     		strb	r2, [r3]
 151:.\Generated_Source\PSoC4/CapSense_SMS.c ****     CapSense_config.totalSensorsNum = CapSense_TOTAL_SENSOR_COUNT;
 224              		.loc 1 151 0
 225 0008 0121     		mov	r1, #1
 226 000a 5970     		strb	r1, [r3, #1]
 152:.\Generated_Source\PSoC4/CapSense_SMS.c **** 
 227              		.loc 1 152 0
 228 000c 9A70     		strb	r2, [r3, #2]
 154:.\Generated_Source\PSoC4/CapSense_SMS.c ****     CapSense_config.sensetivitySeed = CapSense_SENSETIVITY_FACTOR;
 229              		.loc 1 154 0
 230 000e 2B32     		add	r2, r2, #43
 231 0010 DA80     		strh	r2, [r3, #6]
 155:.\Generated_Source\PSoC4/CapSense_SMS.c **** 
 232              		.loc 1 155 0
 233 0012 224A     		ldr	r2, .L22+4
 234 0014 9A80     		strh	r2, [r3, #4]
 157:.\Generated_Source\PSoC4/CapSense_SMS.c **** 
 235              		.loc 1 157 0
 236 0016 224A     		ldr	r2, .L22+8
 237 0018 9A60     		str	r2, [r3, #8]
 159:.\Generated_Source\PSoC4/CapSense_SMS.c **** 
 238              		.loc 1 159 0
 239 001a FFF7FEFF 		bl	CapSense_SetAnalogSwitchesSrcDirect
 240              	.LVL18:
 161:.\Generated_Source\PSoC4/CapSense_SMS.c ****     {
 241              		.loc 1 161 0
 242 001e 0023     		mov	r3, #0
 243 0020 04E0     		b	.L16
ARM GAS  C:\Users\Henny\AppData\Local\Temp\ccmp9WGO.s 			page 12


 244              	.LVL19:
 245              	.L17:
 163:.\Generated_Source\PSoC4/CapSense_SMS.c ****     }
 246              		.loc 1 163 0 discriminator 3
 247 0022 9900     		lsl	r1, r3, #2
 248 0024 1F48     		ldr	r0, .L22+12
 249 0026 204A     		ldr	r2, .L22+16
 250 0028 8850     		str	r0, [r1, r2]
 161:.\Generated_Source\PSoC4/CapSense_SMS.c ****     {
 251              		.loc 1 161 0 discriminator 3
 252 002a 0133     		add	r3, r3, #1
 253              	.LVL20:
 254              	.L16:
 161:.\Generated_Source\PSoC4/CapSense_SMS.c ****     {
 255              		.loc 1 161 0 is_stmt 0 discriminator 1
 256 002c 1A4A     		ldr	r2, .L22
 257 002e 5278     		ldrb	r2, [r2, #1]
 258 0030 9A42     		cmp	r2, r3
 259 0032 F6D8     		bhi	.L17
 260 0034 0023     		mov	r3, #0
 261              	.LVL21:
 262 0036 06E0     		b	.L18
 263              	.LVL22:
 264              	.L19:
 169:.\Generated_Source\PSoC4/CapSense_SMS.c ****         CapSense_sampleClkDividerVal[curSensor] = CapSense_CALIBRATION_MD;
 265              		.loc 1 169 0 is_stmt 1 discriminator 3
 266 0038 1021     		mov	r1, #16
 267 003a 1C4A     		ldr	r2, .L22+20
 268 003c D154     		strb	r1, [r2, r3]
 170:.\Generated_Source\PSoC4/CapSense_SMS.c ****     }
 269              		.loc 1 170 0 discriminator 3
 270 003e 0C39     		sub	r1, r1, #12
 271 0040 1B4A     		ldr	r2, .L22+24
 272 0042 D154     		strb	r1, [r2, r3]
 167:.\Generated_Source\PSoC4/CapSense_SMS.c ****     {
 273              		.loc 1 167 0 discriminator 3
 274 0044 0133     		add	r3, r3, #1
 275              	.LVL23:
 276              	.L18:
 167:.\Generated_Source\PSoC4/CapSense_SMS.c ****     {
 277              		.loc 1 167 0 is_stmt 0 discriminator 1
 278 0046 042B     		cmp	r3, #4
 279 0048 F6D9     		bls	.L19
 173:.\Generated_Source\PSoC4/CapSense_SMS.c **** 
 280              		.loc 1 173 0 is_stmt 1
 281 004a FFF7FEFF 		bl	CapSense_DisableBaselineIDAC
 282              	.LVL24:
 175:.\Generated_Source\PSoC4/CapSense_SMS.c **** 
 283              		.loc 1 175 0
 284 004e 124C     		ldr	r4, .L22
 285 0050 184E     		ldr	r6, .L22+28
 286 0052 201C     		mov	r0, r4
 287 0054 311C     		mov	r1, r6
 288 0056 FFF7FEFF 		bl	CalibrateSensors_P4_v2_40
 289              	.LVL25:
 178:.\Generated_Source\PSoC4/CapSense_SMS.c ****     #endif /* (0u != CapSense_TOTAL_CENTROIDS_COUNT)  */
 290              		.loc 1 178 0
ARM GAS  C:\Users\Henny\AppData\Local\Temp\ccmp9WGO.s 			page 13


 291 005a 174D     		ldr	r5, .L22+32
 292 005c 0120     		mov	r0, #1
 293 005e 291C     		mov	r1, r5
 294 0060 FFF7FEFF 		bl	CapSense_NormalizeWidgets
 295              	.LVL26:
 181:.\Generated_Source\PSoC4/CapSense_SMS.c **** 
 296              		.loc 1 181 0
 297 0064 201C     		mov	r0, r4
 298 0066 FFF7FEFF 		bl	TunePrescalers_P4_v2_40
 299              	.LVL27:
 187:.\Generated_Source\PSoC4/CapSense_SMS.c ****     #if(0u != CapSense_TOTAL_CENTROIDS_COUNT)
 300              		.loc 1 187 0
 301 006a 201C     		mov	r0, r4
 302 006c 311C     		mov	r1, r6
 303 006e FFF7FEFF 		bl	CalibrateSensors_P4_v2_40
 304              	.LVL28:
 189:.\Generated_Source\PSoC4/CapSense_SMS.c ****     #endif /* (0u != CapSense_TOTAL_CENTROIDS_COUNT)  */
 305              		.loc 1 189 0
 306 0072 0120     		mov	r0, #1
 307 0074 291C     		mov	r1, r5
 308 0076 FFF7FEFF 		bl	CapSense_NormalizeWidgets
 309              	.LVL29:
 191:.\Generated_Source\PSoC4/CapSense_SMS.c **** 
 310              		.loc 1 191 0
 311 007a 201C     		mov	r0, r4
 312 007c FFF7FEFF 		bl	TuneSensitivity_P4_v2_40
 313              	.LVL30:
 193:.\Generated_Source\PSoC4/CapSense_SMS.c **** 
 314              		.loc 1 193 0
 315 0080 201C     		mov	r0, r4
 316 0082 FFF7FEFF 		bl	CapSense_EnableBaselineIDAC
 317              	.LVL31:
 195:.\Generated_Source\PSoC4/CapSense_SMS.c ****     {
 318              		.loc 1 195 0
 319 0086 0024     		mov	r4, #0
 320 0088 03E0     		b	.L20
 321              	.LVL32:
 322              	.L21:
 197:.\Generated_Source\PSoC4/CapSense_SMS.c ****     }
 323              		.loc 1 197 0 discriminator 3
 324 008a 201C     		mov	r0, r4
 325 008c FFF7FEFF 		bl	CapSense_UpdateThresholds
 326              	.LVL33:
 195:.\Generated_Source\PSoC4/CapSense_SMS.c ****     {
 327              		.loc 1 195 0 discriminator 3
 328 0090 0134     		add	r4, r4, #1
 329              	.LVL34:
 330              	.L20:
 195:.\Generated_Source\PSoC4/CapSense_SMS.c ****     {
 331              		.loc 1 195 0 is_stmt 0 discriminator 1
 332 0092 042C     		cmp	r4, #4
 333 0094 F9D9     		bls	.L21
 199:.\Generated_Source\PSoC4/CapSense_SMS.c **** 
 334              		.loc 1 199 0 is_stmt 1
 335              		@ sp needed
 336              	.LVL35:
 337 0096 70BD     		pop	{r4, r5, r6, pc}
ARM GAS  C:\Users\Henny\AppData\Local\Temp\ccmp9WGO.s 			page 14


 338              	.L23:
 339              		.align	2
 340              	.L22:
 341 0098 00000000 		.word	CapSense_config
 342 009c 98090000 		.word	2456
 343 00a0 00000000 		.word	.LANCHOR0
 344 00a4 0000FF0F 		.word	268369920
 345 00a8 00000000 		.word	CapSense_widgetResolution
 346 00ac 00000000 		.word	CapSense_senseClkDividerVal
 347 00b0 00000000 		.word	CapSense_sampleClkDividerVal
 348 00b4 9A0D0000 		.word	3482
 349 00b8 00000000 		.word	CapSense_modulationIDAC
 350              		.cfi_endproc
 351              	.LFE36:
 352              		.size	CapSense_AutoTune, .-CapSense_AutoTune
 353              		.section	.text.CapSense_SetSensitivity,"ax",%progbits
 354              		.align	2
 355              		.global	CapSense_SetSensitivity
 356              		.code	16
 357              		.thumb_func
 358              		.type	CapSense_SetSensitivity, %function
 359              	CapSense_SetSensitivity:
 360              	.LFB41:
 374:.\Generated_Source\PSoC4/CapSense_SMS.c **** 
 375:.\Generated_Source\PSoC4/CapSense_SMS.c **** 
 376:.\Generated_Source\PSoC4/CapSense_SMS.c **** /*******************************************************************************
 377:.\Generated_Source\PSoC4/CapSense_SMS.c **** * Function Name: CapSense_SetSensitivity
 378:.\Generated_Source\PSoC4/CapSense_SMS.c **** ********************************************************************************
 379:.\Generated_Source\PSoC4/CapSense_SMS.c **** *
 380:.\Generated_Source\PSoC4/CapSense_SMS.c **** * Summary:
 381:.\Generated_Source\PSoC4/CapSense_SMS.c **** *  This API sets the sensitivity value for the sensor. The sensitivity
 382:.\Generated_Source\PSoC4/CapSense_SMS.c **** *  value is used during the auto-tuning algorithm executed as part of the CapSense_Start API.
 383:.\Generated_Source\PSoC4/CapSense_SMS.c **** *  This API is called by the application layer prior to calling the CapSense_Start API.
 384:.\Generated_Source\PSoC4/CapSense_SMS.c **** *  Calling this API after execution of CapSense_Start API has no effect.
 385:.\Generated_Source\PSoC4/CapSense_SMS.c **** *
 386:.\Generated_Source\PSoC4/CapSense_SMS.c **** * Parameters:
 387:.\Generated_Source\PSoC4/CapSense_SMS.c **** *  sensor  Sensor index
 388:.\Generated_Source\PSoC4/CapSense_SMS.c **** *  data    Sensitivity of the sensor. Possible values are below
 389:.\Generated_Source\PSoC4/CapSense_SMS.c **** *  1 - 0.1pf sensitivity
 390:.\Generated_Source\PSoC4/CapSense_SMS.c **** *  2 - 0.2pf sensitivity
 391:.\Generated_Source\PSoC4/CapSense_SMS.c **** *  3 - 0.3pf sensitivity
 392:.\Generated_Source\PSoC4/CapSense_SMS.c **** *  4 - 0.4pf sensitivity
 393:.\Generated_Source\PSoC4/CapSense_SMS.c **** *  5 - 0.5pf sensitivity
 394:.\Generated_Source\PSoC4/CapSense_SMS.c **** *  6 - 0.6pf sensitivity
 395:.\Generated_Source\PSoC4/CapSense_SMS.c **** *  7 - 0.7pf sensitivity
 396:.\Generated_Source\PSoC4/CapSense_SMS.c **** *  8 - 0.8pf sensitivity
 397:.\Generated_Source\PSoC4/CapSense_SMS.c **** *  9 - 0.9pf sensitivity
 398:.\Generated_Source\PSoC4/CapSense_SMS.c **** *  10 - 1.0pf sensitivity
 399:.\Generated_Source\PSoC4/CapSense_SMS.c **** *  All other values, set sensitivity to 1.0pf
 400:.\Generated_Source\PSoC4/CapSense_SMS.c **** *
 401:.\Generated_Source\PSoC4/CapSense_SMS.c **** *  Return Value:
 402:.\Generated_Source\PSoC4/CapSense_SMS.c **** *   None
 403:.\Generated_Source\PSoC4/CapSense_SMS.c **** *
 404:.\Generated_Source\PSoC4/CapSense_SMS.c **** * Global Variables:
 405:.\Generated_Source\PSoC4/CapSense_SMS.c **** * CapSense_sensorSensitivity[] - This 8-bits array contains Sensitivity in the LSB nibble
 406:.\Generated_Source\PSoC4/CapSense_SMS.c **** *                                and Noise Reset Counter value in the MSB nibble.
 407:.\Generated_Source\PSoC4/CapSense_SMS.c **** *
ARM GAS  C:\Users\Henny\AppData\Local\Temp\ccmp9WGO.s 			page 15


 408:.\Generated_Source\PSoC4/CapSense_SMS.c **** * Side Effects:
 409:.\Generated_Source\PSoC4/CapSense_SMS.c **** *  None
 410:.\Generated_Source\PSoC4/CapSense_SMS.c **** *
 411:.\Generated_Source\PSoC4/CapSense_SMS.c **** *******************************************************************************/
 412:.\Generated_Source\PSoC4/CapSense_SMS.c **** void CapSense_SetSensitivity(uint32 sensor, uint32 value)
 413:.\Generated_Source\PSoC4/CapSense_SMS.c **** {
 361              		.loc 1 413 0
 362              		.cfi_startproc
 363              	.LVL36:
 364 0000 10B5     		push	{r4, lr}
 365              		.cfi_def_cfa_offset 8
 366              		.cfi_offset 4, -8
 367              		.cfi_offset 14, -4
 414:.\Generated_Source\PSoC4/CapSense_SMS.c ****     if(value > 10u)
 368              		.loc 1 414 0
 369 0002 0A29     		cmp	r1, #10
 370 0004 00D9     		bls	.L25
 415:.\Generated_Source\PSoC4/CapSense_SMS.c ****     {
 416:.\Generated_Source\PSoC4/CapSense_SMS.c ****         value = 10u;
 371              		.loc 1 416 0
 372 0006 0A21     		mov	r1, #10
 373              	.LVL37:
 374              	.L25:
 417:.\Generated_Source\PSoC4/CapSense_SMS.c ****     }
 418:.\Generated_Source\PSoC4/CapSense_SMS.c **** 
 419:.\Generated_Source\PSoC4/CapSense_SMS.c ****     /* Clear SensorSensitivity value in LSB nibble */
 420:.\Generated_Source\PSoC4/CapSense_SMS.c ****     CapSense_sensorSensitivity[sensor] &= (uint8)~CapSense_SENSITIVITY_MASK;
 375              		.loc 1 420 0
 376 0008 034A     		ldr	r2, .L27
 377 000a 135C     		ldrb	r3, [r2, r0]
 378 000c 0F24     		mov	r4, #15
 379 000e A343     		bic	r3, r4
 421:.\Generated_Source\PSoC4/CapSense_SMS.c ****     /* Set SensorSensitivity value in LSB nibble */
 422:.\Generated_Source\PSoC4/CapSense_SMS.c ****     CapSense_sensorSensitivity[sensor] |= (uint8)value;
 380              		.loc 1 422 0
 381 0010 1943     		orr	r1, r3
 382              	.LVL38:
 383 0012 1154     		strb	r1, [r2, r0]
 423:.\Generated_Source\PSoC4/CapSense_SMS.c **** }
 384              		.loc 1 423 0
 385              		@ sp needed
 386 0014 10BD     		pop	{r4, pc}
 387              	.L28:
 388 0016 C046     		.align	2
 389              	.L27:
 390 0018 00000000 		.word	.LANCHOR1
 391              		.cfi_endproc
 392              	.LFE41:
 393              		.size	CapSense_SetSensitivity, .-CapSense_SetSensitivity
 394              		.section	.text.CapSense_GetSensitivityCoefficient,"ax",%progbits
 395              		.align	2
 396              		.global	CapSense_GetSensitivityCoefficient
 397              		.code	16
 398              		.thumb_func
 399              		.type	CapSense_GetSensitivityCoefficient, %function
 400              	CapSense_GetSensitivityCoefficient:
 401              	.LFB42:
ARM GAS  C:\Users\Henny\AppData\Local\Temp\ccmp9WGO.s 			page 16


 424:.\Generated_Source\PSoC4/CapSense_SMS.c **** 
 425:.\Generated_Source\PSoC4/CapSense_SMS.c **** 
 426:.\Generated_Source\PSoC4/CapSense_SMS.c **** /*******************************************************************************
 427:.\Generated_Source\PSoC4/CapSense_SMS.c **** * Function Name: CapSense_GetSensitivityCoefficient
 428:.\Generated_Source\PSoC4/CapSense_SMS.c **** ********************************************************************************
 429:.\Generated_Source\PSoC4/CapSense_SMS.c **** *
 430:.\Generated_Source\PSoC4/CapSense_SMS.c **** * Summary:
 431:.\Generated_Source\PSoC4/CapSense_SMS.c **** *  This API returns the K coefficient for the appropriate sensor.
 432:.\Generated_Source\PSoC4/CapSense_SMS.c **** *
 433:.\Generated_Source\PSoC4/CapSense_SMS.c **** * Parameters:
 434:.\Generated_Source\PSoC4/CapSense_SMS.c **** *  sensor:  Sensor index
 435:.\Generated_Source\PSoC4/CapSense_SMS.c **** *
 436:.\Generated_Source\PSoC4/CapSense_SMS.c **** *  Return Value:
 437:.\Generated_Source\PSoC4/CapSense_SMS.c **** *   K - value for the appropriate sensor.
 438:.\Generated_Source\PSoC4/CapSense_SMS.c **** *
 439:.\Generated_Source\PSoC4/CapSense_SMS.c **** * Global Variables:
 440:.\Generated_Source\PSoC4/CapSense_SMS.c **** *  CapSense_kValueTbl[] - This 8-bits array contains the K value for each sensor.
 441:.\Generated_Source\PSoC4/CapSense_SMS.c **** *
 442:.\Generated_Source\PSoC4/CapSense_SMS.c **** * Side Effects:
 443:.\Generated_Source\PSoC4/CapSense_SMS.c **** *  None
 444:.\Generated_Source\PSoC4/CapSense_SMS.c **** *
 445:.\Generated_Source\PSoC4/CapSense_SMS.c **** *******************************************************************************/
 446:.\Generated_Source\PSoC4/CapSense_SMS.c **** uint8 CapSense_GetSensitivityCoefficient(uint32 sensor)
 447:.\Generated_Source\PSoC4/CapSense_SMS.c **** {
 402              		.loc 1 447 0
 403              		.cfi_startproc
 404              	.LVL39:
 448:.\Generated_Source\PSoC4/CapSense_SMS.c ****     return (CapSense_kValueTbl[sensor]);
 405              		.loc 1 448 0
 406 0000 014B     		ldr	r3, .L30
 407 0002 185C     		ldrb	r0, [r3, r0]
 408              	.LVL40:
 449:.\Generated_Source\PSoC4/CapSense_SMS.c **** }
 409              		.loc 1 449 0
 410              		@ sp needed
 411 0004 7047     		bx	lr
 412              	.L31:
 413 0006 C046     		.align	2
 414              	.L30:
 415 0008 00000000 		.word	CapSense_kValueTbl
 416              		.cfi_endproc
 417              	.LFE42:
 418              		.size	CapSense_GetSensitivityCoefficient, .-CapSense_GetSensitivityCoefficient
 419              		.section	.text.CapSense_GetNoiseEnvelope,"ax",%progbits
 420              		.align	2
 421              		.global	CapSense_GetNoiseEnvelope
 422              		.code	16
 423              		.thumb_func
 424              		.type	CapSense_GetNoiseEnvelope, %function
 425              	CapSense_GetNoiseEnvelope:
 426              	.LFB43:
 450:.\Generated_Source\PSoC4/CapSense_SMS.c **** 
 451:.\Generated_Source\PSoC4/CapSense_SMS.c **** 
 452:.\Generated_Source\PSoC4/CapSense_SMS.c **** /*******************************************************************************
 453:.\Generated_Source\PSoC4/CapSense_SMS.c **** * Function Name: CapSense_GetNoiseEnvelope
 454:.\Generated_Source\PSoC4/CapSense_SMS.c **** ********************************************************************************
 455:.\Generated_Source\PSoC4/CapSense_SMS.c **** *
ARM GAS  C:\Users\Henny\AppData\Local\Temp\ccmp9WGO.s 			page 17


 456:.\Generated_Source\PSoC4/CapSense_SMS.c **** * Summary:
 457:.\Generated_Source\PSoC4/CapSense_SMS.c **** *  This function returns the noise value of a
 458:.\Generated_Source\PSoC4/CapSense_SMS.c **** *  component.
 459:.\Generated_Source\PSoC4/CapSense_SMS.c **** *
 460:.\Generated_Source\PSoC4/CapSense_SMS.c **** * Parameters:
 461:.\Generated_Source\PSoC4/CapSense_SMS.c **** *  sensor - Sensor number.
 462:.\Generated_Source\PSoC4/CapSense_SMS.c **** *
 463:.\Generated_Source\PSoC4/CapSense_SMS.c **** * Return:
 464:.\Generated_Source\PSoC4/CapSense_SMS.c **** *  The noise envelope value of the sensor
 465:.\Generated_Source\PSoC4/CapSense_SMS.c **** *  indicated by argument.
 466:.\Generated_Source\PSoC4/CapSense_SMS.c **** *
 467:.\Generated_Source\PSoC4/CapSense_SMS.c **** * Global Variables:
 468:.\Generated_Source\PSoC4/CapSense_SMS.c **** *  CapSense_noiseEnvelopeTbl[] - array with Noise Envelope.
 469:.\Generated_Source\PSoC4/CapSense_SMS.c **** *
 470:.\Generated_Source\PSoC4/CapSense_SMS.c **** * Side Effects:
 471:.\Generated_Source\PSoC4/CapSense_SMS.c **** *  None
 472:.\Generated_Source\PSoC4/CapSense_SMS.c **** *
 473:.\Generated_Source\PSoC4/CapSense_SMS.c **** *******************************************************************************/
 474:.\Generated_Source\PSoC4/CapSense_SMS.c **** uint16 CapSense_GetNoiseEnvelope(uint32 sensor)
 475:.\Generated_Source\PSoC4/CapSense_SMS.c **** {
 427              		.loc 1 475 0
 428              		.cfi_startproc
 429              	.LVL41:
 476:.\Generated_Source\PSoC4/CapSense_SMS.c ****     return((uint16)((uint16)CapSense_noiseEnvelopeTbl[sensor] << 1u) + 1u);
 430              		.loc 1 476 0
 431 0000 024B     		ldr	r3, .L33
 432 0002 185C     		ldrb	r0, [r3, r0]
 433              	.LVL42:
 434 0004 4000     		lsl	r0, r0, #1
 435 0006 0130     		add	r0, r0, #1
 477:.\Generated_Source\PSoC4/CapSense_SMS.c **** }
 436              		.loc 1 477 0
 437              		@ sp needed
 438 0008 7047     		bx	lr
 439              	.L34:
 440 000a C046     		.align	2
 441              	.L33:
 442 000c 00000000 		.word	CapSense_noiseEnvelopeTbl
 443              		.cfi_endproc
 444              	.LFE43:
 445              		.size	CapSense_GetNoiseEnvelope, .-CapSense_GetNoiseEnvelope
 446              		.global	__aeabi_uidiv
 447              		.section	.text.CapSense_GetNormalizedDiffCountData,"ax",%progbits
 448              		.align	2
 449              		.global	CapSense_GetNormalizedDiffCountData
 450              		.code	16
 451              		.thumb_func
 452              		.type	CapSense_GetNormalizedDiffCountData, %function
 453              	CapSense_GetNormalizedDiffCountData:
 454              	.LFB44:
 478:.\Generated_Source\PSoC4/CapSense_SMS.c **** 
 479:.\Generated_Source\PSoC4/CapSense_SMS.c **** 
 480:.\Generated_Source\PSoC4/CapSense_SMS.c **** /*******************************************************************************
 481:.\Generated_Source\PSoC4/CapSense_SMS.c **** * Function Name: CapSense_GetNormalizedDiffCountData
 482:.\Generated_Source\PSoC4/CapSense_SMS.c **** ********************************************************************************
 483:.\Generated_Source\PSoC4/CapSense_SMS.c **** *
 484:.\Generated_Source\PSoC4/CapSense_SMS.c **** * Summary:
ARM GAS  C:\Users\Henny\AppData\Local\Temp\ccmp9WGO.s 			page 18


 485:.\Generated_Source\PSoC4/CapSense_SMS.c **** *  This API returns normalized difference count data.
 486:.\Generated_Source\PSoC4/CapSense_SMS.c **** *
 487:.\Generated_Source\PSoC4/CapSense_SMS.c **** * Parameters:
 488:.\Generated_Source\PSoC4/CapSense_SMS.c **** *  sensor:  Sensor number.
 489:.\Generated_Source\PSoC4/CapSense_SMS.c **** *
 490:.\Generated_Source\PSoC4/CapSense_SMS.c **** * Return:
 491:.\Generated_Source\PSoC4/CapSense_SMS.c **** *  This API returns a normalized count value of the sensor indicated by the
 492:.\Generated_Source\PSoC4/CapSense_SMS.c **** *  argument.
 493:.\Generated_Source\PSoC4/CapSense_SMS.c **** *
 494:.\Generated_Source\PSoC4/CapSense_SMS.c **** * Global Variables:
 495:.\Generated_Source\PSoC4/CapSense_SMS.c **** *  CapSense_sensorSignal[] - array with difference counts for sensors
 496:.\Generated_Source\PSoC4/CapSense_SMS.c **** *
 497:.\Generated_Source\PSoC4/CapSense_SMS.c **** * Side Effects:
 498:.\Generated_Source\PSoC4/CapSense_SMS.c **** *  None
 499:.\Generated_Source\PSoC4/CapSense_SMS.c **** *
 500:.\Generated_Source\PSoC4/CapSense_SMS.c **** *******************************************************************************/
 501:.\Generated_Source\PSoC4/CapSense_SMS.c **** uint16 CapSense_GetNormalizedDiffCountData(uint32 sensor)
 502:.\Generated_Source\PSoC4/CapSense_SMS.c **** {
 455              		.loc 1 502 0
 456              		.cfi_startproc
 457              	.LVL43:
 458 0000 08B5     		push	{r3, lr}
 459              		.cfi_def_cfa_offset 8
 460              		.cfi_offset 3, -8
 461              		.cfi_offset 14, -4
 462 0002 021C     		mov	r2, r0
 503:.\Generated_Source\PSoC4/CapSense_SMS.c ****     return (uint16)(((uint32)CapSense_sensorSignal[sensor] << 7u) / CapSense_kValueTbl[sensor]);
 463              		.loc 1 503 0
 464 0004 044B     		ldr	r3, .L36
 465 0006 1B5C     		ldrb	r3, [r3, r0]
 466 0008 D801     		lsl	r0, r3, #7
 467              	.LVL44:
 468 000a 044B     		ldr	r3, .L36+4
 469 000c 995C     		ldrb	r1, [r3, r2]
 470 000e FFF7FEFF 		bl	__aeabi_uidiv
 471              	.LVL45:
 472 0012 80B2     		uxth	r0, r0
 504:.\Generated_Source\PSoC4/CapSense_SMS.c **** }
 473              		.loc 1 504 0
 474              		@ sp needed
 475 0014 08BD     		pop	{r3, pc}
 476              	.L37:
 477 0016 C046     		.align	2
 478              	.L36:
 479 0018 00000000 		.word	CapSense_sensorSignal
 480 001c 00000000 		.word	CapSense_kValueTbl
 481              		.cfi_endproc
 482              	.LFE44:
 483              		.size	CapSense_GetNormalizedDiffCountData, .-CapSense_GetNormalizedDiffCountData
 484              		.global	CapSense_configPointers
 485              		.comm	CapSense_config,12,4
 486              		.global	CapSense_sensorSensitivity
 487              		.comm	CapSense_kValueTbl,5,4
 488              		.comm	CapSense_previousSampleTbl,10,4
 489              		.comm	CapSense_sampleMaxTbl,10,4
 490              		.comm	CapSense_sampleMinTbl,10,4
 491              		.comm	CapSense_signRegisterTbl,5,4
ARM GAS  C:\Users\Henny\AppData\Local\Temp\ccmp9WGO.s 			page 19


 492              		.comm	CapSense_runningDifferenceTbl,5,4
 493              		.comm	CapSense_noiseEnvelopeTbl,5,4
 494              		.global	CapSense_prescalerTable
 495              		.section	.rodata
 496              		.align	2
 497              		.set	.LANCHOR0,. + 0
 498              		.type	CapSense_configPointers, %object
 499              		.size	CapSense_configPointers, 92
 500              	CapSense_configPointers:
 501 0000 00000000 		.word	CapSense_modulationIDAC
 502 0004 00000000 		.word	CapSense_compensationIDAC
 503 0008 00000000 		.word	CapSense_sensorSensitivity
 504 000c 00000000 		.word	CapSense_senseClkDividerVal
 505 0010 00000000 		.word	CapSense_sampleClkDividerVal
 506 0014 00000000 		.word	CapSense_widgetNumber
 507 0018 00000000 		.word	CapSense_widgetResolution
 508 001c 00000000 		.word	CapSense_noiseEnvelopeTbl
 509 0020 00000000 		.word	CapSense_runningDifferenceTbl
 510 0024 00000000 		.word	CapSense_signRegisterTbl
 511 0028 00000000 		.word	CapSense_sampleMinTbl
 512 002c 00000000 		.word	CapSense_sampleMaxTbl
 513 0030 00000000 		.word	CapSense_previousSampleTbl
 514 0034 00000000 		.word	CapSense_kValueTbl
 515 0038 00000000 		.word	CapSense_scanSpeedTbl
 516 003c 00000000 		.word	CapSense_prescalerTable
 517 0040 00000000 		.word	CapSense_rawDataIndex
 518 0044 00000000 		.word	CapSense_numberOfSensors
 519 0048 00000000 		.word	CapSense_GetSensorRaw
 520 004c 00000000 		.word	CapSense_PreScan
 521 0050 00000000 		.word	CapSense_ReadSensorRaw
 522 0054 00000000 		.word	CapSense_GetBitValue
 523 0058 00000000 		.word	CapSense_SetBitValue
 524              		.type	CapSense_prescalerTable, %object
 525              		.size	CapSense_prescalerTable, 16
 526              	CapSense_prescalerTable:
 527 005c 04       		.byte	4
 528 005d 04       		.byte	4
 529 005e 04       		.byte	4
 530 005f 08       		.byte	8
 531 0060 08       		.byte	8
 532 0061 08       		.byte	8
 533 0062 08       		.byte	8
 534 0063 10       		.byte	16
 535 0064 10       		.byte	16
 536 0065 10       		.byte	16
 537 0066 10       		.byte	16
 538 0067 10       		.byte	16
 539 0068 10       		.byte	16
 540 0069 10       		.byte	16
 541 006a 10       		.byte	16
 542 006b 10       		.byte	16
 543              		.data
 544              		.align	2
 545              		.set	.LANCHOR1,. + 0
 546              		.type	CapSense_sensorSensitivity, %object
 547              		.size	CapSense_sensorSensitivity, 5
 548              	CapSense_sensorSensitivity:
ARM GAS  C:\Users\Henny\AppData\Local\Temp\ccmp9WGO.s 			page 20


 549 0000 02       		.byte	2
 550 0001 02       		.byte	2
 551 0002 02       		.byte	2
 552 0003 02       		.byte	2
 553 0004 02       		.byte	2
 554 0005 000000   		.text
 555              	.Letext0:
 556              		.file 2 ".\\Generated_Source\\PSoC4\\cytypes.h"
 557              		.file 3 ".\\Generated_Source\\PSoC4\\CapSense_PVT.h"
 558              		.file 4 ".\\Generated_Source\\PSoC4\\CapSense.h"
 559              		.file 5 ".\\Generated_Source\\PSoC4\\CapSense_CSHL.h"
 560              		.file 6 ".\\Generated_Source\\PSoC4\\CyLib.h"