ARM GAS  C:\Users\Henny\AppData\Local\Temp\ccSXqeeh.s 			page 1


   1              		.cpu cortex-m0
   2              		.fpu softvfp
   3              		.eabi_attribute 20, 1
   4              		.eabi_attribute 21, 1
   5              		.eabi_attribute 23, 3
   6              		.eabi_attribute 24, 1
   7              		.eabi_attribute 25, 1
   8              		.eabi_attribute 26, 1
   9              		.eabi_attribute 30, 6
  10              		.eabi_attribute 34, 0
  11              		.eabi_attribute 18, 4
  12              		.code	16
  13              		.file	"bas.c"
  14              		.text
  15              	.Ltext0:
  16              		.cfi_sections	.debug_frame
  17              		.global	batterySimulationNotify
  18              		.bss
  19              		.align	1
  20              		.type	batterySimulationNotify, %object
  21              		.size	batterySimulationNotify, 2
  22              	batterySimulationNotify:
  23 0000 0000     		.space	2
  24              		.global	batteryMeasureNotify
  25              		.align	1
  26              		.type	batteryMeasureNotify, %object
  27              		.size	batteryMeasureNotify, 2
  28              	batteryMeasureNotify:
  29 0002 0000     		.space	2
  30              		.section	.rodata
  31              		.align	2
  32              	.LC0:
  33 0000 42415320 		.ascii	"BAS event: %lx, \000"
  33      6576656E 
  33      743A2025 
  33      6C782C20 
  33      00
  34 0011 000000   		.align	2
  35              	.LC3:
  36 0014 4359424C 		.ascii	"CYBLE_EVT_BASS_NOTIFICATION_ENABLED: %x \015\012\000"
  36      455F4556 
  36      545F4241 
  36      53535F4E 
  36      4F544946 
  37 003f 00       		.align	2
  38              	.LC7:
  39 0040 4359424C 		.ascii	"CYBLE_EVT_BASS_NOTIFICATION_DISABLED: %x \015\012\000"
  39      455F4556 
  39      545F4241 
  39      53535F4E 
  39      4F544946 
  40              		.align	2
  41              	.LC9:
  42 006c 4E6F7420 		.ascii	"Not supported event\015\000"
  42      73757070 
  42      6F727465 
  42      64206576 
ARM GAS  C:\Users\Henny\AppData\Local\Temp\ccSXqeeh.s 			page 2


  42      656E740D 
  43              		.section	.text.BasCallBack,"ax",%progbits
  44              		.align	2
  45              		.global	BasCallBack
  46              		.code	16
  47              		.thumb_func
  48              		.type	BasCallBack, %function
  49              	BasCallBack:
  50              	.LFB37:
  51              		.file 1 ".\\bas.c"
   1:.\bas.c       **** /*******************************************************************************
   2:.\bas.c       **** * File Name: bas.c
   3:.\bas.c       **** *
   4:.\bas.c       **** * Version: 1.0
   5:.\bas.c       **** *
   6:.\bas.c       **** * Description:
   7:.\bas.c       **** *  This file contains BAS callback handler function.
   8:.\bas.c       **** *
   9:.\bas.c       **** * Hardware Dependency:
  10:.\bas.c       **** *  CY8CKIT-042 BLE
  11:.\bas.c       **** * 
  12:.\bas.c       **** ********************************************************************************
  13:.\bas.c       **** * Copyright 2015, Cypress Semiconductor Corporation.  All rights reserved.
  14:.\bas.c       **** * You may use this file only in accordance with the license, terms, conditions,
  15:.\bas.c       **** * disclaimers, and limitations in the end user license agreement accompanying
  16:.\bas.c       **** * the software package with which this file was provided.
  17:.\bas.c       **** *******************************************************************************/
  18:.\bas.c       **** 
  19:.\bas.c       **** #include "common.h"
  20:.\bas.c       **** #include "bas.h"
  21:.\bas.c       **** 
  22:.\bas.c       **** uint16 batterySimulationNotify = 0u;
  23:.\bas.c       **** uint16 batteryMeasureNotify = 0u;
  24:.\bas.c       **** 
  25:.\bas.c       **** 
  26:.\bas.c       **** /*******************************************************************************
  27:.\bas.c       **** * Function Name: BasCallBack()
  28:.\bas.c       **** ********************************************************************************
  29:.\bas.c       **** *
  30:.\bas.c       **** * Summary:
  31:.\bas.c       **** *   This is an event callback function to receive service specific events from 
  32:.\bas.c       **** *   Battery Service.
  33:.\bas.c       **** *
  34:.\bas.c       **** * Parameters:
  35:.\bas.c       **** *  event - the event code
  36:.\bas.c       **** *  *eventParam - the event parameters
  37:.\bas.c       **** *
  38:.\bas.c       **** * Return:
  39:.\bas.c       **** *  None.
  40:.\bas.c       **** *
  41:.\bas.c       **** ********************************************************************************/
  42:.\bas.c       **** void BasCallBack(uint32 event, void *eventParam)
  43:.\bas.c       **** {
  52              		.loc 1 43 0
  53              		.cfi_startproc
  54 0000 80B5     		push	{r7, lr}
  55              		.cfi_def_cfa_offset 8
ARM GAS  C:\Users\Henny\AppData\Local\Temp\ccSXqeeh.s 			page 3


  56              		.cfi_offset 7, -8
  57              		.cfi_offset 14, -4
  58 0002 84B0     		sub	sp, sp, #16
  59              		.cfi_def_cfa_offset 24
  60 0004 00AF     		add	r7, sp, #0
  61              		.cfi_def_cfa_register 7
  62 0006 7860     		str	r0, [r7, #4]
  63 0008 3960     		str	r1, [r7]
  44:.\bas.c       ****     uint8 locServiceIndex;
  45:.\bas.c       ****     
  46:.\bas.c       ****     locServiceIndex = ((CYBLE_BAS_CHAR_VALUE_T *)eventParam)->serviceIndex;
  64              		.loc 1 46 0
  65 000a 0F23     		mov	r3, #15
  66 000c FB18     		add	r3, r7, r3
  67 000e 3A68     		ldr	r2, [r7]
  68 0010 9278     		ldrb	r2, [r2, #2]
  69 0012 1A70     		strb	r2, [r3]
  47:.\bas.c       ****     DBG_PRINTF("BAS event: %lx, ", event);
  70              		.loc 1 47 0
  71 0014 264A     		ldr	r2, .L16
  72 0016 7B68     		ldr	r3, [r7, #4]
  73 0018 101C     		mov	r0, r2
  74 001a 191C     		mov	r1, r3
  75 001c FFF7FEFF 		bl	printf
  48:.\bas.c       ****     
  49:.\bas.c       ****     switch(event)
  76              		.loc 1 49 0
  77 0020 7B68     		ldr	r3, [r7, #4]
  78 0022 243B     		sub	r3, r3, #36
  79 0024 FF3B     		sub	r3, r3, #255
  80 0026 052B     		cmp	r3, #5
  81 0028 38D8     		bhi	.L2
  82 002a 9A00     		lsl	r2, r3, #2
  83 002c 214B     		ldr	r3, .L16+4
  84 002e D318     		add	r3, r2, r3
  85 0030 1B68     		ldr	r3, [r3]
  86 0032 9F46     		mov	pc, r3
  87              		.section	.rodata
  88 0081 000000   		.align	2
  89              	.L4:
  90 0084 34000000 		.word	.L3
  91 0088 68000000 		.word	.L5
  92 008c A8000000 		.word	.L15
  93 0090 A8000000 		.word	.L15
  94 0094 A8000000 		.word	.L15
  95 0098 A8000000 		.word	.L15
  96              		.section	.text.BasCallBack
  97              	.L3:
  50:.\bas.c       ****     {
  51:.\bas.c       ****         case CYBLE_EVT_BASS_NOTIFICATION_ENABLED:
  52:.\bas.c       ****             DBG_PRINTF("CYBLE_EVT_BASS_NOTIFICATION_ENABLED: %x \r\n", locServiceIndex);
  98              		.loc 1 52 0
  99 0034 0F23     		mov	r3, #15
 100 0036 FB18     		add	r3, r7, r3
 101 0038 1B78     		ldrb	r3, [r3]
 102 003a 1F4A     		ldr	r2, .L16+8
 103 003c 101C     		mov	r0, r2
ARM GAS  C:\Users\Henny\AppData\Local\Temp\ccSXqeeh.s 			page 4


 104 003e 191C     		mov	r1, r3
 105 0040 FFF7FEFF 		bl	printf
  53:.\bas.c       ****             if(CYBLE_BATTERY_SERVICE_SIMULATE_SERVICE_INDEX == locServiceIndex)
 106              		.loc 1 53 0
 107 0044 0F23     		mov	r3, #15
 108 0046 FB18     		add	r3, r7, r3
 109 0048 1B78     		ldrb	r3, [r3]
 110 004a 012B     		cmp	r3, #1
 111 004c 02D1     		bne	.L10
  54:.\bas.c       ****             {
  55:.\bas.c       ****                 batterySimulationNotify = ENABLED;
 112              		.loc 1 55 0
 113 004e 1B4B     		ldr	r3, .L16+12
 114 0050 0122     		mov	r2, #1
 115 0052 1A80     		strh	r2, [r3]
 116              	.L10:
  56:.\bas.c       ****             }
  57:.\bas.c       ****             if(CYBLE_BATTERY_SERVICE_MEASURE_SERVICE_INDEX == locServiceIndex)
 117              		.loc 1 57 0
 118 0054 0F23     		mov	r3, #15
 119 0056 FB18     		add	r3, r7, r3
 120 0058 1B78     		ldrb	r3, [r3]
 121 005a 002B     		cmp	r3, #0
 122 005c 03D1     		bne	.L11
  58:.\bas.c       ****             {
  59:.\bas.c       ****                 batteryMeasureNotify = ENABLED;
 123              		.loc 1 59 0
 124 005e 184B     		ldr	r3, .L16+16
 125 0060 0122     		mov	r2, #1
 126 0062 1A80     		strh	r2, [r3]
  60:.\bas.c       ****             }
  61:.\bas.c       ****             break;
 127              		.loc 1 61 0
 128 0064 21E0     		b	.L1
 129              	.L11:
 130 0066 20E0     		b	.L1
 131              	.L5:
  62:.\bas.c       ****                 
  63:.\bas.c       ****         case CYBLE_EVT_BASS_NOTIFICATION_DISABLED:
  64:.\bas.c       ****             DBG_PRINTF("CYBLE_EVT_BASS_NOTIFICATION_DISABLED: %x \r\n", locServiceIndex);
 132              		.loc 1 64 0
 133 0068 0F23     		mov	r3, #15
 134 006a FB18     		add	r3, r7, r3
 135 006c 1B78     		ldrb	r3, [r3]
 136 006e 154A     		ldr	r2, .L16+20
 137 0070 101C     		mov	r0, r2
 138 0072 191C     		mov	r1, r3
 139 0074 FFF7FEFF 		bl	printf
  65:.\bas.c       ****             if(CYBLE_BATTERY_SERVICE_SIMULATE_SERVICE_INDEX == locServiceIndex)
 140              		.loc 1 65 0
 141 0078 0F23     		mov	r3, #15
 142 007a FB18     		add	r3, r7, r3
 143 007c 1B78     		ldrb	r3, [r3]
 144 007e 012B     		cmp	r3, #1
 145 0080 02D1     		bne	.L13
  66:.\bas.c       ****             {
  67:.\bas.c       ****                 batterySimulationNotify = DISABLED;
ARM GAS  C:\Users\Henny\AppData\Local\Temp\ccSXqeeh.s 			page 5


 146              		.loc 1 67 0
 147 0082 0E4B     		ldr	r3, .L16+12
 148 0084 0022     		mov	r2, #0
 149 0086 1A80     		strh	r2, [r3]
 150              	.L13:
  68:.\bas.c       ****             }
  69:.\bas.c       ****             if(CYBLE_BATTERY_SERVICE_MEASURE_SERVICE_INDEX == locServiceIndex)
 151              		.loc 1 69 0
 152 0088 0F23     		mov	r3, #15
 153 008a FB18     		add	r3, r7, r3
 154 008c 1B78     		ldrb	r3, [r3]
 155 008e 002B     		cmp	r3, #0
 156 0090 03D1     		bne	.L14
  70:.\bas.c       ****             {
  71:.\bas.c       ****                 batteryMeasureNotify = DISABLED;
 157              		.loc 1 71 0
 158 0092 0B4B     		ldr	r3, .L16+16
 159 0094 0022     		mov	r2, #0
 160 0096 1A80     		strh	r2, [r3]
  72:.\bas.c       ****             }
  73:.\bas.c       ****             break;
 161              		.loc 1 73 0
 162 0098 07E0     		b	.L1
 163              	.L14:
 164 009a 06E0     		b	.L1
 165              	.L2:
  74:.\bas.c       ****         case CYBLE_EVT_BASC_NOTIFICATION:
  75:.\bas.c       ****             break;
  76:.\bas.c       ****         case CYBLE_EVT_BASC_READ_CHAR_RESPONSE:
  77:.\bas.c       ****             break;
  78:.\bas.c       ****         case CYBLE_EVT_BASC_READ_DESCR_RESPONSE:
  79:.\bas.c       ****             break;
  80:.\bas.c       ****         case CYBLE_EVT_BASC_WRITE_DESCR_RESPONSE:
  81:.\bas.c       ****             break;
  82:.\bas.c       **** 		default:
  83:.\bas.c       ****             DBG_PRINTF("Not supported event\r\n");
 166              		.loc 1 83 0
 167 009c 0A4B     		ldr	r3, .L16+24
 168 009e 181C     		mov	r0, r3
 169 00a0 FFF7FEFF 		bl	puts
  84:.\bas.c       **** 			break;
 170              		.loc 1 84 0
 171 00a4 C046     		mov	r8, r8
 172 00a6 00E0     		b	.L1
 173              	.L15:
  81:.\bas.c       **** 		default:
 174              		.loc 1 81 0
 175 00a8 C046     		mov	r8, r8
 176              	.L1:
  85:.\bas.c       ****     }
  86:.\bas.c       **** }
 177              		.loc 1 86 0
 178 00aa BD46     		mov	sp, r7
 179 00ac 04B0     		add	sp, sp, #16
 180              		@ sp needed
 181 00ae 80BD     		pop	{r7, pc}
 182              	.L17:
ARM GAS  C:\Users\Henny\AppData\Local\Temp\ccSXqeeh.s 			page 6


 183              		.align	2
 184              	.L16:
 185 00b0 00000000 		.word	.LC0
 186 00b4 84000000 		.word	.L4
 187 00b8 14000000 		.word	.LC3
 188 00bc 00000000 		.word	batterySimulationNotify
 189 00c0 00000000 		.word	batteryMeasureNotify
 190 00c4 40000000 		.word	.LC7
 191 00c8 6C000000 		.word	.LC9
 192              		.cfi_endproc
 193              	.LFE37:
 194              		.size	BasCallBack, .-BasCallBack
 195              		.global	__aeabi_idiv
 196              		.section	.rodata
 197              		.align	2
 198              	.LC14:
 199 009c 41504920 		.ascii	"API Error: %x \015\012\000"
 199      4572726F 
 199      723A2025 
 199      78200D0A 
 199      00
 200 00ad 000000   		.align	2
 201              	.LC16:
 202 00b0 4D656173 		.ascii	"MeasureBatteryLevelUpdate: %d \015\012\000"
 202      75726542 
 202      61747465 
 202      72794C65 
 202      76656C55 
 203              		.section	.text.MeasureBattery,"ax",%progbits
 204              		.align	2
 205              		.global	MeasureBattery
 206              		.code	16
 207              		.thumb_func
 208              		.type	MeasureBattery, %function
 209              	MeasureBattery:
 210              	.LFB38:
  87:.\bas.c       **** 
  88:.\bas.c       **** 
  89:.\bas.c       **** /*******************************************************************************
  90:.\bas.c       **** * Function Name: MeasureBattery()
  91:.\bas.c       **** ********************************************************************************
  92:.\bas.c       **** *
  93:.\bas.c       **** * Summary:
  94:.\bas.c       **** *   This function measures the battery voltage and send it to the client.
  95:.\bas.c       **** *
  96:.\bas.c       **** *******************************************************************************/
  97:.\bas.c       **** void MeasureBattery(void)
  98:.\bas.c       **** {
 211              		.loc 1 98 0
 212              		.cfi_startproc
 213 0000 90B5     		push	{r4, r7, lr}
 214              		.cfi_def_cfa_offset 12
 215              		.cfi_offset 4, -12
 216              		.cfi_offset 7, -8
 217              		.cfi_offset 14, -4
 218 0002 89B0     		sub	sp, sp, #36
 219              		.cfi_def_cfa_offset 48
ARM GAS  C:\Users\Henny\AppData\Local\Temp\ccSXqeeh.s 			page 7


 220 0004 02AF     		add	r7, sp, #8
 221              		.cfi_def_cfa 7, 40
  99:.\bas.c       **** 	int16 adcResult;
 100:.\bas.c       ****     int32 mvolts;
 101:.\bas.c       **** 	uint32 sarControlReg;
 102:.\bas.c       ****     uint8 batteryLevel;
 103:.\bas.c       ****     CYBLE_API_RESULT_T apiResult;
 104:.\bas.c       ****     
 105:.\bas.c       ****     static uint32 batteryTimer = BATTERY_TIMEOUT;
 106:.\bas.c       ****     
 107:.\bas.c       ****     if(--batteryTimer == 0u) 
 222              		.loc 1 107 0
 223 0006 614B     		ldr	r3, .L29
 224 0008 1B68     		ldr	r3, [r3]
 225 000a 5A1E     		sub	r2, r3, #1
 226 000c 5F4B     		ldr	r3, .L29
 227 000e 1A60     		str	r2, [r3]
 228 0010 5E4B     		ldr	r3, .L29
 229 0012 1B68     		ldr	r3, [r3]
 230 0014 002B     		cmp	r3, #0
 231 0016 00D0     		beq	.LCB159
 232 0018 B5E0     		b	.L18	@long jump
 233              	.LCB159:
 108:.\bas.c       ****     {
 109:.\bas.c       ****         batteryTimer = BATTERY_TIMEOUT;
 234              		.loc 1 109 0
 235 001a 5C4B     		ldr	r3, .L29
 236 001c 5C4A     		ldr	r2, .L29+4
 237 001e 1A60     		str	r2, [r3]
 110:.\bas.c       ****         
 111:.\bas.c       ****     	/* Set the reference to VBG and enable reference bypass */
 112:.\bas.c       ****     	sarControlReg = ADC_SAR_CTRL_REG & ~ADC_VREF_MASK;
 238              		.loc 1 112 0
 239 0020 5C4B     		ldr	r3, .L29+8
 240 0022 1B68     		ldr	r3, [r3]
 241 0024 F022     		mov	r2, #240
 242 0026 9343     		bic	r3, r2
 243 0028 3B61     		str	r3, [r7, #16]
 113:.\bas.c       ****     	ADC_SAR_CTRL_REG = sarControlReg | ADC_VREF_INTERNAL1024BYPASSED;
 244              		.loc 1 113 0
 245 002a 5A4B     		ldr	r3, .L29+8
 246 002c 3A69     		ldr	r2, [r7, #16]
 247 002e C021     		mov	r1, #192
 248 0030 0A43     		orr	r2, r1
 249 0032 1A60     		str	r2, [r3]
 114:.\bas.c       ****     	
 115:.\bas.c       ****     	/* 25 ms delay for reference capacitor to charge */
 116:.\bas.c       ****     	CyDelay(25);             
 250              		.loc 1 116 0
 251 0034 1920     		mov	r0, #25
 252 0036 FFF7FEFF 		bl	CyDelay
 117:.\bas.c       ****     	
 118:.\bas.c       ****     	/* Set the reference to VDD and disable reference bypass */
 119:.\bas.c       ****     	sarControlReg = ADC_SAR_CTRL_REG & ~ADC_VREF_MASK;
 253              		.loc 1 119 0
 254 003a 564B     		ldr	r3, .L29+8
 255 003c 1B68     		ldr	r3, [r3]
ARM GAS  C:\Users\Henny\AppData\Local\Temp\ccSXqeeh.s 			page 8


 256 003e F022     		mov	r2, #240
 257 0040 9343     		bic	r3, r2
 258 0042 3B61     		str	r3, [r7, #16]
 120:.\bas.c       ****     	ADC_SAR_CTRL_REG = sarControlReg | ADC_VREF_VDDA;
 259              		.loc 1 120 0
 260 0044 534B     		ldr	r3, .L29+8
 261 0046 3A69     		ldr	r2, [r7, #16]
 262 0048 7021     		mov	r1, #112
 263 004a 0A43     		orr	r2, r1
 264 004c 1A60     		str	r2, [r3]
 121:.\bas.c       **** 
 122:.\bas.c       ****     	/* Perform a measurement. Store this value in Vref. */
 123:.\bas.c       ****     	CyDelay(1);
 265              		.loc 1 123 0
 266 004e 0120     		mov	r0, #1
 267 0050 FFF7FEFF 		bl	CyDelay
 124:.\bas.c       ****     	ADC_StartConvert();
 268              		.loc 1 124 0
 269 0054 FFF7FEFF 		bl	ADC_StartConvert
 125:.\bas.c       ****     	ADC_IsEndConversion(ADC_WAIT_FOR_RESULT);
 270              		.loc 1 125 0
 271 0058 0220     		mov	r0, #2
 272 005a FFF7FEFF 		bl	ADC_IsEndConversion
 126:.\bas.c       **** 
 127:.\bas.c       ****         adcResult = ADC_GetResult16(ADC_BATTERY_CHANNEL);
 273              		.loc 1 127 0
 274 005e 0E23     		mov	r3, #14
 275 0060 FC18     		add	r4, r7, r3
 276 0062 0020     		mov	r0, #0
 277 0064 FFF7FEFF 		bl	ADC_GetResult16
 278 0068 031C     		mov	r3, r0
 279 006a 2380     		strh	r3, [r4]
 128:.\bas.c       ****     	/* Calculate input voltage by using ratio of ADC counts from reference
 129:.\bas.c       ****     	*  and ADC Full Scale counts. 
 130:.\bas.c       ****         */
 131:.\bas.c       ****     	mvolts = (1024 * 2048) / adcResult;
 280              		.loc 1 131 0
 281 006c 0E23     		mov	r3, #14
 282 006e FB18     		add	r3, r7, r3
 283 0070 0022     		mov	r2, #0
 284 0072 9A5E     		ldrsh	r2, [r3, r2]
 285 0074 8023     		mov	r3, #128
 286 0076 9803     		lsl	r0, r3, #14
 287 0078 111C     		mov	r1, r2
 288 007a FFF7FEFF 		bl	__aeabi_idiv
 289 007e 031C     		mov	r3, r0
 290 0080 BB60     		str	r3, [r7, #8]
 132:.\bas.c       ****         
 133:.\bas.c       ****         /* Convert battery level voltage to percentage using linear approximation
 134:.\bas.c       ****         *  divided into two sections according to typical performance of 
 135:.\bas.c       ****         *  CR2033 battery specification:
 136:.\bas.c       ****         *  3V - 100%
 137:.\bas.c       ****         *  2.8V - 29%
 138:.\bas.c       ****         *  2.0V - 0%
 139:.\bas.c       ****         */
 140:.\bas.c       ****         if(mvolts < MEASURE_BATTERY_MIN)
 291              		.loc 1 140 0
ARM GAS  C:\Users\Henny\AppData\Local\Temp\ccSXqeeh.s 			page 9


 292 0082 BB68     		ldr	r3, [r7, #8]
 293 0084 444A     		ldr	r2, .L29+12
 294 0086 9342     		cmp	r3, r2
 295 0088 03DC     		bgt	.L20
 141:.\bas.c       ****         {
 142:.\bas.c       ****             batteryLevel = 0;
 296              		.loc 1 142 0
 297 008a FB1D     		add	r3, r7, #7
 298 008c 0022     		mov	r2, #0
 299 008e 1A70     		strb	r2, [r3]
 300 0090 2FE0     		b	.L21
 301              	.L20:
 143:.\bas.c       ****         }
 144:.\bas.c       ****         else if(mvolts < MEASURE_BATTERY_MID)
 302              		.loc 1 144 0
 303 0092 BB68     		ldr	r3, [r7, #8]
 304 0094 414A     		ldr	r2, .L29+16
 305 0096 9342     		cmp	r3, r2
 306 0098 11DC     		bgt	.L22
 145:.\bas.c       ****         {
 146:.\bas.c       ****             batteryLevel = (mvolts - MEASURE_BATTERY_MIN) * MEASURE_BATTERY_MID_PERCENT / 
 307              		.loc 1 146 0
 308 009a BB68     		ldr	r3, [r7, #8]
 309 009c 404A     		ldr	r2, .L29+20
 310 009e 9A18     		add	r2, r3, r2
 311 00a0 131C     		mov	r3, r2
 312 00a2 DB00     		lsl	r3, r3, #3
 313 00a4 9B1A     		sub	r3, r3, r2
 314 00a6 9B00     		lsl	r3, r3, #2
 315 00a8 9B18     		add	r3, r3, r2
 316 00aa 181C     		mov	r0, r3
 317 00ac C823     		mov	r3, #200
 318 00ae 9900     		lsl	r1, r3, #2
 319 00b0 FFF7FEFF 		bl	__aeabi_idiv
 320 00b4 031C     		mov	r3, r0
 321 00b6 DAB2     		uxtb	r2, r3
 322 00b8 FB1D     		add	r3, r7, #7
 323 00ba 1A70     		strb	r2, [r3]
 324 00bc 19E0     		b	.L21
 325              	.L22:
 147:.\bas.c       ****                            (MEASURE_BATTERY_MID - MEASURE_BATTERY_MIN); 
 148:.\bas.c       ****         }
 149:.\bas.c       ****         else if(mvolts < MEASURE_BATTERY_MAX)
 326              		.loc 1 149 0
 327 00be BB68     		ldr	r3, [r7, #8]
 328 00c0 384A     		ldr	r2, .L29+24
 329 00c2 9342     		cmp	r3, r2
 330 00c4 12DC     		bgt	.L23
 150:.\bas.c       ****         {
 151:.\bas.c       ****             batteryLevel = MEASURE_BATTERY_MID_PERCENT +
 152:.\bas.c       ****                            (mvolts - MEASURE_BATTERY_MID) * (100 - MEASURE_BATTERY_MID_PERCENT) / 
 331              		.loc 1 152 0
 332 00c6 BB68     		ldr	r3, [r7, #8]
 333 00c8 374A     		ldr	r2, .L29+28
 334 00ca 9A18     		add	r2, r3, r2
 335 00cc 131C     		mov	r3, r2
 336 00ce DB00     		lsl	r3, r3, #3
ARM GAS  C:\Users\Henny\AppData\Local\Temp\ccSXqeeh.s 			page 10


 337 00d0 9B18     		add	r3, r3, r2
 338 00d2 DB00     		lsl	r3, r3, #3
 339 00d4 9B1A     		sub	r3, r3, r2
 340 00d6 181C     		mov	r0, r3
 341 00d8 C821     		mov	r1, #200
 342 00da FFF7FEFF 		bl	__aeabi_idiv
 343 00de 031C     		mov	r3, r0
 151:.\bas.c       ****                            (mvolts - MEASURE_BATTERY_MID) * (100 - MEASURE_BATTERY_MID_PERCENT) / 
 344              		.loc 1 151 0
 345 00e0 DBB2     		uxtb	r3, r3
 346 00e2 1D33     		add	r3, r3, #29
 347 00e4 DAB2     		uxtb	r2, r3
 348 00e6 FB1D     		add	r3, r7, #7
 349 00e8 1A70     		strb	r2, [r3]
 350 00ea 02E0     		b	.L21
 351              	.L23:
 153:.\bas.c       ****                            (MEASURE_BATTERY_MAX - MEASURE_BATTERY_MID); 
 154:.\bas.c       ****         }
 155:.\bas.c       ****         else
 156:.\bas.c       ****         {
 157:.\bas.c       ****             batteryLevel = CYBLE_BAS_MAX_BATTERY_LEVEL_VALUE;
 352              		.loc 1 157 0
 353 00ec FB1D     		add	r3, r7, #7
 354 00ee 6422     		mov	r2, #100
 355 00f0 1A70     		strb	r2, [r3]
 356              	.L21:
 158:.\bas.c       ****         }
 159:.\bas.c       ****         
 160:.\bas.c       ****         if(batteryLevel < LOW_BATTERY_LIMIT)
 357              		.loc 1 160 0
 358 00f2 FB1D     		add	r3, r7, #7
 359 00f4 1B78     		ldrb	r3, [r3]
 360 00f6 092B     		cmp	r3, #9
 361 00f8 03D8     		bhi	.L24
 161:.\bas.c       ****         {
 162:.\bas.c       ****             LowPower_LED_Write(LED_ON);
 362              		.loc 1 162 0
 363 00fa 0020     		mov	r0, #0
 364 00fc FFF7FEFF 		bl	LowPower_LED_Write
 365 0100 02E0     		b	.L25
 366              	.L24:
 163:.\bas.c       ****         }
 164:.\bas.c       ****         else
 165:.\bas.c       ****         {
 166:.\bas.c       ****             LowPower_LED_Write(LED_OFF);
 367              		.loc 1 166 0
 368 0102 0120     		mov	r0, #1
 369 0104 FFF7FEFF 		bl	LowPower_LED_Write
 370              	.L25:
 167:.\bas.c       ****         }
 168:.\bas.c       ****         
 169:.\bas.c       ****         if(batteryMeasureNotify == ENABLED)
 371              		.loc 1 169 0
 372 0108 284B     		ldr	r3, .L29+32
 373 010a 1B88     		ldrh	r3, [r3]
 374 010c 012B     		cmp	r3, #1
 375 010e 17D1     		bne	.L26
ARM GAS  C:\Users\Henny\AppData\Local\Temp\ccSXqeeh.s 			page 11


 170:.\bas.c       ****         {
 171:.\bas.c       ****             /* Update Battery Level characteristic value and send Notification */
 172:.\bas.c       ****             apiResult = CyBle_BassSendNotification(cyBle_connHandle, CYBLE_BATTERY_SERVICE_MEASURE_
 376              		.loc 1 172 0
 377 0110 1623     		mov	r3, #22
 378 0112 FC18     		add	r4, r7, r3
 379 0114 264B     		ldr	r3, .L29+36
 380 0116 FA1D     		add	r2, r7, #7
 381 0118 0092     		str	r2, [sp]
 382 011a 1A78     		ldrb	r2, [r3]
 383 011c 5B78     		ldrb	r3, [r3, #1]
 384 011e 1B02     		lsl	r3, r3, #8
 385 0120 1A43     		orr	r2, r3
 386 0122 0023     		mov	r3, #0
 387 0124 1204     		lsl	r2, r2, #16
 388 0126 120C     		lsr	r2, r2, #16
 389 0128 1B0C     		lsr	r3, r3, #16
 390 012a 1B04     		lsl	r3, r3, #16
 391 012c 1343     		orr	r3, r2
 392 012e 181C     		mov	r0, r3
 393 0130 0021     		mov	r1, #0
 394 0132 0022     		mov	r2, #0
 395 0134 0123     		mov	r3, #1
 396 0136 FFF7FEFF 		bl	CyBle_BassSendNotification
 397 013a 031C     		mov	r3, r0
 398 013c 2380     		strh	r3, [r4]
 399 013e 09E0     		b	.L27
 400              	.L26:
 173:.\bas.c       ****                 CYBLE_BAS_BATTERY_LEVEL, sizeof(batteryLevel), &batteryLevel);
 174:.\bas.c       ****         }
 175:.\bas.c       ****         else
 176:.\bas.c       ****         {
 177:.\bas.c       ****             /* Update Battery Level characteristic value */
 178:.\bas.c       ****             apiResult = CyBle_BassSetCharacteristicValue(CYBLE_BATTERY_SERVICE_MEASURE_SERVICE_INDE
 401              		.loc 1 178 0
 402 0140 1623     		mov	r3, #22
 403 0142 FC18     		add	r4, r7, r3
 404 0144 FB1D     		add	r3, r7, #7
 405 0146 0020     		mov	r0, #0
 406 0148 0021     		mov	r1, #0
 407 014a 0122     		mov	r2, #1
 408 014c FFF7FEFF 		bl	CyBle_BassSetCharacteristicValue
 409 0150 031C     		mov	r3, r0
 410 0152 2380     		strh	r3, [r4]
 411              	.L27:
 179:.\bas.c       ****                 CYBLE_BAS_BATTERY_LEVEL, sizeof(batteryLevel), &batteryLevel);
 180:.\bas.c       ****         }
 181:.\bas.c       ****             
 182:.\bas.c       ****         if(apiResult != CYBLE_ERROR_OK)
 412              		.loc 1 182 0
 413 0154 1623     		mov	r3, #22
 414 0156 FB18     		add	r3, r7, r3
 415 0158 1B88     		ldrh	r3, [r3]
 416 015a 002B     		cmp	r3, #0
 417 015c 0BD0     		beq	.L28
 183:.\bas.c       ****         {
 184:.\bas.c       ****             DBG_PRINTF("API Error: %x \r\n", apiResult);
ARM GAS  C:\Users\Henny\AppData\Local\Temp\ccSXqeeh.s 			page 12


 418              		.loc 1 184 0
 419 015e 1623     		mov	r3, #22
 420 0160 FB18     		add	r3, r7, r3
 421 0162 1B88     		ldrh	r3, [r3]
 422 0164 134A     		ldr	r2, .L29+40
 423 0166 101C     		mov	r0, r2
 424 0168 191C     		mov	r1, r3
 425 016a FFF7FEFF 		bl	printf
 185:.\bas.c       ****             batteryMeasureNotify = DISABLED;
 426              		.loc 1 185 0
 427 016e 0F4B     		ldr	r3, .L29+32
 428 0170 0022     		mov	r2, #0
 429 0172 1A80     		strh	r2, [r3]
 430 0174 07E0     		b	.L18
 431              	.L28:
 186:.\bas.c       ****         }
 187:.\bas.c       ****         else
 188:.\bas.c       ****         {
 189:.\bas.c       ****             DBG_PRINTF("MeasureBatteryLevelUpdate: %d \r\n",batteryLevel);
 432              		.loc 1 189 0
 433 0176 FB1D     		add	r3, r7, #7
 434 0178 1B78     		ldrb	r3, [r3]
 435 017a 1A1C     		mov	r2, r3
 436 017c 0E4B     		ldr	r3, .L29+44
 437 017e 181C     		mov	r0, r3
 438 0180 111C     		mov	r1, r2
 439 0182 FFF7FEFF 		bl	printf
 440              	.L18:
 190:.\bas.c       ****         }
 191:.\bas.c       ****     }
 192:.\bas.c       **** }
 441              		.loc 1 192 0
 442 0186 BD46     		mov	sp, r7
 443 0188 07B0     		add	sp, sp, #28
 444              		@ sp needed
 445 018a 90BD     		pop	{r4, r7, pc}
 446              	.L30:
 447              		.align	2
 448              	.L29:
 449 018c 00000000 		.word	batteryTimer.7664
 450 0190 B80B0000 		.word	3000
 451 0194 00003A40 		.word	1077542912
 452 0198 CF070000 		.word	1999
 453 019c EF0A0000 		.word	2799
 454 01a0 30F8FFFF 		.word	-2000
 455 01a4 B70B0000 		.word	2999
 456 01a8 10F5FFFF 		.word	-2800
 457 01ac 00000000 		.word	batteryMeasureNotify
 458 01b0 00000000 		.word	cyBle_connHandle
 459 01b4 9C000000 		.word	.LC14
 460 01b8 B0000000 		.word	.LC16
 461              		.cfi_endproc
 462              	.LFE38:
 463              		.size	MeasureBattery, .-MeasureBattery
 464              		.section	.rodata
 465 00d1 000000   		.align	2
 466              	.LC24:
ARM GAS  C:\Users\Henny\AppData\Local\Temp\ccSXqeeh.s 			page 13


 467 00d4 53696D75 		.ascii	"SimulBatteryLevelUpdate: %d \015\012\000"
 467      6C426174 
 467      74657279 
 467      4C657665 
 467      6C557064 
 468 00f3 00       		.section	.text.SimulateBattery,"ax",%progbits
 469              		.align	2
 470              		.global	SimulateBattery
 471              		.code	16
 472              		.thumb_func
 473              		.type	SimulateBattery, %function
 474              	SimulateBattery:
 475              	.LFB39:
 193:.\bas.c       **** 
 194:.\bas.c       **** 
 195:.\bas.c       **** /*******************************************************************************
 196:.\bas.c       **** * Function Name: SimulateBattery()
 197:.\bas.c       **** ********************************************************************************
 198:.\bas.c       **** *
 199:.\bas.c       **** * Summary:
 200:.\bas.c       **** *   The custom function to simulate Battery Voltage.
 201:.\bas.c       **** *
 202:.\bas.c       **** *******************************************************************************/
 203:.\bas.c       **** void SimulateBattery(void)
 204:.\bas.c       **** {
 476              		.loc 1 204 0
 477              		.cfi_startproc
 478 0000 90B5     		push	{r4, r7, lr}
 479              		.cfi_def_cfa_offset 12
 480              		.cfi_offset 4, -12
 481              		.cfi_offset 7, -8
 482              		.cfi_offset 14, -4
 483 0002 85B0     		sub	sp, sp, #20
 484              		.cfi_def_cfa_offset 32
 485 0004 02AF     		add	r7, sp, #8
 486              		.cfi_def_cfa 7, 24
 205:.\bas.c       ****     static uint32 batteryTimer = BATTERY_TIMEOUT;
 206:.\bas.c       ****     static uint8 batteryLevel = SIM_BATTERY_MIN;
 207:.\bas.c       ****     CYBLE_API_RESULT_T apiResult;
 208:.\bas.c       ****     
 209:.\bas.c       ****     if((CyBle_GattGetBusyStatus() == CYBLE_STACK_STATE_FREE) && (--batteryTimer == 0u))
 487              		.loc 1 209 0
 488 0006 2E4B     		ldr	r3, .L37
 489 0008 1B78     		ldrb	r3, [r3]
 490 000a DBB2     		uxtb	r3, r3
 491 000c 002B     		cmp	r3, #0
 492 000e 53D1     		bne	.L31
 493              		.loc 1 209 0 is_stmt 0 discriminator 1
 494 0010 2C4B     		ldr	r3, .L37+4
 495 0012 1B68     		ldr	r3, [r3]
 496 0014 5A1E     		sub	r2, r3, #1
 497 0016 2B4B     		ldr	r3, .L37+4
 498 0018 1A60     		str	r2, [r3]
 499 001a 2A4B     		ldr	r3, .L37+4
 500 001c 1B68     		ldr	r3, [r3]
 501 001e 002B     		cmp	r3, #0
 502 0020 4AD1     		bne	.L31
ARM GAS  C:\Users\Henny\AppData\Local\Temp\ccSXqeeh.s 			page 14


 210:.\bas.c       ****     {
 211:.\bas.c       ****         batteryTimer = BATTERY_TIMEOUT;
 503              		.loc 1 211 0 is_stmt 1
 504 0022 284B     		ldr	r3, .L37+4
 505 0024 284A     		ldr	r2, .L37+8
 506 0026 1A60     		str	r2, [r3]
 212:.\bas.c       ****         
 213:.\bas.c       ****         /* Battery Level simulation */
 214:.\bas.c       ****         batteryLevel += SIM_BATTERY_INCREMENT;
 507              		.loc 1 214 0
 508 0028 284B     		ldr	r3, .L37+12
 509 002a 1B78     		ldrb	r3, [r3]
 510 002c 0133     		add	r3, r3, #1
 511 002e DAB2     		uxtb	r2, r3
 512 0030 264B     		ldr	r3, .L37+12
 513 0032 1A70     		strb	r2, [r3]
 215:.\bas.c       ****         if(batteryLevel > SIM_BATTERY_MAX)
 514              		.loc 1 215 0
 515 0034 254B     		ldr	r3, .L37+12
 516 0036 1B78     		ldrb	r3, [r3]
 517 0038 142B     		cmp	r3, #20
 518 003a 02D9     		bls	.L33
 216:.\bas.c       ****         {
 217:.\bas.c       ****             batteryLevel = SIM_BATTERY_MIN; 
 519              		.loc 1 217 0
 520 003c 234B     		ldr	r3, .L37+12
 521 003e 0222     		mov	r2, #2
 522 0040 1A70     		strb	r2, [r3]
 523              	.L33:
 218:.\bas.c       ****         }
 219:.\bas.c       **** 
 220:.\bas.c       ****         if(batterySimulationNotify == ENABLED)
 524              		.loc 1 220 0
 525 0042 234B     		ldr	r3, .L37+16
 526 0044 1B88     		ldrh	r3, [r3]
 527 0046 012B     		cmp	r3, #1
 528 0048 16D1     		bne	.L34
 221:.\bas.c       ****         {
 222:.\bas.c       ****             /* Update Battery Level characteristic value and send Notification */
 223:.\bas.c       ****              apiResult = CyBle_BassSendNotification(cyBle_connHandle, CYBLE_BATTERY_SERVICE_SIMULAT
 529              		.loc 1 223 0
 530 004a BC1D     		add	r4, r7, #6
 531 004c 214B     		ldr	r3, .L37+20
 532 004e 1F4A     		ldr	r2, .L37+12
 533 0050 0092     		str	r2, [sp]
 534 0052 1A78     		ldrb	r2, [r3]
 535 0054 5B78     		ldrb	r3, [r3, #1]
 536 0056 1B02     		lsl	r3, r3, #8
 537 0058 1A43     		orr	r2, r3
 538 005a 0023     		mov	r3, #0
 539 005c 1204     		lsl	r2, r2, #16
 540 005e 120C     		lsr	r2, r2, #16
 541 0060 1B0C     		lsr	r3, r3, #16
 542 0062 1B04     		lsl	r3, r3, #16
 543 0064 1343     		orr	r3, r2
 544 0066 181C     		mov	r0, r3
 545 0068 0121     		mov	r1, #1
ARM GAS  C:\Users\Henny\AppData\Local\Temp\ccSXqeeh.s 			page 15


 546 006a 0022     		mov	r2, #0
 547 006c 0123     		mov	r3, #1
 548 006e FFF7FEFF 		bl	CyBle_BassSendNotification
 549 0072 031C     		mov	r3, r0
 550 0074 2380     		strh	r3, [r4]
 551 0076 08E0     		b	.L35
 552              	.L34:
 224:.\bas.c       ****                 CYBLE_BAS_BATTERY_LEVEL, sizeof(batteryLevel), &batteryLevel);
 225:.\bas.c       ****         }
 226:.\bas.c       ****         else
 227:.\bas.c       ****         {
 228:.\bas.c       ****             /* Update Battery Level characteristic value */
 229:.\bas.c       ****              apiResult = CyBle_BassSetCharacteristicValue(CYBLE_BATTERY_SERVICE_SIMULATE_SERVICE_IN
 553              		.loc 1 229 0
 554 0078 BC1D     		add	r4, r7, #6
 555 007a 144B     		ldr	r3, .L37+12
 556 007c 0120     		mov	r0, #1
 557 007e 0021     		mov	r1, #0
 558 0080 0122     		mov	r2, #1
 559 0082 FFF7FEFF 		bl	CyBle_BassSetCharacteristicValue
 560 0086 031C     		mov	r3, r0
 561 0088 2380     		strh	r3, [r4]
 562              	.L35:
 230:.\bas.c       ****                 CYBLE_BAS_BATTERY_LEVEL, sizeof(batteryLevel), &batteryLevel);
 231:.\bas.c       ****         }
 232:.\bas.c       ****         if(apiResult != CYBLE_ERROR_OK)
 563              		.loc 1 232 0
 564 008a BB1D     		add	r3, r7, #6
 565 008c 1B88     		ldrh	r3, [r3]
 566 008e 002B     		cmp	r3, #0
 567 0090 0AD0     		beq	.L36
 233:.\bas.c       ****         {
 234:.\bas.c       ****             DBG_PRINTF("API Error: %x \r\n", apiResult);
 568              		.loc 1 234 0
 569 0092 BB1D     		add	r3, r7, #6
 570 0094 1B88     		ldrh	r3, [r3]
 571 0096 104A     		ldr	r2, .L37+24
 572 0098 101C     		mov	r0, r2
 573 009a 191C     		mov	r1, r3
 574 009c FFF7FEFF 		bl	printf
 235:.\bas.c       ****             batterySimulationNotify = DISABLED;
 575              		.loc 1 235 0
 576 00a0 0B4B     		ldr	r3, .L37+16
 577 00a2 0022     		mov	r2, #0
 578 00a4 1A80     		strh	r2, [r3]
 579 00a6 07E0     		b	.L31
 580              	.L36:
 236:.\bas.c       ****         }
 237:.\bas.c       ****         else
 238:.\bas.c       ****         {
 239:.\bas.c       ****             DBG_PRINTF("SimulBatteryLevelUpdate: %d \r\n",batteryLevel);
 581              		.loc 1 239 0
 582 00a8 084B     		ldr	r3, .L37+12
 583 00aa 1B78     		ldrb	r3, [r3]
 584 00ac 1A1C     		mov	r2, r3
 585 00ae 0B4B     		ldr	r3, .L37+28
 586 00b0 181C     		mov	r0, r3
ARM GAS  C:\Users\Henny\AppData\Local\Temp\ccSXqeeh.s 			page 16


 587 00b2 111C     		mov	r1, r2
 588 00b4 FFF7FEFF 		bl	printf
 589              	.L31:
 240:.\bas.c       ****         }
 241:.\bas.c       ****     }
 242:.\bas.c       **** }
 590              		.loc 1 242 0
 591 00b8 BD46     		mov	sp, r7
 592 00ba 03B0     		add	sp, sp, #12
 593              		@ sp needed
 594 00bc 90BD     		pop	{r4, r7, pc}
 595              	.L38:
 596 00be C046     		.align	2
 597              	.L37:
 598 00c0 00000000 		.word	cyBle_busyStatus
 599 00c4 04000000 		.word	batteryTimer.7668
 600 00c8 B80B0000 		.word	3000
 601 00cc 08000000 		.word	batteryLevel.7669
 602 00d0 00000000 		.word	batterySimulationNotify
 603 00d4 00000000 		.word	cyBle_connHandle
 604 00d8 9C000000 		.word	.LC14
 605 00dc D4000000 		.word	.LC24
 606              		.cfi_endproc
 607              	.LFE39:
 608              		.size	SimulateBattery, .-SimulateBattery
 609              		.data
 610              		.align	2
 611              		.type	batteryTimer.7664, %object
 612              		.size	batteryTimer.7664, 4
 613              	batteryTimer.7664:
 614 0000 B80B0000 		.word	3000
 615              		.align	2
 616              		.type	batteryTimer.7668, %object
 617              		.size	batteryTimer.7668, 4
 618              	batteryTimer.7668:
 619 0004 B80B0000 		.word	3000
 620              		.type	batteryLevel.7669, %object
 621              		.size	batteryLevel.7669, 1
 622              	batteryLevel.7669:
 623 0008 02       		.byte	2
 624 0009 000000   		.text
 625              	.Letext0:
 626              		.file 2 "Generated_Source\\PSoC4/cytypes.h"
 627              		.file 3 "Generated_Source\\PSoC4/BLE_Stack.h"
 628              		.file 4 "Generated_Source\\PSoC4/BLE_StackGatt.h"
 629              		.file 5 "Generated_Source\\PSoC4/BLE_bas.h"
 630              		.file 6 "Generated_Source\\PSoC4/BLE_dis.h"
 631              		.file 7 "Generated_Source\\PSoC4/BLE_eventHandler.h"